ARM GAS  C:\Users\23671\AppData\Local\Temp\ccU6TVHa.s 			page 1


   1              		.cpu cortex-m7
   2              		.arch armv7e-m
   3              		.fpu fpv5-d16
   4              		.eabi_attribute 28, 1
   5              		.eabi_attribute 20, 1
   6              		.eabi_attribute 21, 1
   7              		.eabi_attribute 23, 3
   8              		.eabi_attribute 24, 1
   9              		.eabi_attribute 25, 1
  10              		.eabi_attribute 26, 1
  11              		.eabi_attribute 30, 6
  12              		.eabi_attribute 34, 1
  13              		.eabi_attribute 18, 4
  14              		.file	"freertos.c"
  15              		.text
  16              	.Ltext0:
  17              		.cfi_sections	.debug_frame
  18              		.file 1 "Core/Src/freertos.c"
  19              		.global	color
  20              		.section	.bss.color,"aw",%nobits
  21              		.align	2
  24              	color:
  25 0000 00000000 		.space	4
  26              		.global	Remote_controlHandle
  27              		.section	.bss.Remote_controlHandle,"aw",%nobits
  28              		.align	2
  31              	Remote_controlHandle:
  32 0000 00000000 		.space	4
  33              		.global	Remote_control_attributes
  34              		.section	.rodata
  35              		.align	2
  36              	.LC0:
  37 0000 52656D6F 		.ascii	"Remote_control\000"
  37      74655F63 
  37      6F6E7472 
  37      6F6C00
  38              		.section	.rodata.Remote_control_attributes,"a"
  39              		.align	2
  42              	Remote_control_attributes:
  43 0000 00000000 		.word	.LC0
  44 0004 00000000 		.space	16
  44      00000000 
  44      00000000 
  44      00000000 
  45 0014 00080000 		.word	2048
  46 0018 18000000 		.word	24
  47 001c 00000000 		.space	8
  47      00000000 
  48              		.global	GimbalHandle
  49              		.section	.bss.GimbalHandle,"aw",%nobits
  50              		.align	2
  53              	GimbalHandle:
  54 0000 00000000 		.space	4
  55              		.global	Gimbal_attributes
  56              		.section	.rodata
  57 000f 00       		.align	2
  58              	.LC1:
ARM GAS  C:\Users\23671\AppData\Local\Temp\ccU6TVHa.s 			page 2


  59 0010 47696D62 		.ascii	"Gimbal\000"
  59      616C00
  60              		.section	.rodata.Gimbal_attributes,"a"
  61              		.align	2
  64              	Gimbal_attributes:
  65 0000 10000000 		.word	.LC1
  66 0004 00000000 		.space	16
  66      00000000 
  66      00000000 
  66      00000000 
  67 0014 00080000 		.word	2048
  68 0018 08000000 		.word	8
  69 001c 00000000 		.space	8
  69      00000000 
  70              		.global	ChassisHandle
  71              		.section	.bss.ChassisHandle,"aw",%nobits
  72              		.align	2
  75              	ChassisHandle:
  76 0000 00000000 		.space	4
  77              		.global	Chassis_attributes
  78              		.section	.rodata
  79 0017 00       		.align	2
  80              	.LC2:
  81 0018 43686173 		.ascii	"Chassis\000"
  81      73697300 
  82              		.section	.rodata.Chassis_attributes,"a"
  83              		.align	2
  86              	Chassis_attributes:
  87 0000 18000000 		.word	.LC2
  88 0004 00000000 		.space	16
  88      00000000 
  88      00000000 
  88      00000000 
  89 0014 00080000 		.word	2048
  90 0018 08000000 		.word	8
  91 001c 00000000 		.space	8
  91      00000000 
  92              		.global	Motor_controlHandle
  93              		.section	.bss.Motor_controlHandle,"aw",%nobits
  94              		.align	2
  97              	Motor_controlHandle:
  98 0000 00000000 		.space	4
  99              		.global	Motor_control_attributes
 100              		.section	.rodata
 101              		.align	2
 102              	.LC3:
 103 0020 4D6F746F 		.ascii	"Motor_control\000"
 103      725F636F 
 103      6E74726F 
 103      6C00
 104              		.section	.rodata.Motor_control_attributes,"a"
 105              		.align	2
 108              	Motor_control_attributes:
 109 0000 20000000 		.word	.LC3
 110 0004 00000000 		.space	16
 110      00000000 
 110      00000000 
ARM GAS  C:\Users\23671\AppData\Local\Temp\ccU6TVHa.s 			page 3


 110      00000000 
 111 0014 00040000 		.word	1024
 112 0018 08000000 		.word	8
 113 001c 00000000 		.space	8
 113      00000000 
 114              		.global	ShootHandle
 115              		.section	.bss.ShootHandle,"aw",%nobits
 116              		.align	2
 119              	ShootHandle:
 120 0000 00000000 		.space	4
 121              		.global	Shoot_attributes
 122              		.section	.rodata
 123 002e 0000     		.align	2
 124              	.LC4:
 125 0030 53686F6F 		.ascii	"Shoot\000"
 125      7400
 126              		.section	.rodata.Shoot_attributes,"a"
 127              		.align	2
 130              	Shoot_attributes:
 131 0000 30000000 		.word	.LC4
 132 0004 00000000 		.space	16
 132      00000000 
 132      00000000 
 132      00000000 
 133 0014 00040000 		.word	1024
 134 0018 08000000 		.word	8
 135 001c 00000000 		.space	8
 135      00000000 
 136              		.global	RefereeHandle
 137              		.section	.bss.RefereeHandle,"aw",%nobits
 138              		.align	2
 141              	RefereeHandle:
 142 0000 00000000 		.space	4
 143              		.global	Referee_attributes
 144              		.section	.rodata
 145 0036 0000     		.align	2
 146              	.LC5:
 147 0038 52656665 		.ascii	"Referee\000"
 147      72656500 
 148              		.section	.rodata.Referee_attributes,"a"
 149              		.align	2
 152              	Referee_attributes:
 153 0000 38000000 		.word	.LC5
 154 0004 00000000 		.space	16
 154      00000000 
 154      00000000 
 154      00000000 
 155 0014 00080000 		.word	2048
 156 0018 08000000 		.word	8
 157 001c 00000000 		.space	8
 157      00000000 
 158              		.global	Log_and_debugHandle
 159              		.section	.bss.Log_and_debugHandle,"aw",%nobits
 160              		.align	2
 163              	Log_and_debugHandle:
 164 0000 00000000 		.space	4
 165              		.global	Log_and_debug_attributes
ARM GAS  C:\Users\23671\AppData\Local\Temp\ccU6TVHa.s 			page 4


 166              		.section	.rodata
 167              		.align	2
 168              	.LC6:
 169 0040 4C6F675F 		.ascii	"Log_and_debug\000"
 169      616E645F 
 169      64656275 
 169      6700
 170              		.section	.rodata.Log_and_debug_attributes,"a"
 171              		.align	2
 174              	Log_and_debug_attributes:
 175 0000 40000000 		.word	.LC6
 176 0004 00000000 		.space	16
 176      00000000 
 176      00000000 
 176      00000000 
 177 0014 00040000 		.word	1024
 178 0018 08000000 		.word	8
 179 001c 00000000 		.space	8
 179      00000000 
 180              		.section	.text.vApplicationIdleHook,"ax",%progbits
 181              		.align	1
 182              		.global	vApplicationIdleHook
 183              		.syntax unified
 184              		.thumb
 185              		.thumb_func
 187              	vApplicationIdleHook:
 188              	.LFB151:
   1:Core/Src/freertos.c **** /* USER CODE BEGIN Header */
   2:Core/Src/freertos.c **** /**
   3:Core/Src/freertos.c ****  ******************************************************************************
   4:Core/Src/freertos.c ****  * File Name          : freertos.c
   5:Core/Src/freertos.c ****  * Description        : Code for freertos applications
   6:Core/Src/freertos.c ****  ******************************************************************************
   7:Core/Src/freertos.c ****  * @attention
   8:Core/Src/freertos.c ****  *
   9:Core/Src/freertos.c ****  * Copyright (c) 2024 STMicroelectronics.
  10:Core/Src/freertos.c ****  * All rights reserved.
  11:Core/Src/freertos.c ****  *
  12:Core/Src/freertos.c ****  * This software is licensed under terms that can be found in the LICENSE file
  13:Core/Src/freertos.c ****  * in the root directory of this software component.
  14:Core/Src/freertos.c ****  * If no LICENSE file comes with this software, it is provided AS-IS.
  15:Core/Src/freertos.c ****  *
  16:Core/Src/freertos.c ****  ******************************************************************************
  17:Core/Src/freertos.c ****  */
  18:Core/Src/freertos.c **** /* USER CODE END Header */
  19:Core/Src/freertos.c **** 
  20:Core/Src/freertos.c **** /* Includes ------------------------------------------------------------------*/
  21:Core/Src/freertos.c **** #include "FreeRTOS.h"
  22:Core/Src/freertos.c **** #include "task.h"
  23:Core/Src/freertos.c **** #include "main.h"
  24:Core/Src/freertos.c **** #include "cmsis_os.h"
  25:Core/Src/freertos.c **** 
  26:Core/Src/freertos.c **** /* Private includes ----------------------------------------------------------*/
  27:Core/Src/freertos.c **** /* USER CODE BEGIN Includes */
  28:Core/Src/freertos.c **** #include "remote_control.h"
  29:Core/Src/freertos.c **** #include "Chassis.h"
  30:Core/Src/freertos.c **** #include "Gimbal.h"
ARM GAS  C:\Users\23671\AppData\Local\Temp\ccU6TVHa.s 			page 5


  31:Core/Src/freertos.c **** #include "Global_status.h"
  32:Core/Src/freertos.c **** #include "Auto_control.h"
  33:Core/Src/freertos.c **** #include "shoot.h"
  34:Core/Src/freertos.c **** #include "ui.h"
  35:Core/Src/freertos.c **** #include "music.h"
  36:Core/Src/freertos.c **** 
  37:Core/Src/freertos.c **** #include "referee_system.h"
  38:Core/Src/freertos.c **** #include "motor.h"
  39:Core/Src/freertos.c **** #include "supercup.h"
  40:Core/Src/freertos.c **** #include "LED.h"
  41:Core/Src/freertos.c **** #include <cmsis_os2.h>
  42:Core/Src/freertos.c **** 
  43:Core/Src/freertos.c **** #include "iwdg.h"
  44:Core/Src/freertos.c **** #include "buzzer.h"
  45:Core/Src/freertos.c **** /* USER CODE END Includes */
  46:Core/Src/freertos.c **** 
  47:Core/Src/freertos.c **** /* Private typedef -----------------------------------------------------------*/
  48:Core/Src/freertos.c **** /* USER CODE BEGIN PTD */
  49:Core/Src/freertos.c **** 
  50:Core/Src/freertos.c **** /* USER CODE END PTD */
  51:Core/Src/freertos.c **** 
  52:Core/Src/freertos.c **** /* Private define ------------------------------------------------------------*/
  53:Core/Src/freertos.c **** /* USER CODE BEGIN PD */
  54:Core/Src/freertos.c **** 
  55:Core/Src/freertos.c **** /* USER CODE END PD */
  56:Core/Src/freertos.c **** 
  57:Core/Src/freertos.c **** /* Private macro -------------------------------------------------------------*/
  58:Core/Src/freertos.c **** /* USER CODE BEGIN PM */
  59:Core/Src/freertos.c **** 
  60:Core/Src/freertos.c **** /* USER CODE END PM */
  61:Core/Src/freertos.c **** 
  62:Core/Src/freertos.c **** /* Private variables ---------------------------------------------------------*/
  63:Core/Src/freertos.c **** /* USER CODE BEGIN Variables */
  64:Core/Src/freertos.c **** uint32_t color = 0;
  65:Core/Src/freertos.c **** /* USER CODE END Variables */
  66:Core/Src/freertos.c **** /* Definitions for Remote_control */
  67:Core/Src/freertos.c **** osThreadId_t Remote_controlHandle;
  68:Core/Src/freertos.c **** const osThreadAttr_t Remote_control_attributes = {
  69:Core/Src/freertos.c ****     .name = "Remote_control",
  70:Core/Src/freertos.c ****     .stack_size = 512 * 4,
  71:Core/Src/freertos.c ****     .priority = (osPriority_t)osPriorityNormal,
  72:Core/Src/freertos.c **** };
  73:Core/Src/freertos.c **** /* Definitions for Gimbal */
  74:Core/Src/freertos.c **** osThreadId_t GimbalHandle;
  75:Core/Src/freertos.c **** const osThreadAttr_t Gimbal_attributes = {
  76:Core/Src/freertos.c ****     .name = "Gimbal",
  77:Core/Src/freertos.c ****     .stack_size = 512 * 4,
  78:Core/Src/freertos.c ****     .priority = (osPriority_t)osPriorityLow,
  79:Core/Src/freertos.c **** };
  80:Core/Src/freertos.c **** /* Definitions for Chassis */
  81:Core/Src/freertos.c **** osThreadId_t ChassisHandle;
  82:Core/Src/freertos.c **** const osThreadAttr_t Chassis_attributes = {
  83:Core/Src/freertos.c ****     .name = "Chassis",
  84:Core/Src/freertos.c ****     .stack_size = 512 * 4,
  85:Core/Src/freertos.c ****     .priority = (osPriority_t)osPriorityLow,
  86:Core/Src/freertos.c **** };
  87:Core/Src/freertos.c **** /* Definitions for Motor_control */
ARM GAS  C:\Users\23671\AppData\Local\Temp\ccU6TVHa.s 			page 6


  88:Core/Src/freertos.c **** osThreadId_t Motor_controlHandle;
  89:Core/Src/freertos.c **** const osThreadAttr_t Motor_control_attributes = {
  90:Core/Src/freertos.c ****     .name = "Motor_control",
  91:Core/Src/freertos.c ****     .stack_size = 256 * 4,
  92:Core/Src/freertos.c ****     .priority = (osPriority_t)osPriorityLow,
  93:Core/Src/freertos.c **** };
  94:Core/Src/freertos.c **** /* Definitions for Shoot */
  95:Core/Src/freertos.c **** osThreadId_t ShootHandle;
  96:Core/Src/freertos.c **** const osThreadAttr_t Shoot_attributes = {
  97:Core/Src/freertos.c ****     .name = "Shoot",
  98:Core/Src/freertos.c ****     .stack_size = 256 * 4,
  99:Core/Src/freertos.c ****     .priority = (osPriority_t)osPriorityLow,
 100:Core/Src/freertos.c **** };
 101:Core/Src/freertos.c **** /* Definitions for Referee */
 102:Core/Src/freertos.c **** osThreadId_t RefereeHandle;
 103:Core/Src/freertos.c **** const osThreadAttr_t Referee_attributes = {
 104:Core/Src/freertos.c ****     .name = "Referee",
 105:Core/Src/freertos.c ****     .stack_size = 512 * 4,
 106:Core/Src/freertos.c ****     .priority = (osPriority_t)osPriorityLow,
 107:Core/Src/freertos.c **** };
 108:Core/Src/freertos.c **** /* Definitions for Log_and_debug */
 109:Core/Src/freertos.c **** osThreadId_t Log_and_debugHandle;
 110:Core/Src/freertos.c **** const osThreadAttr_t Log_and_debug_attributes = {
 111:Core/Src/freertos.c ****     .name = "Log_and_debug",
 112:Core/Src/freertos.c ****     .stack_size = 256 * 4,
 113:Core/Src/freertos.c ****     .priority = (osPriority_t)osPriorityLow,
 114:Core/Src/freertos.c **** };
 115:Core/Src/freertos.c **** 
 116:Core/Src/freertos.c **** /* Private function prototypes -----------------------------------------------*/
 117:Core/Src/freertos.c **** /* USER CODE BEGIN FunctionPrototypes */
 118:Core/Src/freertos.c **** 
 119:Core/Src/freertos.c **** /* USER CODE END FunctionPrototypes */
 120:Core/Src/freertos.c **** 
 121:Core/Src/freertos.c **** void Remote_control_Task(void *argument);
 122:Core/Src/freertos.c **** void Gimbal_Task(void *argument);
 123:Core/Src/freertos.c **** void Chassis_Task(void *argument);
 124:Core/Src/freertos.c **** void Motor_control_Task(void *argument);
 125:Core/Src/freertos.c **** void Shoot_Task(void *argument);
 126:Core/Src/freertos.c **** void Referee_Task(void *argument);
 127:Core/Src/freertos.c **** void Log_and_debug_Task(void *argument);
 128:Core/Src/freertos.c **** 
 129:Core/Src/freertos.c **** extern void MX_USB_DEVICE_Init(void);
 130:Core/Src/freertos.c **** void MX_FREERTOS_Init(void); /* (MISRA C 2004 rule 8.1) */
 131:Core/Src/freertos.c **** 
 132:Core/Src/freertos.c **** /* Hook prototypes */
 133:Core/Src/freertos.c **** void vApplicationIdleHook(void);
 134:Core/Src/freertos.c **** 
 135:Core/Src/freertos.c **** /* USER CODE BEGIN 2 */
 136:Core/Src/freertos.c **** void vApplicationIdleHook(void)
 137:Core/Src/freertos.c **** {
 189              		.loc 1 137 1
 190              		.cfi_startproc
 191              		@ args = 0, pretend = 0, frame = 0
 192              		@ frame_needed = 1, uses_anonymous_args = 0
 193              		@ link register save eliminated.
 194 0000 80B4     		push	{r7}
 195              	.LCFI0:
ARM GAS  C:\Users\23671\AppData\Local\Temp\ccU6TVHa.s 			page 7


 196              		.cfi_def_cfa_offset 4
 197              		.cfi_offset 7, -4
 198 0002 00AF     		add	r7, sp, #0
 199              	.LCFI1:
 200              		.cfi_def_cfa_register 7
 138:Core/Src/freertos.c ****   /* vApplicationIdleHook() will only be called if configUSE_IDLE_HOOK is set
 139:Core/Src/freertos.c ****   to 1 in FreeRTOSConfig.h. It will be called on each iteration of the idle
 140:Core/Src/freertos.c ****   task. It is essential that code added to this hook function never attempts
 141:Core/Src/freertos.c ****   to block in any way (for example, call xQueueReceive() with a block time
 142:Core/Src/freertos.c ****   specified, or call vTaskDelay()). If the application makes use of the
 143:Core/Src/freertos.c ****   vTaskDelete() API function (as this demo application does) then it is also
 144:Core/Src/freertos.c ****   important that vApplicationIdleHook() is permitted to return to its calling
 145:Core/Src/freertos.c ****   function, because it is the responsibility of the idle task to clean up
 146:Core/Src/freertos.c ****   memory allocated by the kernel to any task that has since been deleted. */
 147:Core/Src/freertos.c **** }
 201              		.loc 1 147 1
 202 0004 00BF     		nop
 203 0006 BD46     		mov	sp, r7
 204              	.LCFI2:
 205              		.cfi_def_cfa_register 13
 206              		@ sp needed
 207 0008 5DF8047B 		ldr	r7, [sp], #4
 208              	.LCFI3:
 209              		.cfi_restore 7
 210              		.cfi_def_cfa_offset 0
 211 000c 7047     		bx	lr
 212              		.cfi_endproc
 213              	.LFE151:
 215              		.section	.text.MX_FREERTOS_Init,"ax",%progbits
 216              		.align	1
 217              		.global	MX_FREERTOS_Init
 218              		.syntax unified
 219              		.thumb
 220              		.thumb_func
 222              	MX_FREERTOS_Init:
 223              	.LFB152:
 148:Core/Src/freertos.c **** /* USER CODE END 2 */
 149:Core/Src/freertos.c **** 
 150:Core/Src/freertos.c **** /**
 151:Core/Src/freertos.c ****  * @brief  FreeRTOS initialization
 152:Core/Src/freertos.c ****  * @param  None
 153:Core/Src/freertos.c ****  * @retval None
 154:Core/Src/freertos.c ****  */
 155:Core/Src/freertos.c **** void MX_FREERTOS_Init(void)
 156:Core/Src/freertos.c **** {
 224              		.loc 1 156 1
 225              		.cfi_startproc
 226              		@ args = 0, pretend = 0, frame = 0
 227              		@ frame_needed = 1, uses_anonymous_args = 0
 228 0000 80B5     		push	{r7, lr}
 229              	.LCFI4:
 230              		.cfi_def_cfa_offset 8
 231              		.cfi_offset 7, -8
 232              		.cfi_offset 14, -4
 233 0002 00AF     		add	r7, sp, #0
 234              	.LCFI5:
 235              		.cfi_def_cfa_register 7
ARM GAS  C:\Users\23671\AppData\Local\Temp\ccU6TVHa.s 			page 8


 157:Core/Src/freertos.c ****   /* USER CODE BEGIN Init */
 158:Core/Src/freertos.c **** 
 159:Core/Src/freertos.c ****   /* USER CODE END Init */
 160:Core/Src/freertos.c **** 
 161:Core/Src/freertos.c ****   /* USER CODE BEGIN RTOS_MUTEX */
 162:Core/Src/freertos.c ****   /* add mutexes, ... */
 163:Core/Src/freertos.c ****   /* USER CODE END RTOS_MUTEX */
 164:Core/Src/freertos.c **** 
 165:Core/Src/freertos.c ****   /* USER CODE BEGIN RTOS_SEMAPHORES */
 166:Core/Src/freertos.c ****   /* add semaphores, ... */
 167:Core/Src/freertos.c ****   /* USER CODE END RTOS_SEMAPHORES */
 168:Core/Src/freertos.c **** 
 169:Core/Src/freertos.c ****   /* USER CODE BEGIN RTOS_TIMERS */
 170:Core/Src/freertos.c ****   /* start timers, add new ones, ... */
 171:Core/Src/freertos.c ****   /* USER CODE END RTOS_TIMERS */
 172:Core/Src/freertos.c **** 
 173:Core/Src/freertos.c ****   /* USER CODE BEGIN RTOS_QUEUES */
 174:Core/Src/freertos.c ****   /* add queues, ... */
 175:Core/Src/freertos.c ****   /* USER CODE END RTOS_QUEUES */
 176:Core/Src/freertos.c **** 
 177:Core/Src/freertos.c ****   /* Create the thread(s) */
 178:Core/Src/freertos.c ****   /* creation of Remote_control */
 179:Core/Src/freertos.c ****   Remote_controlHandle = osThreadNew(Remote_control_Task, NULL, &Remote_control_attributes);
 236              		.loc 1 179 26
 237 0004 1C4A     		ldr	r2, .L3
 238 0006 0021     		movs	r1, #0
 239 0008 1C48     		ldr	r0, .L3+4
 240 000a FFF7FEFF 		bl	osThreadNew
 241 000e 0346     		mov	r3, r0
 242              		.loc 1 179 24 discriminator 1
 243 0010 1B4A     		ldr	r2, .L3+8
 244 0012 1360     		str	r3, [r2]
 180:Core/Src/freertos.c **** 
 181:Core/Src/freertos.c ****   /* creation of Gimbal */
 182:Core/Src/freertos.c ****   GimbalHandle = osThreadNew(Gimbal_Task, NULL, &Gimbal_attributes);
 245              		.loc 1 182 18
 246 0014 1B4A     		ldr	r2, .L3+12
 247 0016 0021     		movs	r1, #0
 248 0018 1B48     		ldr	r0, .L3+16
 249 001a FFF7FEFF 		bl	osThreadNew
 250 001e 0346     		mov	r3, r0
 251              		.loc 1 182 16 discriminator 1
 252 0020 1A4A     		ldr	r2, .L3+20
 253 0022 1360     		str	r3, [r2]
 183:Core/Src/freertos.c **** 
 184:Core/Src/freertos.c ****   /* creation of Chassis */
 185:Core/Src/freertos.c ****   ChassisHandle = osThreadNew(Chassis_Task, NULL, &Chassis_attributes);
 254              		.loc 1 185 19
 255 0024 1A4A     		ldr	r2, .L3+24
 256 0026 0021     		movs	r1, #0
 257 0028 1A48     		ldr	r0, .L3+28
 258 002a FFF7FEFF 		bl	osThreadNew
 259 002e 0346     		mov	r3, r0
 260              		.loc 1 185 17 discriminator 1
 261 0030 194A     		ldr	r2, .L3+32
 262 0032 1360     		str	r3, [r2]
 186:Core/Src/freertos.c **** 
ARM GAS  C:\Users\23671\AppData\Local\Temp\ccU6TVHa.s 			page 9


 187:Core/Src/freertos.c ****   /* creation of Motor_control */
 188:Core/Src/freertos.c ****   Motor_controlHandle = osThreadNew(Motor_control_Task, NULL, &Motor_control_attributes);
 263              		.loc 1 188 25
 264 0034 194A     		ldr	r2, .L3+36
 265 0036 0021     		movs	r1, #0
 266 0038 1948     		ldr	r0, .L3+40
 267 003a FFF7FEFF 		bl	osThreadNew
 268 003e 0346     		mov	r3, r0
 269              		.loc 1 188 23 discriminator 1
 270 0040 184A     		ldr	r2, .L3+44
 271 0042 1360     		str	r3, [r2]
 189:Core/Src/freertos.c **** 
 190:Core/Src/freertos.c ****   /* creation of Shoot */
 191:Core/Src/freertos.c ****   ShootHandle = osThreadNew(Shoot_Task, NULL, &Shoot_attributes);
 272              		.loc 1 191 17
 273 0044 184A     		ldr	r2, .L3+48
 274 0046 0021     		movs	r1, #0
 275 0048 1848     		ldr	r0, .L3+52
 276 004a FFF7FEFF 		bl	osThreadNew
 277 004e 0346     		mov	r3, r0
 278              		.loc 1 191 15 discriminator 1
 279 0050 174A     		ldr	r2, .L3+56
 280 0052 1360     		str	r3, [r2]
 192:Core/Src/freertos.c **** 
 193:Core/Src/freertos.c ****   /* creation of Referee */
 194:Core/Src/freertos.c ****   RefereeHandle = osThreadNew(Referee_Task, NULL, &Referee_attributes);
 281              		.loc 1 194 19
 282 0054 174A     		ldr	r2, .L3+60
 283 0056 0021     		movs	r1, #0
 284 0058 1748     		ldr	r0, .L3+64
 285 005a FFF7FEFF 		bl	osThreadNew
 286 005e 0346     		mov	r3, r0
 287              		.loc 1 194 17 discriminator 1
 288 0060 164A     		ldr	r2, .L3+68
 289 0062 1360     		str	r3, [r2]
 195:Core/Src/freertos.c **** 
 196:Core/Src/freertos.c ****   /* creation of Log_and_debug */
 197:Core/Src/freertos.c ****   Log_and_debugHandle = osThreadNew(Log_and_debug_Task, NULL, &Log_and_debug_attributes);
 290              		.loc 1 197 25
 291 0064 164A     		ldr	r2, .L3+72
 292 0066 0021     		movs	r1, #0
 293 0068 1648     		ldr	r0, .L3+76
 294 006a FFF7FEFF 		bl	osThreadNew
 295 006e 0346     		mov	r3, r0
 296              		.loc 1 197 23 discriminator 1
 297 0070 154A     		ldr	r2, .L3+80
 298 0072 1360     		str	r3, [r2]
 198:Core/Src/freertos.c **** 
 199:Core/Src/freertos.c ****   /* USER CODE BEGIN RTOS_THREADS */
 200:Core/Src/freertos.c ****   /* add threads, ... */
 201:Core/Src/freertos.c ****   /* USER CODE END RTOS_THREADS */
 202:Core/Src/freertos.c **** 
 203:Core/Src/freertos.c ****   /* USER CODE BEGIN RTOS_EVENTS */
 204:Core/Src/freertos.c ****   /* add events, ... */
 205:Core/Src/freertos.c ****   /* USER CODE END RTOS_EVENTS */
 206:Core/Src/freertos.c **** }
 299              		.loc 1 206 1
ARM GAS  C:\Users\23671\AppData\Local\Temp\ccU6TVHa.s 			page 10


 300 0074 00BF     		nop
 301 0076 80BD     		pop	{r7, pc}
 302              	.L4:
 303              		.align	2
 304              	.L3:
 305 0078 00000000 		.word	Remote_control_attributes
 306 007c 00000000 		.word	Remote_control_Task
 307 0080 00000000 		.word	Remote_controlHandle
 308 0084 00000000 		.word	Gimbal_attributes
 309 0088 00000000 		.word	Gimbal_Task
 310 008c 00000000 		.word	GimbalHandle
 311 0090 00000000 		.word	Chassis_attributes
 312 0094 00000000 		.word	Chassis_Task
 313 0098 00000000 		.word	ChassisHandle
 314 009c 00000000 		.word	Motor_control_attributes
 315 00a0 00000000 		.word	Motor_control_Task
 316 00a4 00000000 		.word	Motor_controlHandle
 317 00a8 00000000 		.word	Shoot_attributes
 318 00ac 00000000 		.word	Shoot_Task
 319 00b0 00000000 		.word	ShootHandle
 320 00b4 00000000 		.word	Referee_attributes
 321 00b8 00000000 		.word	Referee_Task
 322 00bc 00000000 		.word	RefereeHandle
 323 00c0 00000000 		.word	Log_and_debug_attributes
 324 00c4 00000000 		.word	Log_and_debug_Task
 325 00c8 00000000 		.word	Log_and_debugHandle
 326              		.cfi_endproc
 327              	.LFE152:
 329              		.section	.text.Remote_control_Task,"ax",%progbits
 330              		.align	1
 331              		.global	Remote_control_Task
 332              		.syntax unified
 333              		.thumb
 334              		.thumb_func
 336              	Remote_control_Task:
 337              	.LFB153:
 207:Core/Src/freertos.c **** 
 208:Core/Src/freertos.c **** /* USER CODE BEGIN Header_Remote_control_Task */
 209:Core/Src/freertos.c **** /**
 210:Core/Src/freertos.c ****  * @brief  Function implementing the Remote_control thread.
 211:Core/Src/freertos.c ****  * @param  argument: Not used
 212:Core/Src/freertos.c ****  * @retval None
 213:Core/Src/freertos.c ****  */
 214:Core/Src/freertos.c **** /* USER CODE END Header_Remote_control_Task */
 215:Core/Src/freertos.c **** void Remote_control_Task(void *argument)
 216:Core/Src/freertos.c **** {
 338              		.loc 1 216 1
 339              		.cfi_startproc
 340              		@ args = 0, pretend = 0, frame = 8
 341              		@ frame_needed = 1, uses_anonymous_args = 0
 342 0000 80B5     		push	{r7, lr}
 343              	.LCFI6:
 344              		.cfi_def_cfa_offset 8
 345              		.cfi_offset 7, -8
 346              		.cfi_offset 14, -4
 347 0002 82B0     		sub	sp, sp, #8
 348              	.LCFI7:
ARM GAS  C:\Users\23671\AppData\Local\Temp\ccU6TVHa.s 			page 11


 349              		.cfi_def_cfa_offset 16
 350 0004 00AF     		add	r7, sp, #0
 351              	.LCFI8:
 352              		.cfi_def_cfa_register 7
 353 0006 7860     		str	r0, [r7, #4]
 217:Core/Src/freertos.c ****   /* init code for USB_DEVICE */
 218:Core/Src/freertos.c ****   MX_USB_DEVICE_Init();
 354              		.loc 1 218 3
 355 0008 FFF7FEFF 		bl	MX_USB_DEVICE_Init
 356              	.L6:
 219:Core/Src/freertos.c ****   /* USER CODE BEGIN Remote_control_Task */
 220:Core/Src/freertos.c ****   /* Infinite loop */
 221:Core/Src/freertos.c ****   for (;;)
 222:Core/Src/freertos.c ****   {
 223:Core/Src/freertos.c ****     DT7toRCdata();
 357              		.loc 1 223 5
 358 000c FFF7FEFF 		bl	DT7toRCdata
 224:Core/Src/freertos.c ****     RC_control();
 359              		.loc 1 224 5
 360 0010 FFF7FEFF 		bl	RC_control
 225:Core/Src/freertos.c ****     Keyboard_mouse_control();
 361              		.loc 1 225 5
 362 0014 FFF7FEFF 		bl	Keyboard_mouse_control
 226:Core/Src/freertos.c ****     osDelay(1);
 363              		.loc 1 226 5 discriminator 1
 364 0018 0120     		movs	r0, #1
 365 001a FFF7FEFF 		bl	osDelay
 223:Core/Src/freertos.c ****     RC_control();
 366              		.loc 1 223 5
 367 001e 00BF     		nop
 368 0020 F4E7     		b	.L6
 369              		.cfi_endproc
 370              	.LFE153:
 372              		.section	.text.Gimbal_Task,"ax",%progbits
 373              		.align	1
 374              		.global	Gimbal_Task
 375              		.syntax unified
 376              		.thumb
 377              		.thumb_func
 379              	Gimbal_Task:
 380              	.LFB154:
 227:Core/Src/freertos.c ****   }
 228:Core/Src/freertos.c ****   /* USER CODE END Remote_control_Task */
 229:Core/Src/freertos.c **** }
 230:Core/Src/freertos.c **** 
 231:Core/Src/freertos.c **** /* USER CODE BEGIN Header_Gimbal_Task */
 232:Core/Src/freertos.c **** /**
 233:Core/Src/freertos.c ****  * @brief Function implementing the Gimbal thread.
 234:Core/Src/freertos.c ****  * @param argument: Not used
 235:Core/Src/freertos.c ****  * @retval None
 236:Core/Src/freertos.c ****  */
 237:Core/Src/freertos.c **** /* USER CODE END Header_Gimbal_Task */
 238:Core/Src/freertos.c **** void Gimbal_Task(void *argument)
 239:Core/Src/freertos.c **** {
 381              		.loc 1 239 1
 382              		.cfi_startproc
 383              		@ args = 0, pretend = 0, frame = 8
ARM GAS  C:\Users\23671\AppData\Local\Temp\ccU6TVHa.s 			page 12


 384              		@ frame_needed = 1, uses_anonymous_args = 0
 385 0000 80B5     		push	{r7, lr}
 386              	.LCFI9:
 387              		.cfi_def_cfa_offset 8
 388              		.cfi_offset 7, -8
 389              		.cfi_offset 14, -4
 390 0002 82B0     		sub	sp, sp, #8
 391              	.LCFI10:
 392              		.cfi_def_cfa_offset 16
 393 0004 00AF     		add	r7, sp, #0
 394              	.LCFI11:
 395              		.cfi_def_cfa_register 7
 396 0006 7860     		str	r0, [r7, #4]
 397              	.L8:
 240:Core/Src/freertos.c ****   /* USER CODE BEGIN Gimbal_Task */
 241:Core/Src/freertos.c ****   /* Infinite loop */
 242:Core/Src/freertos.c ****   for (;;)
 243:Core/Src/freertos.c ****   {
 244:Core/Src/freertos.c ****     Gimbal_control();
 398              		.loc 1 244 5
 399 0008 FFF7FEFF 		bl	Gimbal_control
 245:Core/Src/freertos.c ****     osDelay(1);
 400              		.loc 1 245 5 discriminator 1
 401 000c 0120     		movs	r0, #1
 402 000e FFF7FEFF 		bl	osDelay
 244:Core/Src/freertos.c ****     osDelay(1);
 403              		.loc 1 244 5
 404 0012 00BF     		nop
 405 0014 F8E7     		b	.L8
 406              		.cfi_endproc
 407              	.LFE154:
 409              		.section	.text.Chassis_Task,"ax",%progbits
 410              		.align	1
 411              		.global	Chassis_Task
 412              		.syntax unified
 413              		.thumb
 414              		.thumb_func
 416              	Chassis_Task:
 417              	.LFB155:
 246:Core/Src/freertos.c ****   }
 247:Core/Src/freertos.c ****   /* USER CODE END Gimbal_Task */
 248:Core/Src/freertos.c **** }
 249:Core/Src/freertos.c **** 
 250:Core/Src/freertos.c **** /* USER CODE BEGIN Header_Chassis_Task */
 251:Core/Src/freertos.c **** /**
 252:Core/Src/freertos.c ****  * @brief Function implementing the Chassis thread.
 253:Core/Src/freertos.c ****  * @param argument: Not used
 254:Core/Src/freertos.c ****  * @retval None
 255:Core/Src/freertos.c ****  */
 256:Core/Src/freertos.c **** /* USER CODE END Header_Chassis_Task */
 257:Core/Src/freertos.c **** void Chassis_Task(void *argument)
 258:Core/Src/freertos.c **** {
 418              		.loc 1 258 1
 419              		.cfi_startproc
 420              		@ args = 0, pretend = 0, frame = 8
 421              		@ frame_needed = 1, uses_anonymous_args = 0
 422 0000 80B5     		push	{r7, lr}
ARM GAS  C:\Users\23671\AppData\Local\Temp\ccU6TVHa.s 			page 13


 423              	.LCFI12:
 424              		.cfi_def_cfa_offset 8
 425              		.cfi_offset 7, -8
 426              		.cfi_offset 14, -4
 427 0002 82B0     		sub	sp, sp, #8
 428              	.LCFI13:
 429              		.cfi_def_cfa_offset 16
 430 0004 00AF     		add	r7, sp, #0
 431              	.LCFI14:
 432              		.cfi_def_cfa_register 7
 433 0006 7860     		str	r0, [r7, #4]
 434              	.L10:
 259:Core/Src/freertos.c ****   /* USER CODE BEGIN Chassis_Task */
 260:Core/Src/freertos.c ****   /* Infinite loop */
 261:Core/Src/freertos.c ****   for (;;)
 262:Core/Src/freertos.c ****   {
 263:Core/Src/freertos.c ****     Chassis_move();
 435              		.loc 1 263 5
 436 0008 FFF7FEFF 		bl	Chassis_move
 264:Core/Src/freertos.c ****     Supercup_send_data();
 437              		.loc 1 264 5
 438 000c FFF7FEFF 		bl	Supercup_send_data
 265:Core/Src/freertos.c ****     osDelay(1);
 439              		.loc 1 265 5 discriminator 1
 440 0010 0120     		movs	r0, #1
 441 0012 FFF7FEFF 		bl	osDelay
 263:Core/Src/freertos.c ****     Supercup_send_data();
 442              		.loc 1 263 5
 443 0016 00BF     		nop
 444 0018 F6E7     		b	.L10
 445              		.cfi_endproc
 446              	.LFE155:
 448              		.section	.text.Motor_control_Task,"ax",%progbits
 449              		.align	1
 450              		.global	Motor_control_Task
 451              		.syntax unified
 452              		.thumb
 453              		.thumb_func
 455              	Motor_control_Task:
 456              	.LFB156:
 266:Core/Src/freertos.c ****   }
 267:Core/Src/freertos.c ****   /* USER CODE END Chassis_Task */
 268:Core/Src/freertos.c **** }
 269:Core/Src/freertos.c **** 
 270:Core/Src/freertos.c **** /* USER CODE BEGIN Header_Motor_control_Task */
 271:Core/Src/freertos.c **** /**
 272:Core/Src/freertos.c ****  * @brief Function implementing the Motor_control thread.
 273:Core/Src/freertos.c ****  * @param argument: Not used
 274:Core/Src/freertos.c ****  * @retval None
 275:Core/Src/freertos.c ****  */
 276:Core/Src/freertos.c **** /* USER CODE END Header_Motor_control_Task */
 277:Core/Src/freertos.c **** void Motor_control_Task(void *argument)
 278:Core/Src/freertos.c **** {
 457              		.loc 1 278 1
 458              		.cfi_startproc
 459              		@ args = 0, pretend = 0, frame = 8
 460              		@ frame_needed = 1, uses_anonymous_args = 0
ARM GAS  C:\Users\23671\AppData\Local\Temp\ccU6TVHa.s 			page 14


 461 0000 80B5     		push	{r7, lr}
 462              	.LCFI15:
 463              		.cfi_def_cfa_offset 8
 464              		.cfi_offset 7, -8
 465              		.cfi_offset 14, -4
 466 0002 82B0     		sub	sp, sp, #8
 467              	.LCFI16:
 468              		.cfi_def_cfa_offset 16
 469 0004 00AF     		add	r7, sp, #0
 470              	.LCFI17:
 471              		.cfi_def_cfa_register 7
 472 0006 7860     		str	r0, [r7, #4]
 473              	.L14:
 279:Core/Src/freertos.c ****   /* USER CODE BEGIN Motor_control_Task */
 280:Core/Src/freertos.c ****   /* Infinite loop */
 281:Core/Src/freertos.c ****   for (;;)
 282:Core/Src/freertos.c ****   {
 283:Core/Src/freertos.c ****     if (Global.Control.mode != LOCK)
 474              		.loc 1 283 23
 475 0008 084B     		ldr	r3, .L15
 476 000a 93F83930 		ldrb	r3, [r3, #57]	@ zero_extendqisi2
 477              		.loc 1 283 8
 478 000e 022B     		cmp	r3, #2
 479 0010 01D0     		beq	.L12
 284:Core/Src/freertos.c ****       DJIMotor_send_current();
 480              		.loc 1 284 7
 481 0012 FFF7FEFF 		bl	DJIMotor_send_current
 482              	.L12:
 285:Core/Src/freertos.c ****     if (Global.Chssis.input.reset != 1)
 483              		.loc 1 285 28
 484 0016 054B     		ldr	r3, .L15
 485 0018 1B7C     		ldrb	r3, [r3, #16]	@ zero_extendqisi2
 486              		.loc 1 285 8
 487 001a 012B     		cmp	r3, #1
 488 001c 02D0     		beq	.L13
 286:Core/Src/freertos.c ****       HAL_IWDG_Refresh(&hiwdg1);
 489              		.loc 1 286 7
 490 001e 0448     		ldr	r0, .L15+4
 491 0020 FFF7FEFF 		bl	HAL_IWDG_Refresh
 492              	.L13:
 287:Core/Src/freertos.c ****     // fdcanx_send_data(&hfdcan1,0x200,can_data,8);
 288:Core/Src/freertos.c ****     osDelay(1);
 493              		.loc 1 288 5
 494 0024 0120     		movs	r0, #1
 495 0026 FFF7FEFF 		bl	osDelay
 283:Core/Src/freertos.c ****       DJIMotor_send_current();
 496              		.loc 1 283 8
 497 002a EDE7     		b	.L14
 498              	.L16:
 499              		.align	2
 500              	.L15:
 501 002c 00000000 		.word	Global
 502 0030 00000000 		.word	hiwdg1
 503              		.cfi_endproc
 504              	.LFE156:
 506              		.section	.text.Shoot_Task,"ax",%progbits
 507              		.align	1
ARM GAS  C:\Users\23671\AppData\Local\Temp\ccU6TVHa.s 			page 15


 508              		.global	Shoot_Task
 509              		.syntax unified
 510              		.thumb
 511              		.thumb_func
 513              	Shoot_Task:
 514              	.LFB157:
 289:Core/Src/freertos.c ****   }
 290:Core/Src/freertos.c ****   /* USER CODE END Motor_control_Task */
 291:Core/Src/freertos.c **** }
 292:Core/Src/freertos.c **** 
 293:Core/Src/freertos.c **** /* USER CODE BEGIN Header_Shoot_Task */
 294:Core/Src/freertos.c **** /**
 295:Core/Src/freertos.c ****  * @brief Function implementing the Shoot thread.
 296:Core/Src/freertos.c ****  * @param argument: Not used
 297:Core/Src/freertos.c ****  * @retval None
 298:Core/Src/freertos.c ****  */
 299:Core/Src/freertos.c **** /* USER CODE END Header_Shoot_Task */
 300:Core/Src/freertos.c **** void Shoot_Task(void *argument)
 301:Core/Src/freertos.c **** {
 515              		.loc 1 301 1
 516              		.cfi_startproc
 517              		@ args = 0, pretend = 0, frame = 8
 518              		@ frame_needed = 1, uses_anonymous_args = 0
 519 0000 80B5     		push	{r7, lr}
 520              	.LCFI18:
 521              		.cfi_def_cfa_offset 8
 522              		.cfi_offset 7, -8
 523              		.cfi_offset 14, -4
 524 0002 82B0     		sub	sp, sp, #8
 525              	.LCFI19:
 526              		.cfi_def_cfa_offset 16
 527 0004 00AF     		add	r7, sp, #0
 528              	.LCFI20:
 529              		.cfi_def_cfa_register 7
 530 0006 7860     		str	r0, [r7, #4]
 531              	.L19:
 302:Core/Src/freertos.c ****   /* USER CODE BEGIN Shoot_Task */
 303:Core/Src/freertos.c ****   /* Infinite loop */
 304:Core/Src/freertos.c ****   for (;;)
 305:Core/Src/freertos.c ****   {
 306:Core/Src/freertos.c ****     if (Global.Auto.mode != NONE && Global.Auto.input.Auto_control_online > 0)
 532              		.loc 1 306 20
 533 0008 084B     		ldr	r3, .L20
 534 000a 93F82430 		ldrb	r3, [r3, #36]	@ zero_extendqisi2
 535              		.loc 1 306 8
 536 000e 002B     		cmp	r3, #0
 537 0010 05D0     		beq	.L18
 538              		.loc 1 306 54 discriminator 1
 539 0012 064B     		ldr	r3, .L20
 540 0014 1B6B     		ldr	r3, [r3, #48]
 541              		.loc 1 306 34 discriminator 1
 542 0016 002B     		cmp	r3, #0
 543 0018 01DD     		ble	.L18
 307:Core/Src/freertos.c ****       Auto_control();
 544              		.loc 1 307 7
 545 001a FFF7FEFF 		bl	Auto_control
 546              	.L18:
ARM GAS  C:\Users\23671\AppData\Local\Temp\ccU6TVHa.s 			page 16


 308:Core/Src/freertos.c ****     Shoot_task();
 547              		.loc 1 308 5
 548 001e FFF7FEFF 		bl	Shoot_task
 309:Core/Src/freertos.c ****     osDelay(1);
 549              		.loc 1 309 5
 550 0022 0120     		movs	r0, #1
 551 0024 FFF7FEFF 		bl	osDelay
 306:Core/Src/freertos.c ****       Auto_control();
 552              		.loc 1 306 8
 553 0028 EEE7     		b	.L19
 554              	.L21:
 555 002a 00BF     		.align	2
 556              	.L20:
 557 002c 00000000 		.word	Global
 558              		.cfi_endproc
 559              	.LFE157:
 561              		.section	.text.Referee_Task,"ax",%progbits
 562              		.align	1
 563              		.global	Referee_Task
 564              		.syntax unified
 565              		.thumb
 566              		.thumb_func
 568              	Referee_Task:
 569              	.LFB158:
 310:Core/Src/freertos.c ****   }
 311:Core/Src/freertos.c ****   /* USER CODE END Shoot_Task */
 312:Core/Src/freertos.c **** }
 313:Core/Src/freertos.c **** 
 314:Core/Src/freertos.c **** /* USER CODE BEGIN Header_Referee_Task */
 315:Core/Src/freertos.c **** /**
 316:Core/Src/freertos.c ****  * @brief Function implementing the Referee thread.
 317:Core/Src/freertos.c ****  * @param argument: Not used
 318:Core/Src/freertos.c ****  * @retval None
 319:Core/Src/freertos.c ****  */
 320:Core/Src/freertos.c **** /* USER CODE END Header_Referee_Task */
 321:Core/Src/freertos.c **** void Referee_Task(void *argument)
 322:Core/Src/freertos.c **** {
 570              		.loc 1 322 1
 571              		.cfi_startproc
 572              		@ args = 0, pretend = 0, frame = 8
 573              		@ frame_needed = 1, uses_anonymous_args = 0
 574 0000 80B5     		push	{r7, lr}
 575              	.LCFI21:
 576              		.cfi_def_cfa_offset 8
 577              		.cfi_offset 7, -8
 578              		.cfi_offset 14, -4
 579 0002 82B0     		sub	sp, sp, #8
 580              	.LCFI22:
 581              		.cfi_def_cfa_offset 16
 582 0004 00AF     		add	r7, sp, #0
 583              	.LCFI23:
 584              		.cfi_def_cfa_register 7
 585 0006 7860     		str	r0, [r7, #4]
 323:Core/Src/freertos.c ****   /* USER CODE BEGIN Referee_Task */
 324:Core/Src/freertos.c ****   ui_init();
 586              		.loc 1 324 3
 587 0008 FFF7FEFF 		bl	ui_init
ARM GAS  C:\Users\23671\AppData\Local\Temp\ccU6TVHa.s 			page 17


 588              	.L23:
 325:Core/Src/freertos.c ****   /* Infinite loop */
 326:Core/Src/freertos.c ****   for (;;)
 327:Core/Src/freertos.c ****   {
 328:Core/Src/freertos.c ****     Referee_unpack_fifo_data(&referee_fifo, &referee_unpack_obj);
 589              		.loc 1 328 5
 590 000c 0D49     		ldr	r1, .L24
 591 000e 0E48     		ldr	r0, .L24+4
 592 0010 FFF7FEFF 		bl	Referee_unpack_fifo_data
 329:Core/Src/freertos.c ****     ui_self_id = Referee_data.robot_id;
 593              		.loc 1 329 30
 594 0014 0D4B     		ldr	r3, .L24+8
 595 0016 1B79     		ldrb	r3, [r3, #4]	@ zero_extendqisi2
 596 0018 1A46     		mov	r2, r3
 597              		.loc 1 329 16
 598 001a 0D4B     		ldr	r3, .L24+12
 599 001c 1A60     		str	r2, [r3]
 330:Core/Src/freertos.c ****     Supercapui_change(cap.remain_vol);
 600              		.loc 1 330 5
 601 001e 0D4B     		ldr	r3, .L24+16
 602 0020 D3F80530 		ldr	r3, [r3, #5]	@ unaligned
 603 0024 00EE103A 		vmov	s0, r3
 604 0028 FFF7FEFF 		bl	Supercapui_change
 331:Core/Src/freertos.c ****     Shootui_change();
 605              		.loc 1 331 5
 606 002c FFF7FEFF 		bl	Shootui_change
 332:Core/Src/freertos.c ****     Autoui_change();
 607              		.loc 1 332 5
 608 0030 FFF7FEFF 		bl	Autoui_change
 333:Core/Src/freertos.c ****     ui_updata();
 609              		.loc 1 333 5
 610 0034 FFF7FEFF 		bl	ui_updata
 334:Core/Src/freertos.c ****     osDelay(1);
 611              		.loc 1 334 5 discriminator 1
 612 0038 0120     		movs	r0, #1
 613 003a FFF7FEFF 		bl	osDelay
 328:Core/Src/freertos.c ****     ui_self_id = Referee_data.robot_id;
 614              		.loc 1 328 5
 615 003e 00BF     		nop
 616 0040 E4E7     		b	.L23
 617              	.L25:
 618 0042 00BF     		.align	2
 619              	.L24:
 620 0044 00000000 		.word	referee_unpack_obj
 621 0048 00000000 		.word	referee_fifo
 622 004c 00000000 		.word	Referee_data
 623 0050 00000000 		.word	ui_self_id
 624 0054 00000000 		.word	cap
 625              		.cfi_endproc
 626              	.LFE158:
 628              		.section	.rodata
 629 004e 0000     		.align	2
 630              	.LC7:
 631 0050 68656C6C 		.ascii	"hello\000"
 631      6F00
 632              		.section	.text.Log_and_debug_Task,"ax",%progbits
 633              		.align	1
ARM GAS  C:\Users\23671\AppData\Local\Temp\ccU6TVHa.s 			page 18


 634              		.global	Log_and_debug_Task
 635              		.syntax unified
 636              		.thumb
 637              		.thumb_func
 639              	Log_and_debug_Task:
 640              	.LFB159:
 335:Core/Src/freertos.c ****   }
 336:Core/Src/freertos.c ****   /* USER CODE END Referee_Task */
 337:Core/Src/freertos.c **** }
 338:Core/Src/freertos.c **** 
 339:Core/Src/freertos.c **** /* USER CODE BEGIN Header_Log_and_debug_Task */
 340:Core/Src/freertos.c **** /**
 341:Core/Src/freertos.c ****  * @brief Function implementing the Log_and_debug thread.
 342:Core/Src/freertos.c ****  * @param argument: Not used
 343:Core/Src/freertos.c ****  * @retval None
 344:Core/Src/freertos.c ****  */
 345:Core/Src/freertos.c **** /* USER CODE END Header_Log_and_debug_Task */
 346:Core/Src/freertos.c **** void Log_and_debug_Task(void *argument)
 347:Core/Src/freertos.c **** {
 641              		.loc 1 347 1
 642              		.cfi_startproc
 643              		@ args = 0, pretend = 0, frame = 8
 644              		@ frame_needed = 1, uses_anonymous_args = 0
 645 0000 80B5     		push	{r7, lr}
 646              	.LCFI24:
 647              		.cfi_def_cfa_offset 8
 648              		.cfi_offset 7, -8
 649              		.cfi_offset 14, -4
 650 0002 82B0     		sub	sp, sp, #8
 651              	.LCFI25:
 652              		.cfi_def_cfa_offset 16
 653 0004 00AF     		add	r7, sp, #0
 654              	.LCFI26:
 655              		.cfi_def_cfa_register 7
 656 0006 7860     		str	r0, [r7, #4]
 348:Core/Src/freertos.c ****   /* USER CODE BEGIN Log_and_debug_Task */
 349:Core/Src/freertos.c ****   LEDshowcolor(RED);
 657              		.loc 1 349 3
 658 0008 4FF47F00 		mov	r0, #16711680
 659 000c FFF7FEFF 		bl	LEDshowcolor
 350:Core/Src/freertos.c ****   osDelay(500);
 660              		.loc 1 350 3
 661 0010 4FF4FA70 		mov	r0, #500
 662 0014 FFF7FEFF 		bl	osDelay
 351:Core/Src/freertos.c ****   LEDshowcolor(BLUE);
 663              		.loc 1 351 3
 664 0018 FF20     		movs	r0, #255
 665 001a FFF7FEFF 		bl	LEDshowcolor
 352:Core/Src/freertos.c ****   osDelay(500);
 666              		.loc 1 352 3
 667 001e 4FF4FA70 		mov	r0, #500
 668 0022 FFF7FEFF 		bl	osDelay
 353:Core/Src/freertos.c ****   LEDshowcolor(GREEN);
 669              		.loc 1 353 3
 670 0026 4FF47F40 		mov	r0, #65280
 671 002a FFF7FEFF 		bl	LEDshowcolor
 672              	.L27:
ARM GAS  C:\Users\23671\AppData\Local\Temp\ccU6TVHa.s 			page 19


 354:Core/Src/freertos.c **** 
 355:Core/Src/freertos.c ****   /* Infinite loop */
 356:Core/Src/freertos.c ****   for (;;)
 357:Core/Src/freertos.c ****   {
 358:Core/Src/freertos.c ****     // Music_play(melody);
 359:Core/Src/freertos.c ****     printf("hello\n");
 673              		.loc 1 359 5
 674 002e 0F48     		ldr	r0, .L28
 675 0030 FFF7FEFF 		bl	puts
 360:Core/Src/freertos.c ****     osDelay(500);
 676              		.loc 1 360 5
 677 0034 4FF4FA70 		mov	r0, #500
 678 0038 FFF7FEFF 		bl	osDelay
 361:Core/Src/freertos.c ****     LEDshowcolor(RED);
 679              		.loc 1 361 5
 680 003c 4FF47F00 		mov	r0, #16711680
 681 0040 FFF7FEFF 		bl	LEDshowcolor
 362:Core/Src/freertos.c ****     osDelay(500);
 682              		.loc 1 362 5
 683 0044 4FF4FA70 		mov	r0, #500
 684 0048 FFF7FEFF 		bl	osDelay
 363:Core/Src/freertos.c ****     LEDshowcolor(BLUE);
 685              		.loc 1 363 5
 686 004c FF20     		movs	r0, #255
 687 004e FFF7FEFF 		bl	LEDshowcolor
 364:Core/Src/freertos.c ****     osDelay(500);
 688              		.loc 1 364 5
 689 0052 4FF4FA70 		mov	r0, #500
 690 0056 FFF7FEFF 		bl	osDelay
 365:Core/Src/freertos.c ****     LEDshowcolor(GREEN);
 691              		.loc 1 365 5
 692 005a 4FF47F40 		mov	r0, #65280
 693 005e FFF7FEFF 		bl	LEDshowcolor
 366:Core/Src/freertos.c **** 
 367:Core/Src/freertos.c ****     osDelay(1);
 694              		.loc 1 367 5 discriminator 1
 695 0062 0120     		movs	r0, #1
 696 0064 FFF7FEFF 		bl	osDelay
 359:Core/Src/freertos.c ****     osDelay(500);
 697              		.loc 1 359 5
 698 0068 00BF     		nop
 699 006a E0E7     		b	.L27
 700              	.L29:
 701              		.align	2
 702              	.L28:
 703 006c 50000000 		.word	.LC7
 704              		.cfi_endproc
 705              	.LFE159:
 707              		.text
 708              	.Letext0:
 709              		.file 2 "D:/MSYS2/mingw64/arm-none-eabi/include/machine/_default_types.h"
 710              		.file 3 "D:/MSYS2/mingw64/arm-none-eabi/include/sys/_stdint.h"
 711              		.file 4 "Drivers/CMSIS/Device/ST/STM32H7xx/Include/stm32h723xx.h"
 712              		.file 5 "Drivers/STM32H7xx_HAL_Driver/Inc/stm32h7xx_hal_def.h"
 713              		.file 6 "Drivers/STM32H7xx_HAL_Driver/Inc/stm32h7xx_hal_iwdg.h"
 714              		.file 7 "Middlewares/Third_Party/FreeRTOS/Source/CMSIS_RTOS_V2/cmsis_os2.h"
 715              		.file 8 "User/Software/Global_status.h"
ARM GAS  C:\Users\23671\AppData\Local\Temp\ccU6TVHa.s 			page 20


 716              		.file 9 "Drivers/UI/ui_interface.h"
 717              		.file 10 "User/Hardware/referee_system_protocol.h"
 718              		.file 11 "Algorithm/fifo.h"
 719              		.file 12 "User/Hardware/referee_system.h"
 720              		.file 13 "User/Hardware/supercup.h"
 721              		.file 14 "User/Hardware/LED.h"
 722              		.file 15 "Core/Inc/iwdg.h"
 723              		.file 16 "User/Software/ui.h"
 724              		.file 17 "User/Software/shoot.h"
 725              		.file 18 "User/Software/Auto_control.h"
 726              		.file 19 "User/Hardware/motor.h"
 727              		.file 20 "User/Software/Chassis.h"
 728              		.file 21 "User/Software/Gimbal.h"
 729              		.file 22 "User/Software/remote_control.h"
ARM GAS  C:\Users\23671\AppData\Local\Temp\ccU6TVHa.s 			page 21


DEFINED SYMBOLS
                            *ABS*:00000000 freertos.c
C:\Users\23671\AppData\Local\Temp\ccU6TVHa.s:24     .bss.color:00000000 color
C:\Users\23671\AppData\Local\Temp\ccU6TVHa.s:21     .bss.color:00000000 $d
C:\Users\23671\AppData\Local\Temp\ccU6TVHa.s:31     .bss.Remote_controlHandle:00000000 Remote_controlHandle
C:\Users\23671\AppData\Local\Temp\ccU6TVHa.s:28     .bss.Remote_controlHandle:00000000 $d
C:\Users\23671\AppData\Local\Temp\ccU6TVHa.s:42     .rodata.Remote_control_attributes:00000000 Remote_control_attributes
C:\Users\23671\AppData\Local\Temp\ccU6TVHa.s:35     .rodata:00000000 $d
C:\Users\23671\AppData\Local\Temp\ccU6TVHa.s:39     .rodata.Remote_control_attributes:00000000 $d
C:\Users\23671\AppData\Local\Temp\ccU6TVHa.s:53     .bss.GimbalHandle:00000000 GimbalHandle
C:\Users\23671\AppData\Local\Temp\ccU6TVHa.s:50     .bss.GimbalHandle:00000000 $d
C:\Users\23671\AppData\Local\Temp\ccU6TVHa.s:64     .rodata.Gimbal_attributes:00000000 Gimbal_attributes
C:\Users\23671\AppData\Local\Temp\ccU6TVHa.s:61     .rodata.Gimbal_attributes:00000000 $d
C:\Users\23671\AppData\Local\Temp\ccU6TVHa.s:75     .bss.ChassisHandle:00000000 ChassisHandle
C:\Users\23671\AppData\Local\Temp\ccU6TVHa.s:72     .bss.ChassisHandle:00000000 $d
C:\Users\23671\AppData\Local\Temp\ccU6TVHa.s:86     .rodata.Chassis_attributes:00000000 Chassis_attributes
C:\Users\23671\AppData\Local\Temp\ccU6TVHa.s:83     .rodata.Chassis_attributes:00000000 $d
C:\Users\23671\AppData\Local\Temp\ccU6TVHa.s:97     .bss.Motor_controlHandle:00000000 Motor_controlHandle
C:\Users\23671\AppData\Local\Temp\ccU6TVHa.s:94     .bss.Motor_controlHandle:00000000 $d
C:\Users\23671\AppData\Local\Temp\ccU6TVHa.s:108    .rodata.Motor_control_attributes:00000000 Motor_control_attributes
C:\Users\23671\AppData\Local\Temp\ccU6TVHa.s:105    .rodata.Motor_control_attributes:00000000 $d
C:\Users\23671\AppData\Local\Temp\ccU6TVHa.s:119    .bss.ShootHandle:00000000 ShootHandle
C:\Users\23671\AppData\Local\Temp\ccU6TVHa.s:116    .bss.ShootHandle:00000000 $d
C:\Users\23671\AppData\Local\Temp\ccU6TVHa.s:130    .rodata.Shoot_attributes:00000000 Shoot_attributes
C:\Users\23671\AppData\Local\Temp\ccU6TVHa.s:127    .rodata.Shoot_attributes:00000000 $d
C:\Users\23671\AppData\Local\Temp\ccU6TVHa.s:141    .bss.RefereeHandle:00000000 RefereeHandle
C:\Users\23671\AppData\Local\Temp\ccU6TVHa.s:138    .bss.RefereeHandle:00000000 $d
C:\Users\23671\AppData\Local\Temp\ccU6TVHa.s:152    .rodata.Referee_attributes:00000000 Referee_attributes
C:\Users\23671\AppData\Local\Temp\ccU6TVHa.s:149    .rodata.Referee_attributes:00000000 $d
C:\Users\23671\AppData\Local\Temp\ccU6TVHa.s:163    .bss.Log_and_debugHandle:00000000 Log_and_debugHandle
C:\Users\23671\AppData\Local\Temp\ccU6TVHa.s:160    .bss.Log_and_debugHandle:00000000 $d
C:\Users\23671\AppData\Local\Temp\ccU6TVHa.s:174    .rodata.Log_and_debug_attributes:00000000 Log_and_debug_attributes
C:\Users\23671\AppData\Local\Temp\ccU6TVHa.s:171    .rodata.Log_and_debug_attributes:00000000 $d
C:\Users\23671\AppData\Local\Temp\ccU6TVHa.s:181    .text.vApplicationIdleHook:00000000 $t
C:\Users\23671\AppData\Local\Temp\ccU6TVHa.s:187    .text.vApplicationIdleHook:00000000 vApplicationIdleHook
C:\Users\23671\AppData\Local\Temp\ccU6TVHa.s:216    .text.MX_FREERTOS_Init:00000000 $t
C:\Users\23671\AppData\Local\Temp\ccU6TVHa.s:222    .text.MX_FREERTOS_Init:00000000 MX_FREERTOS_Init
C:\Users\23671\AppData\Local\Temp\ccU6TVHa.s:305    .text.MX_FREERTOS_Init:00000078 $d
C:\Users\23671\AppData\Local\Temp\ccU6TVHa.s:336    .text.Remote_control_Task:00000000 Remote_control_Task
C:\Users\23671\AppData\Local\Temp\ccU6TVHa.s:379    .text.Gimbal_Task:00000000 Gimbal_Task
C:\Users\23671\AppData\Local\Temp\ccU6TVHa.s:416    .text.Chassis_Task:00000000 Chassis_Task
C:\Users\23671\AppData\Local\Temp\ccU6TVHa.s:455    .text.Motor_control_Task:00000000 Motor_control_Task
C:\Users\23671\AppData\Local\Temp\ccU6TVHa.s:513    .text.Shoot_Task:00000000 Shoot_Task
C:\Users\23671\AppData\Local\Temp\ccU6TVHa.s:568    .text.Referee_Task:00000000 Referee_Task
C:\Users\23671\AppData\Local\Temp\ccU6TVHa.s:639    .text.Log_and_debug_Task:00000000 Log_and_debug_Task
C:\Users\23671\AppData\Local\Temp\ccU6TVHa.s:330    .text.Remote_control_Task:00000000 $t
C:\Users\23671\AppData\Local\Temp\ccU6TVHa.s:373    .text.Gimbal_Task:00000000 $t
C:\Users\23671\AppData\Local\Temp\ccU6TVHa.s:410    .text.Chassis_Task:00000000 $t
C:\Users\23671\AppData\Local\Temp\ccU6TVHa.s:449    .text.Motor_control_Task:00000000 $t
C:\Users\23671\AppData\Local\Temp\ccU6TVHa.s:501    .text.Motor_control_Task:0000002c $d
C:\Users\23671\AppData\Local\Temp\ccU6TVHa.s:507    .text.Shoot_Task:00000000 $t
C:\Users\23671\AppData\Local\Temp\ccU6TVHa.s:557    .text.Shoot_Task:0000002c $d
C:\Users\23671\AppData\Local\Temp\ccU6TVHa.s:562    .text.Referee_Task:00000000 $t
C:\Users\23671\AppData\Local\Temp\ccU6TVHa.s:620    .text.Referee_Task:00000044 $d
C:\Users\23671\AppData\Local\Temp\ccU6TVHa.s:633    .text.Log_and_debug_Task:00000000 $t
C:\Users\23671\AppData\Local\Temp\ccU6TVHa.s:703    .text.Log_and_debug_Task:0000006c $d

ARM GAS  C:\Users\23671\AppData\Local\Temp\ccU6TVHa.s 			page 22


UNDEFINED SYMBOLS
osThreadNew
MX_USB_DEVICE_Init
DT7toRCdata
RC_control
Keyboard_mouse_control
osDelay
Gimbal_control
Chassis_move
Supercup_send_data
DJIMotor_send_current
HAL_IWDG_Refresh
Global
hiwdg1
Auto_control
Shoot_task
ui_init
Referee_unpack_fifo_data
Supercapui_change
Shootui_change
Autoui_change
ui_updata
referee_unpack_obj
referee_fifo
Referee_data
ui_self_id
cap
LEDshowcolor
puts
