ARM GAS  C:\Users\23671\AppData\Local\Temp\cc21Rggs.s 			page 1


   1              		.cpu cortex-m7
   2              		.arch armv7e-m
   3              		.fpu fpv5-d16
   4              		.eabi_attribute 28, 1
   5              		.eabi_attribute 20, 1
   6              		.eabi_attribute 21, 1
   7              		.eabi_attribute 23, 3
   8              		.eabi_attribute 24, 1
   9              		.eabi_attribute 25, 1
  10              		.eabi_attribute 26, 1
  11              		.eabi_attribute 30, 6
  12              		.eabi_attribute 34, 1
  13              		.eabi_attribute 18, 4
  14              		.file	"freertos.c"
  15              		.text
  16              	.Ltext0:
  17              		.cfi_sections	.debug_frame
  18              		.file 1 "Core/Src/freertos.c"
  19              		.global	color
  20              		.section	.bss.color,"aw",%nobits
  21              		.align	2
  24              	color:
  25 0000 00000000 		.space	4
  26              		.global	Remote_controlHandle
  27              		.section	.bss.Remote_controlHandle,"aw",%nobits
  28              		.align	2
  31              	Remote_controlHandle:
  32 0000 00000000 		.space	4
  33              		.global	Remote_control_attributes
  34              		.section	.rodata
  35              		.align	2
  36              	.LC0:
  37 0000 52656D6F 		.ascii	"Remote_control\000"
  37      74655F63 
  37      6F6E7472 
  37      6F6C00
  38              		.section	.rodata.Remote_control_attributes,"a"
  39              		.align	2
  42              	Remote_control_attributes:
  43 0000 00000000 		.word	.LC0
  44 0004 00000000 		.space	16
  44      00000000 
  44      00000000 
  44      00000000 
  45 0014 00080000 		.word	2048
  46 0018 18000000 		.word	24
  47 001c 00000000 		.space	8
  47      00000000 
  48              		.global	GimbalHandle
  49              		.section	.bss.GimbalHandle,"aw",%nobits
  50              		.align	2
  53              	GimbalHandle:
  54 0000 00000000 		.space	4
  55              		.global	Gimbal_attributes
  56              		.section	.rodata
  57 000f 00       		.align	2
  58              	.LC1:
ARM GAS  C:\Users\23671\AppData\Local\Temp\cc21Rggs.s 			page 2


  59 0010 47696D62 		.ascii	"Gimbal\000"
  59      616C00
  60              		.section	.rodata.Gimbal_attributes,"a"
  61              		.align	2
  64              	Gimbal_attributes:
  65 0000 10000000 		.word	.LC1
  66 0004 00000000 		.space	16
  66      00000000 
  66      00000000 
  66      00000000 
  67 0014 00080000 		.word	2048
  68 0018 08000000 		.word	8
  69 001c 00000000 		.space	8
  69      00000000 
  70              		.global	ChassisHandle
  71              		.section	.bss.ChassisHandle,"aw",%nobits
  72              		.align	2
  75              	ChassisHandle:
  76 0000 00000000 		.space	4
  77              		.global	Chassis_attributes
  78              		.section	.rodata
  79 0017 00       		.align	2
  80              	.LC2:
  81 0018 43686173 		.ascii	"Chassis\000"
  81      73697300 
  82              		.section	.rodata.Chassis_attributes,"a"
  83              		.align	2
  86              	Chassis_attributes:
  87 0000 18000000 		.word	.LC2
  88 0004 00000000 		.space	16
  88      00000000 
  88      00000000 
  88      00000000 
  89 0014 00080000 		.word	2048
  90 0018 08000000 		.word	8
  91 001c 00000000 		.space	8
  91      00000000 
  92              		.global	Motor_controlHandle
  93              		.section	.bss.Motor_controlHandle,"aw",%nobits
  94              		.align	2
  97              	Motor_controlHandle:
  98 0000 00000000 		.space	4
  99              		.global	Motor_control_attributes
 100              		.section	.rodata
 101              		.align	2
 102              	.LC3:
 103 0020 4D6F746F 		.ascii	"Motor_control\000"
 103      725F636F 
 103      6E74726F 
 103      6C00
 104              		.section	.rodata.Motor_control_attributes,"a"
 105              		.align	2
 108              	Motor_control_attributes:
 109 0000 20000000 		.word	.LC3
 110 0004 00000000 		.space	16
 110      00000000 
 110      00000000 
ARM GAS  C:\Users\23671\AppData\Local\Temp\cc21Rggs.s 			page 3


 110      00000000 
 111 0014 00040000 		.word	1024
 112 0018 08000000 		.word	8
 113 001c 00000000 		.space	8
 113      00000000 
 114              		.global	ShootHandle
 115              		.section	.bss.ShootHandle,"aw",%nobits
 116              		.align	2
 119              	ShootHandle:
 120 0000 00000000 		.space	4
 121              		.global	Shoot_attributes
 122              		.section	.rodata
 123 002e 0000     		.align	2
 124              	.LC4:
 125 0030 53686F6F 		.ascii	"Shoot\000"
 125      7400
 126              		.section	.rodata.Shoot_attributes,"a"
 127              		.align	2
 130              	Shoot_attributes:
 131 0000 30000000 		.word	.LC4
 132 0004 00000000 		.space	16
 132      00000000 
 132      00000000 
 132      00000000 
 133 0014 00040000 		.word	1024
 134 0018 08000000 		.word	8
 135 001c 00000000 		.space	8
 135      00000000 
 136              		.global	RefereeHandle
 137              		.section	.bss.RefereeHandle,"aw",%nobits
 138              		.align	2
 141              	RefereeHandle:
 142 0000 00000000 		.space	4
 143              		.global	Referee_attributes
 144              		.section	.rodata
 145 0036 0000     		.align	2
 146              	.LC5:
 147 0038 52656665 		.ascii	"Referee\000"
 147      72656500 
 148              		.section	.rodata.Referee_attributes,"a"
 149              		.align	2
 152              	Referee_attributes:
 153 0000 38000000 		.word	.LC5
 154 0004 00000000 		.space	16
 154      00000000 
 154      00000000 
 154      00000000 
 155 0014 00080000 		.word	2048
 156 0018 08000000 		.word	8
 157 001c 00000000 		.space	8
 157      00000000 
 158              		.global	Log_and_debugHandle
 159              		.section	.bss.Log_and_debugHandle,"aw",%nobits
 160              		.align	2
 163              	Log_and_debugHandle:
 164 0000 00000000 		.space	4
 165              		.global	Log_and_debug_attributes
ARM GAS  C:\Users\23671\AppData\Local\Temp\cc21Rggs.s 			page 4


 166              		.section	.rodata
 167              		.align	2
 168              	.LC6:
 169 0040 4C6F675F 		.ascii	"Log_and_debug\000"
 169      616E645F 
 169      64656275 
 169      6700
 170              		.section	.rodata.Log_and_debug_attributes,"a"
 171              		.align	2
 174              	Log_and_debug_attributes:
 175 0000 40000000 		.word	.LC6
 176 0004 00000000 		.space	16
 176      00000000 
 176      00000000 
 176      00000000 
 177 0014 00040000 		.word	1024
 178 0018 08000000 		.word	8
 179 001c 00000000 		.space	8
 179      00000000 
 180              		.section	.text.vApplicationIdleHook,"ax",%progbits
 181              		.align	1
 182              		.global	vApplicationIdleHook
 183              		.syntax unified
 184              		.thumb
 185              		.thumb_func
 187              	vApplicationIdleHook:
 188              	.LFB151:
   1:Core/Src/freertos.c **** /* USER CODE BEGIN Header */
   2:Core/Src/freertos.c **** /**
   3:Core/Src/freertos.c ****  ******************************************************************************
   4:Core/Src/freertos.c ****  * File Name          : freertos.c
   5:Core/Src/freertos.c ****  * Description        : Code for freertos applications
   6:Core/Src/freertos.c ****  ******************************************************************************
   7:Core/Src/freertos.c ****  * @attention
   8:Core/Src/freertos.c ****  *
   9:Core/Src/freertos.c ****  * Copyright (c) 2024 STMicroelectronics.
  10:Core/Src/freertos.c ****  * All rights reserved.
  11:Core/Src/freertos.c ****  *
  12:Core/Src/freertos.c ****  * This software is licensed under terms that can be found in the LICENSE file
  13:Core/Src/freertos.c ****  * in the root directory of this software component.
  14:Core/Src/freertos.c ****  * If no LICENSE file comes with this software, it is provided AS-IS.
  15:Core/Src/freertos.c ****  *
  16:Core/Src/freertos.c ****  ******************************************************************************
  17:Core/Src/freertos.c ****  */
  18:Core/Src/freertos.c **** /* USER CODE END Header */
  19:Core/Src/freertos.c **** 
  20:Core/Src/freertos.c **** /* Includes ------------------------------------------------------------------*/
  21:Core/Src/freertos.c **** #include "FreeRTOS.h"
  22:Core/Src/freertos.c **** #include "task.h"
  23:Core/Src/freertos.c **** #include "main.h"
  24:Core/Src/freertos.c **** #include "cmsis_os.h"
  25:Core/Src/freertos.c **** 
  26:Core/Src/freertos.c **** /* Private includes ----------------------------------------------------------*/
  27:Core/Src/freertos.c **** /* USER CODE BEGIN Includes */
  28:Core/Src/freertos.c **** #include "remote_control.h"
  29:Core/Src/freertos.c **** #include "Chassis.h"
  30:Core/Src/freertos.c **** #include "Gimbal.h"
ARM GAS  C:\Users\23671\AppData\Local\Temp\cc21Rggs.s 			page 5


  31:Core/Src/freertos.c **** #include "Global_status.h"
  32:Core/Src/freertos.c **** #include "Auto_control.h"
  33:Core/Src/freertos.c **** #include "shoot.h"
  34:Core/Src/freertos.c **** #include "ui.h"
  35:Core/Src/freertos.c **** #include "music.h"
  36:Core/Src/freertos.c **** 
  37:Core/Src/freertos.c **** #include "referee_system.h"
  38:Core/Src/freertos.c **** #include "motor.h"
  39:Core/Src/freertos.c **** #include "supercup.h"
  40:Core/Src/freertos.c **** #include "LED.h"
  41:Core/Src/freertos.c **** #include <cmsis_os2.h>
  42:Core/Src/freertos.c **** #include"dm_arm.h"
  43:Core/Src/freertos.c **** #include "iwdg.h"
  44:Core/Src/freertos.c **** #include "buzzer.h"
  45:Core/Src/freertos.c **** #include "WFLY_ET16_remote_control.h"
  46:Core/Src/freertos.c **** 
  47:Core/Src/freertos.c **** /* USER CODE END Includes */
  48:Core/Src/freertos.c **** 
  49:Core/Src/freertos.c **** /* Private typedef -----------------------------------------------------------*/
  50:Core/Src/freertos.c **** /* USER CODE BEGIN PTD */
  51:Core/Src/freertos.c **** 
  52:Core/Src/freertos.c **** /* USER CODE END PTD */
  53:Core/Src/freertos.c **** 
  54:Core/Src/freertos.c **** /* Private define ------------------------------------------------------------*/
  55:Core/Src/freertos.c **** /* USER CODE BEGIN PD */
  56:Core/Src/freertos.c **** 
  57:Core/Src/freertos.c **** /* USER CODE END PD */
  58:Core/Src/freertos.c **** 
  59:Core/Src/freertos.c **** /* Private macro -------------------------------------------------------------*/
  60:Core/Src/freertos.c **** /* USER CODE BEGIN PM */
  61:Core/Src/freertos.c **** 
  62:Core/Src/freertos.c **** /* USER CODE END PM */
  63:Core/Src/freertos.c **** 
  64:Core/Src/freertos.c **** /* Private variables ---------------------------------------------------------*/
  65:Core/Src/freertos.c **** /* USER CODE BEGIN Variables */
  66:Core/Src/freertos.c **** uint32_t color = 0;
  67:Core/Src/freertos.c **** /* USER CODE END Variables */
  68:Core/Src/freertos.c **** /* Definitions for Remote_control */
  69:Core/Src/freertos.c **** osThreadId_t Remote_controlHandle;
  70:Core/Src/freertos.c **** const osThreadAttr_t Remote_control_attributes = {
  71:Core/Src/freertos.c ****     .name = "Remote_control",
  72:Core/Src/freertos.c ****     .stack_size = 512 * 4,
  73:Core/Src/freertos.c ****     .priority = (osPriority_t)osPriorityNormal,
  74:Core/Src/freertos.c **** };
  75:Core/Src/freertos.c **** /* Definitions for Gimbal */
  76:Core/Src/freertos.c **** osThreadId_t GimbalHandle;
  77:Core/Src/freertos.c **** const osThreadAttr_t Gimbal_attributes = {
  78:Core/Src/freertos.c ****     .name = "Gimbal",
  79:Core/Src/freertos.c ****     .stack_size = 512 * 4,
  80:Core/Src/freertos.c ****     .priority = (osPriority_t)osPriorityLow,
  81:Core/Src/freertos.c **** };
  82:Core/Src/freertos.c **** /* Definitions for Chassis */
  83:Core/Src/freertos.c **** osThreadId_t ChassisHandle;
  84:Core/Src/freertos.c **** const osThreadAttr_t Chassis_attributes = {
  85:Core/Src/freertos.c ****     .name = "Chassis",
  86:Core/Src/freertos.c ****     .stack_size = 512 * 4,
  87:Core/Src/freertos.c ****     .priority = (osPriority_t)osPriorityLow,
ARM GAS  C:\Users\23671\AppData\Local\Temp\cc21Rggs.s 			page 6


  88:Core/Src/freertos.c **** };
  89:Core/Src/freertos.c **** /* Definitions for Motor_control */
  90:Core/Src/freertos.c **** osThreadId_t Motor_controlHandle;
  91:Core/Src/freertos.c **** const osThreadAttr_t Motor_control_attributes = {
  92:Core/Src/freertos.c ****     .name = "Motor_control",
  93:Core/Src/freertos.c ****     .stack_size = 256 * 4,
  94:Core/Src/freertos.c ****     .priority = (osPriority_t)osPriorityLow,
  95:Core/Src/freertos.c **** };
  96:Core/Src/freertos.c **** /* Definitions for Shoot */
  97:Core/Src/freertos.c **** osThreadId_t ShootHandle;
  98:Core/Src/freertos.c **** const osThreadAttr_t Shoot_attributes = {
  99:Core/Src/freertos.c ****     .name = "Shoot",
 100:Core/Src/freertos.c ****     .stack_size = 256 * 4,
 101:Core/Src/freertos.c ****     .priority = (osPriority_t)osPriorityLow,
 102:Core/Src/freertos.c **** };
 103:Core/Src/freertos.c **** /* Definitions for Referee */
 104:Core/Src/freertos.c **** osThreadId_t RefereeHandle;
 105:Core/Src/freertos.c **** const osThreadAttr_t Referee_attributes = {
 106:Core/Src/freertos.c ****     .name = "Referee",
 107:Core/Src/freertos.c ****     .stack_size = 512 * 4,
 108:Core/Src/freertos.c ****     .priority = (osPriority_t)osPriorityLow,
 109:Core/Src/freertos.c **** };
 110:Core/Src/freertos.c **** /* Definitions for Log_and_debug */
 111:Core/Src/freertos.c **** osThreadId_t Log_and_debugHandle;
 112:Core/Src/freertos.c **** const osThreadAttr_t Log_and_debug_attributes = {
 113:Core/Src/freertos.c ****     .name = "Log_and_debug",
 114:Core/Src/freertos.c ****     .stack_size = 256 * 4,
 115:Core/Src/freertos.c ****     .priority = (osPriority_t)osPriorityLow,
 116:Core/Src/freertos.c **** };
 117:Core/Src/freertos.c **** 
 118:Core/Src/freertos.c **** /* Private function prototypes -----------------------------------------------*/
 119:Core/Src/freertos.c **** /* USER CODE BEGIN FunctionPrototypes */
 120:Core/Src/freertos.c **** 
 121:Core/Src/freertos.c **** /* USER CODE END FunctionPrototypes */
 122:Core/Src/freertos.c **** 
 123:Core/Src/freertos.c **** void Remote_control_Task(void *argument);
 124:Core/Src/freertos.c **** void Gimbal_Task(void *argument);
 125:Core/Src/freertos.c **** void Chassis_Task(void *argument);
 126:Core/Src/freertos.c **** void Motor_control_Task(void *argument);
 127:Core/Src/freertos.c **** void Shoot_Task(void *argument);
 128:Core/Src/freertos.c **** void Referee_Task(void *argument);
 129:Core/Src/freertos.c **** void Log_and_debug_Task(void *argument);
 130:Core/Src/freertos.c **** 
 131:Core/Src/freertos.c **** extern void MX_USB_DEVICE_Init(void);
 132:Core/Src/freertos.c **** void MX_FREERTOS_Init(void); /* (MISRA C 2004 rule 8.1) */
 133:Core/Src/freertos.c **** 
 134:Core/Src/freertos.c **** /* Hook prototypes */
 135:Core/Src/freertos.c **** void vApplicationIdleHook(void);
 136:Core/Src/freertos.c **** 
 137:Core/Src/freertos.c **** /* USER CODE BEGIN 2 */
 138:Core/Src/freertos.c **** void vApplicationIdleHook(void)
 139:Core/Src/freertos.c **** {
 189              		.loc 1 139 1
 190              		.cfi_startproc
 191              		@ args = 0, pretend = 0, frame = 0
 192              		@ frame_needed = 1, uses_anonymous_args = 0
 193              		@ link register save eliminated.
ARM GAS  C:\Users\23671\AppData\Local\Temp\cc21Rggs.s 			page 7


 194 0000 80B4     		push	{r7}
 195              	.LCFI0:
 196              		.cfi_def_cfa_offset 4
 197              		.cfi_offset 7, -4
 198 0002 00AF     		add	r7, sp, #0
 199              	.LCFI1:
 200              		.cfi_def_cfa_register 7
 140:Core/Src/freertos.c ****   /* vApplicationIdleHook() will only be called if configUSE_IDLE_HOOK is set
 141:Core/Src/freertos.c ****   to 1 in FreeRTOSConfig.h. It will be called on each iteration of the idle
 142:Core/Src/freertos.c ****   task. It is essential that code added to this hook function never attempts
 143:Core/Src/freertos.c ****   to block in any way (for example, call xQueueReceive() with a block time
 144:Core/Src/freertos.c ****   specified, or call vTaskDelay()). If the application makes use of the
 145:Core/Src/freertos.c ****   vTaskDelete() API function (as this demo application does) then it is also
 146:Core/Src/freertos.c ****   important that vApplicationIdleHook() is permitted to return to its calling
 147:Core/Src/freertos.c ****   function, because it is the responsibility of the idle task to clean up
 148:Core/Src/freertos.c ****   memory allocated by the kernel to any task that has since been deleted. */
 149:Core/Src/freertos.c **** }
 201              		.loc 1 149 1
 202 0004 00BF     		nop
 203 0006 BD46     		mov	sp, r7
 204              	.LCFI2:
 205              		.cfi_def_cfa_register 13
 206              		@ sp needed
 207 0008 5DF8047B 		ldr	r7, [sp], #4
 208              	.LCFI3:
 209              		.cfi_restore 7
 210              		.cfi_def_cfa_offset 0
 211 000c 7047     		bx	lr
 212              		.cfi_endproc
 213              	.LFE151:
 215              		.section	.text.MX_FREERTOS_Init,"ax",%progbits
 216              		.align	1
 217              		.global	MX_FREERTOS_Init
 218              		.syntax unified
 219              		.thumb
 220              		.thumb_func
 222              	MX_FREERTOS_Init:
 223              	.LFB152:
 150:Core/Src/freertos.c **** /* USER CODE END 2 */
 151:Core/Src/freertos.c **** 
 152:Core/Src/freertos.c **** /**
 153:Core/Src/freertos.c ****  * @brief  FreeRTOS initialization
 154:Core/Src/freertos.c ****  * @param  None
 155:Core/Src/freertos.c ****  * @retval None
 156:Core/Src/freertos.c ****  */
 157:Core/Src/freertos.c **** void MX_FREERTOS_Init(void)
 158:Core/Src/freertos.c **** {
 224              		.loc 1 158 1
 225              		.cfi_startproc
 226              		@ args = 0, pretend = 0, frame = 0
 227              		@ frame_needed = 1, uses_anonymous_args = 0
 228 0000 80B5     		push	{r7, lr}
 229              	.LCFI4:
 230              		.cfi_def_cfa_offset 8
 231              		.cfi_offset 7, -8
 232              		.cfi_offset 14, -4
 233 0002 00AF     		add	r7, sp, #0
ARM GAS  C:\Users\23671\AppData\Local\Temp\cc21Rggs.s 			page 8


 234              	.LCFI5:
 235              		.cfi_def_cfa_register 7
 159:Core/Src/freertos.c ****   /* USER CODE BEGIN Init */
 160:Core/Src/freertos.c **** 
 161:Core/Src/freertos.c ****   /* USER CODE END Init */
 162:Core/Src/freertos.c **** 
 163:Core/Src/freertos.c ****   /* USER CODE BEGIN RTOS_MUTEX */
 164:Core/Src/freertos.c ****   /* add mutexes, ... */
 165:Core/Src/freertos.c ****   /* USER CODE END RTOS_MUTEX */
 166:Core/Src/freertos.c **** 
 167:Core/Src/freertos.c ****   /* USER CODE BEGIN RTOS_SEMAPHORES */
 168:Core/Src/freertos.c ****   /* add semaphores, ... */
 169:Core/Src/freertos.c ****   /* USER CODE END RTOS_SEMAPHORES */
 170:Core/Src/freertos.c **** 
 171:Core/Src/freertos.c ****   /* USER CODE BEGIN RTOS_TIMERS */
 172:Core/Src/freertos.c ****   /* start timers, add new ones, ... */
 173:Core/Src/freertos.c ****   /* USER CODE END RTOS_TIMERS */
 174:Core/Src/freertos.c **** 
 175:Core/Src/freertos.c ****   /* USER CODE BEGIN RTOS_QUEUES */
 176:Core/Src/freertos.c ****   /* add queues, ... */
 177:Core/Src/freertos.c ****   /* USER CODE END RTOS_QUEUES */
 178:Core/Src/freertos.c **** 
 179:Core/Src/freertos.c ****   /* Create the thread(s) */
 180:Core/Src/freertos.c ****   /* creation of Remote_control */
 181:Core/Src/freertos.c ****   Remote_controlHandle = osThreadNew(Remote_control_Task, NULL, &Remote_control_attributes);
 236              		.loc 1 181 26
 237 0004 1C4A     		ldr	r2, .L3
 238 0006 0021     		movs	r1, #0
 239 0008 1C48     		ldr	r0, .L3+4
 240 000a FFF7FEFF 		bl	osThreadNew
 241 000e 0346     		mov	r3, r0
 242              		.loc 1 181 24 discriminator 1
 243 0010 1B4A     		ldr	r2, .L3+8
 244 0012 1360     		str	r3, [r2]
 182:Core/Src/freertos.c **** 
 183:Core/Src/freertos.c ****   /* creation of Gimbal */
 184:Core/Src/freertos.c ****   GimbalHandle = osThreadNew(Gimbal_Task, NULL, &Gimbal_attributes);
 245              		.loc 1 184 18
 246 0014 1B4A     		ldr	r2, .L3+12
 247 0016 0021     		movs	r1, #0
 248 0018 1B48     		ldr	r0, .L3+16
 249 001a FFF7FEFF 		bl	osThreadNew
 250 001e 0346     		mov	r3, r0
 251              		.loc 1 184 16 discriminator 1
 252 0020 1A4A     		ldr	r2, .L3+20
 253 0022 1360     		str	r3, [r2]
 185:Core/Src/freertos.c **** 
 186:Core/Src/freertos.c ****   /* creation of Chassis */
 187:Core/Src/freertos.c ****   ChassisHandle = osThreadNew(Chassis_Task, NULL, &Chassis_attributes);
 254              		.loc 1 187 19
 255 0024 1A4A     		ldr	r2, .L3+24
 256 0026 0021     		movs	r1, #0
 257 0028 1A48     		ldr	r0, .L3+28
 258 002a FFF7FEFF 		bl	osThreadNew
 259 002e 0346     		mov	r3, r0
 260              		.loc 1 187 17 discriminator 1
 261 0030 194A     		ldr	r2, .L3+32
ARM GAS  C:\Users\23671\AppData\Local\Temp\cc21Rggs.s 			page 9


 262 0032 1360     		str	r3, [r2]
 188:Core/Src/freertos.c **** 
 189:Core/Src/freertos.c ****   /* creation of Motor_control */
 190:Core/Src/freertos.c ****   Motor_controlHandle = osThreadNew(Motor_control_Task, NULL, &Motor_control_attributes);
 263              		.loc 1 190 25
 264 0034 194A     		ldr	r2, .L3+36
 265 0036 0021     		movs	r1, #0
 266 0038 1948     		ldr	r0, .L3+40
 267 003a FFF7FEFF 		bl	osThreadNew
 268 003e 0346     		mov	r3, r0
 269              		.loc 1 190 23 discriminator 1
 270 0040 184A     		ldr	r2, .L3+44
 271 0042 1360     		str	r3, [r2]
 191:Core/Src/freertos.c **** 
 192:Core/Src/freertos.c ****   /* creation of Shoot */
 193:Core/Src/freertos.c ****   ShootHandle = osThreadNew(Shoot_Task, NULL, &Shoot_attributes);
 272              		.loc 1 193 17
 273 0044 184A     		ldr	r2, .L3+48
 274 0046 0021     		movs	r1, #0
 275 0048 1848     		ldr	r0, .L3+52
 276 004a FFF7FEFF 		bl	osThreadNew
 277 004e 0346     		mov	r3, r0
 278              		.loc 1 193 15 discriminator 1
 279 0050 174A     		ldr	r2, .L3+56
 280 0052 1360     		str	r3, [r2]
 194:Core/Src/freertos.c **** 
 195:Core/Src/freertos.c ****   /* creation of Referee */
 196:Core/Src/freertos.c ****   RefereeHandle = osThreadNew(Referee_Task, NULL, &Referee_attributes);
 281              		.loc 1 196 19
 282 0054 174A     		ldr	r2, .L3+60
 283 0056 0021     		movs	r1, #0
 284 0058 1748     		ldr	r0, .L3+64
 285 005a FFF7FEFF 		bl	osThreadNew
 286 005e 0346     		mov	r3, r0
 287              		.loc 1 196 17 discriminator 1
 288 0060 164A     		ldr	r2, .L3+68
 289 0062 1360     		str	r3, [r2]
 197:Core/Src/freertos.c **** 
 198:Core/Src/freertos.c ****   /* creation of Log_and_debug */
 199:Core/Src/freertos.c ****   Log_and_debugHandle = osThreadNew(Log_and_debug_Task, NULL, &Log_and_debug_attributes);
 290              		.loc 1 199 25
 291 0064 164A     		ldr	r2, .L3+72
 292 0066 0021     		movs	r1, #0
 293 0068 1648     		ldr	r0, .L3+76
 294 006a FFF7FEFF 		bl	osThreadNew
 295 006e 0346     		mov	r3, r0
 296              		.loc 1 199 23 discriminator 1
 297 0070 154A     		ldr	r2, .L3+80
 298 0072 1360     		str	r3, [r2]
 200:Core/Src/freertos.c **** 
 201:Core/Src/freertos.c ****   /* USER CODE BEGIN RTOS_THREADS */
 202:Core/Src/freertos.c ****   /* add threads, ... */
 203:Core/Src/freertos.c ****   /* USER CODE END RTOS_THREADS */
 204:Core/Src/freertos.c **** 
 205:Core/Src/freertos.c ****   /* USER CODE BEGIN RTOS_EVENTS */
 206:Core/Src/freertos.c ****   /* add events, ... */
 207:Core/Src/freertos.c ****   /* USER CODE END RTOS_EVENTS */
ARM GAS  C:\Users\23671\AppData\Local\Temp\cc21Rggs.s 			page 10


 208:Core/Src/freertos.c **** }
 299              		.loc 1 208 1
 300 0074 00BF     		nop
 301 0076 80BD     		pop	{r7, pc}
 302              	.L4:
 303              		.align	2
 304              	.L3:
 305 0078 00000000 		.word	Remote_control_attributes
 306 007c 00000000 		.word	Remote_control_Task
 307 0080 00000000 		.word	Remote_controlHandle
 308 0084 00000000 		.word	Gimbal_attributes
 309 0088 00000000 		.word	Gimbal_Task
 310 008c 00000000 		.word	GimbalHandle
 311 0090 00000000 		.word	Chassis_attributes
 312 0094 00000000 		.word	Chassis_Task
 313 0098 00000000 		.word	ChassisHandle
 314 009c 00000000 		.word	Motor_control_attributes
 315 00a0 00000000 		.word	Motor_control_Task
 316 00a4 00000000 		.word	Motor_controlHandle
 317 00a8 00000000 		.word	Shoot_attributes
 318 00ac 00000000 		.word	Shoot_Task
 319 00b0 00000000 		.word	ShootHandle
 320 00b4 00000000 		.word	Referee_attributes
 321 00b8 00000000 		.word	Referee_Task
 322 00bc 00000000 		.word	RefereeHandle
 323 00c0 00000000 		.word	Log_and_debug_attributes
 324 00c4 00000000 		.word	Log_and_debug_Task
 325 00c8 00000000 		.word	Log_and_debugHandle
 326              		.cfi_endproc
 327              	.LFE152:
 329              		.section	.text.Remote_control_Task,"ax",%progbits
 330              		.align	1
 331              		.global	Remote_control_Task
 332              		.syntax unified
 333              		.thumb
 334              		.thumb_func
 336              	Remote_control_Task:
 337              	.LFB153:
 209:Core/Src/freertos.c **** 
 210:Core/Src/freertos.c **** /* USER CODE BEGIN Header_Remote_control_Task */
 211:Core/Src/freertos.c **** /**
 212:Core/Src/freertos.c ****  * @brief  Function implementing the Remote_control thread.
 213:Core/Src/freertos.c ****  * @param  argument: Not used
 214:Core/Src/freertos.c ****  * @retval None
 215:Core/Src/freertos.c ****  */
 216:Core/Src/freertos.c **** /* USER CODE END Header_Remote_control_Task */
 217:Core/Src/freertos.c **** void Remote_control_Task(void *argument)
 218:Core/Src/freertos.c **** {
 338              		.loc 1 218 1
 339              		.cfi_startproc
 340              		@ args = 0, pretend = 0, frame = 8
 341              		@ frame_needed = 1, uses_anonymous_args = 0
 342 0000 80B5     		push	{r7, lr}
 343              	.LCFI6:
 344              		.cfi_def_cfa_offset 8
 345              		.cfi_offset 7, -8
 346              		.cfi_offset 14, -4
ARM GAS  C:\Users\23671\AppData\Local\Temp\cc21Rggs.s 			page 11


 347 0002 82B0     		sub	sp, sp, #8
 348              	.LCFI7:
 349              		.cfi_def_cfa_offset 16
 350 0004 00AF     		add	r7, sp, #0
 351              	.LCFI8:
 352              		.cfi_def_cfa_register 7
 353 0006 7860     		str	r0, [r7, #4]
 219:Core/Src/freertos.c ****   /* init code for USB_DEVICE */
 220:Core/Src/freertos.c ****   MX_USB_DEVICE_Init();
 354              		.loc 1 220 3
 355 0008 FFF7FEFF 		bl	MX_USB_DEVICE_Init
 356              	.L6:
 221:Core/Src/freertos.c ****   /* USER CODE BEGIN Remote_control_Task */
 222:Core/Src/freertos.c ****   /* Infinite loop */
 223:Core/Src/freertos.c ****   for (;;)
 224:Core/Src/freertos.c ****   {
 225:Core/Src/freertos.c ****     DT7toRCdata();
 357              		.loc 1 225 5
 358 000c FFF7FEFF 		bl	DT7toRCdata
 226:Core/Src/freertos.c ****     RC_control();
 359              		.loc 1 226 5
 360 0010 FFF7FEFF 		bl	RC_control
 227:Core/Src/freertos.c ****     //¹¤³Ì
 228:Core/Src/freertos.c ****     arm_remoto_control();
 361              		.loc 1 228 5
 362 0014 FFF7FEFF 		bl	arm_remoto_control
 229:Core/Src/freertos.c ****     Arm_motor4();
 363              		.loc 1 229 5
 364 0018 FFF7FEFF 		bl	Arm_motor4
 230:Core/Src/freertos.c ****     Keyboard_mouse_control();
 365              		.loc 1 230 5
 366 001c FFF7FEFF 		bl	Keyboard_mouse_control
 231:Core/Src/freertos.c ****     osDelay(1);
 367              		.loc 1 231 5 discriminator 1
 368 0020 0120     		movs	r0, #1
 369 0022 FFF7FEFF 		bl	osDelay
 225:Core/Src/freertos.c ****     RC_control();
 370              		.loc 1 225 5
 371 0026 00BF     		nop
 372 0028 F0E7     		b	.L6
 373              		.cfi_endproc
 374              	.LFE153:
 376              		.section	.text.Gimbal_Task,"ax",%progbits
 377              		.align	1
 378              		.global	Gimbal_Task
 379              		.syntax unified
 380              		.thumb
 381              		.thumb_func
 383              	Gimbal_Task:
 384              	.LFB154:
 232:Core/Src/freertos.c ****   }
 233:Core/Src/freertos.c ****   /* USER CODE END Remote_control_Task */
 234:Core/Src/freertos.c **** }
 235:Core/Src/freertos.c **** 
 236:Core/Src/freertos.c **** /* USER CODE BEGIN Header_Gimbal_Task */
 237:Core/Src/freertos.c **** /**
 238:Core/Src/freertos.c ****  * @brief Function implementing the Gimbal thread.
ARM GAS  C:\Users\23671\AppData\Local\Temp\cc21Rggs.s 			page 12


 239:Core/Src/freertos.c ****  * @param argument: Not used
 240:Core/Src/freertos.c ****  * @retval None
 241:Core/Src/freertos.c ****  */
 242:Core/Src/freertos.c **** /* USER CODE END Header_Gimbal_Task */
 243:Core/Src/freertos.c **** void Gimbal_Task(void *argument)
 244:Core/Src/freertos.c **** {
 385              		.loc 1 244 1
 386              		.cfi_startproc
 387              		@ args = 0, pretend = 0, frame = 8
 388              		@ frame_needed = 1, uses_anonymous_args = 0
 389 0000 80B5     		push	{r7, lr}
 390              	.LCFI9:
 391              		.cfi_def_cfa_offset 8
 392              		.cfi_offset 7, -8
 393              		.cfi_offset 14, -4
 394 0002 82B0     		sub	sp, sp, #8
 395              	.LCFI10:
 396              		.cfi_def_cfa_offset 16
 397 0004 00AF     		add	r7, sp, #0
 398              	.LCFI11:
 399              		.cfi_def_cfa_register 7
 400 0006 7860     		str	r0, [r7, #4]
 401              	.L8:
 245:Core/Src/freertos.c ****   /* USER CODE BEGIN Gimbal_Task */
 246:Core/Src/freertos.c ****   /* Infinite loop */
 247:Core/Src/freertos.c ****   for (;;)
 248:Core/Src/freertos.c ****   {
 249:Core/Src/freertos.c ****     Gimbal_control();
 402              		.loc 1 249 5
 403 0008 FFF7FEFF 		bl	Gimbal_control
 250:Core/Src/freertos.c ****     osDelay(1);
 404              		.loc 1 250 5 discriminator 1
 405 000c 0120     		movs	r0, #1
 406 000e FFF7FEFF 		bl	osDelay
 249:Core/Src/freertos.c ****     osDelay(1);
 407              		.loc 1 249 5
 408 0012 00BF     		nop
 409 0014 F8E7     		b	.L8
 410              		.cfi_endproc
 411              	.LFE154:
 413              		.section	.text.Chassis_Task,"ax",%progbits
 414              		.align	1
 415              		.global	Chassis_Task
 416              		.syntax unified
 417              		.thumb
 418              		.thumb_func
 420              	Chassis_Task:
 421              	.LFB155:
 251:Core/Src/freertos.c ****   }
 252:Core/Src/freertos.c ****   /* USER CODE END Gimbal_Task */
 253:Core/Src/freertos.c **** }
 254:Core/Src/freertos.c **** 
 255:Core/Src/freertos.c **** /* USER CODE BEGIN Header_Chassis_Task */
 256:Core/Src/freertos.c **** /**
 257:Core/Src/freertos.c ****  * @brief Function implementing the Chassis thread.
 258:Core/Src/freertos.c ****  * @param argument: Not used
 259:Core/Src/freertos.c ****  * @retval None
ARM GAS  C:\Users\23671\AppData\Local\Temp\cc21Rggs.s 			page 13


 260:Core/Src/freertos.c ****  */
 261:Core/Src/freertos.c **** /* USER CODE END Header_Chassis_Task */
 262:Core/Src/freertos.c **** void Chassis_Task(void *argument)
 263:Core/Src/freertos.c **** {
 422              		.loc 1 263 1
 423              		.cfi_startproc
 424              		@ args = 0, pretend = 0, frame = 8
 425              		@ frame_needed = 1, uses_anonymous_args = 0
 426 0000 80B5     		push	{r7, lr}
 427              	.LCFI12:
 428              		.cfi_def_cfa_offset 8
 429              		.cfi_offset 7, -8
 430              		.cfi_offset 14, -4
 431 0002 82B0     		sub	sp, sp, #8
 432              	.LCFI13:
 433              		.cfi_def_cfa_offset 16
 434 0004 00AF     		add	r7, sp, #0
 435              	.LCFI14:
 436              		.cfi_def_cfa_register 7
 437 0006 7860     		str	r0, [r7, #4]
 438              	.L10:
 264:Core/Src/freertos.c ****   /* USER CODE BEGIN Chassis_Task */
 265:Core/Src/freertos.c ****   /* Infinite loop */
 266:Core/Src/freertos.c ****   for (;;)
 267:Core/Src/freertos.c ****   {
 268:Core/Src/freertos.c ****    
 269:Core/Src/freertos.c ****     Chassis_move();
 439              		.loc 1 269 5
 440 0008 FFF7FEFF 		bl	Chassis_move
 270:Core/Src/freertos.c ****     Supercup_send_data();
 441              		.loc 1 270 5
 442 000c FFF7FEFF 		bl	Supercup_send_data
 271:Core/Src/freertos.c ****     osDelay(1);
 443              		.loc 1 271 5 discriminator 1
 444 0010 0120     		movs	r0, #1
 445 0012 FFF7FEFF 		bl	osDelay
 269:Core/Src/freertos.c ****     Supercup_send_data();
 446              		.loc 1 269 5
 447 0016 00BF     		nop
 448 0018 F6E7     		b	.L10
 449              		.cfi_endproc
 450              	.LFE155:
 452              		.section	.text.Motor_control_Task,"ax",%progbits
 453              		.align	1
 454              		.global	Motor_control_Task
 455              		.syntax unified
 456              		.thumb
 457              		.thumb_func
 459              	Motor_control_Task:
 460              	.LFB156:
 272:Core/Src/freertos.c ****   }
 273:Core/Src/freertos.c ****   /* USER CODE END Chassis_Task */
 274:Core/Src/freertos.c **** }
 275:Core/Src/freertos.c **** 
 276:Core/Src/freertos.c **** /* USER CODE BEGIN Header_Motor_control_Task */
 277:Core/Src/freertos.c **** /**
 278:Core/Src/freertos.c ****  * @brief Function implementing the Motor_control thread.
ARM GAS  C:\Users\23671\AppData\Local\Temp\cc21Rggs.s 			page 14


 279:Core/Src/freertos.c ****  * @param argument: Not used
 280:Core/Src/freertos.c ****  * @retval None
 281:Core/Src/freertos.c ****  */
 282:Core/Src/freertos.c **** /* USER CODE END Header_Motor_control_Task */
 283:Core/Src/freertos.c **** void Motor_control_Task(void *argument)
 284:Core/Src/freertos.c **** {
 461              		.loc 1 284 1
 462              		.cfi_startproc
 463              		@ args = 0, pretend = 0, frame = 8
 464              		@ frame_needed = 1, uses_anonymous_args = 0
 465 0000 80B5     		push	{r7, lr}
 466              	.LCFI15:
 467              		.cfi_def_cfa_offset 8
 468              		.cfi_offset 7, -8
 469              		.cfi_offset 14, -4
 470 0002 82B0     		sub	sp, sp, #8
 471              	.LCFI16:
 472              		.cfi_def_cfa_offset 16
 473 0004 00AF     		add	r7, sp, #0
 474              	.LCFI17:
 475              		.cfi_def_cfa_register 7
 476 0006 7860     		str	r0, [r7, #4]
 477              	.L14:
 285:Core/Src/freertos.c ****   /* USER CODE BEGIN Motor_control_Task */
 286:Core/Src/freertos.c ****   /* Infinite loop */
 287:Core/Src/freertos.c ****   for (;;)
 288:Core/Src/freertos.c ****   {
 289:Core/Src/freertos.c ****     if (Global.Control.mode != LOCK)
 478              		.loc 1 289 23
 479 0008 084B     		ldr	r3, .L15
 480 000a 93F83930 		ldrb	r3, [r3, #57]	@ zero_extendqisi2
 481              		.loc 1 289 8
 482 000e 022B     		cmp	r3, #2
 483 0010 01D0     		beq	.L12
 290:Core/Src/freertos.c ****       DJIMotor_send_current();
 484              		.loc 1 290 7
 485 0012 FFF7FEFF 		bl	DJIMotor_send_current
 486              	.L12:
 291:Core/Src/freertos.c ****     if (Global.Chssis.input.reset != 1)
 487              		.loc 1 291 28
 488 0016 054B     		ldr	r3, .L15
 489 0018 1B7C     		ldrb	r3, [r3, #16]	@ zero_extendqisi2
 490              		.loc 1 291 8
 491 001a 012B     		cmp	r3, #1
 492 001c 02D0     		beq	.L13
 292:Core/Src/freertos.c ****       HAL_IWDG_Refresh(&hiwdg1);
 493              		.loc 1 292 7
 494 001e 0448     		ldr	r0, .L15+4
 495 0020 FFF7FEFF 		bl	HAL_IWDG_Refresh
 496              	.L13:
 293:Core/Src/freertos.c ****     osDelay(1);
 497              		.loc 1 293 5
 498 0024 0120     		movs	r0, #1
 499 0026 FFF7FEFF 		bl	osDelay
 289:Core/Src/freertos.c ****       DJIMotor_send_current();
 500              		.loc 1 289 8
 501 002a EDE7     		b	.L14
ARM GAS  C:\Users\23671\AppData\Local\Temp\cc21Rggs.s 			page 15


 502              	.L16:
 503              		.align	2
 504              	.L15:
 505 002c 00000000 		.word	Global
 506 0030 00000000 		.word	hiwdg1
 507              		.cfi_endproc
 508              	.LFE156:
 510              		.section	.text.Shoot_Task,"ax",%progbits
 511              		.align	1
 512              		.global	Shoot_Task
 513              		.syntax unified
 514              		.thumb
 515              		.thumb_func
 517              	Shoot_Task:
 518              	.LFB157:
 294:Core/Src/freertos.c ****   }
 295:Core/Src/freertos.c ****   /* USER CODE END Motor_control_Task */
 296:Core/Src/freertos.c **** }
 297:Core/Src/freertos.c **** 
 298:Core/Src/freertos.c **** /* USER CODE BEGIN Header_Shoot_Task */
 299:Core/Src/freertos.c **** /**
 300:Core/Src/freertos.c ****  * @brief Function implementing the Shoot thread.
 301:Core/Src/freertos.c ****  * @param argument: Not used
 302:Core/Src/freertos.c ****  * @retval None
 303:Core/Src/freertos.c ****  */
 304:Core/Src/freertos.c **** /* USER CODE END Header_Shoot_Task */
 305:Core/Src/freertos.c **** void Shoot_Task(void *argument)
 306:Core/Src/freertos.c **** {
 519              		.loc 1 306 1
 520              		.cfi_startproc
 521              		@ args = 0, pretend = 0, frame = 8
 522              		@ frame_needed = 1, uses_anonymous_args = 0
 523 0000 80B5     		push	{r7, lr}
 524              	.LCFI18:
 525              		.cfi_def_cfa_offset 8
 526              		.cfi_offset 7, -8
 527              		.cfi_offset 14, -4
 528 0002 82B0     		sub	sp, sp, #8
 529              	.LCFI19:
 530              		.cfi_def_cfa_offset 16
 531 0004 00AF     		add	r7, sp, #0
 532              	.LCFI20:
 533              		.cfi_def_cfa_register 7
 534 0006 7860     		str	r0, [r7, #4]
 535              	.L19:
 307:Core/Src/freertos.c ****   /* USER CODE BEGIN Shoot_Task */
 308:Core/Src/freertos.c ****   /* Infinite loop */
 309:Core/Src/freertos.c ****   for (;;)
 310:Core/Src/freertos.c ****   {
 311:Core/Src/freertos.c ****     if (Global.Auto.mode != NONE && Global.Auto.input.Auto_control_online > 0)
 536              		.loc 1 311 20
 537 0008 084B     		ldr	r3, .L20
 538 000a 93F82430 		ldrb	r3, [r3, #36]	@ zero_extendqisi2
 539              		.loc 1 311 8
 540 000e 002B     		cmp	r3, #0
 541 0010 05D0     		beq	.L18
 542              		.loc 1 311 54 discriminator 1
ARM GAS  C:\Users\23671\AppData\Local\Temp\cc21Rggs.s 			page 16


 543 0012 064B     		ldr	r3, .L20
 544 0014 1B6B     		ldr	r3, [r3, #48]
 545              		.loc 1 311 34 discriminator 1
 546 0016 002B     		cmp	r3, #0
 547 0018 01DD     		ble	.L18
 312:Core/Src/freertos.c ****       Auto_control();
 548              		.loc 1 312 7
 549 001a FFF7FEFF 		bl	Auto_control
 550              	.L18:
 313:Core/Src/freertos.c ****     Shoot_task();
 551              		.loc 1 313 5
 552 001e FFF7FEFF 		bl	Shoot_task
 314:Core/Src/freertos.c ****     osDelay(1);
 553              		.loc 1 314 5
 554 0022 0120     		movs	r0, #1
 555 0024 FFF7FEFF 		bl	osDelay
 311:Core/Src/freertos.c ****       Auto_control();
 556              		.loc 1 311 8
 557 0028 EEE7     		b	.L19
 558              	.L21:
 559 002a 00BF     		.align	2
 560              	.L20:
 561 002c 00000000 		.word	Global
 562              		.cfi_endproc
 563              	.LFE157:
 565              		.section	.text.Referee_Task,"ax",%progbits
 566              		.align	1
 567              		.global	Referee_Task
 568              		.syntax unified
 569              		.thumb
 570              		.thumb_func
 572              	Referee_Task:
 573              	.LFB158:
 315:Core/Src/freertos.c ****   }
 316:Core/Src/freertos.c ****   /* USER CODE END Shoot_Task */
 317:Core/Src/freertos.c **** }
 318:Core/Src/freertos.c **** 
 319:Core/Src/freertos.c **** /* USER CODE BEGIN Header_Referee_Task */
 320:Core/Src/freertos.c **** /**
 321:Core/Src/freertos.c ****  * @brief Function implementing the Referee thread.
 322:Core/Src/freertos.c ****  * @param argument: Not used
 323:Core/Src/freertos.c ****  * @retval None
 324:Core/Src/freertos.c ****  */
 325:Core/Src/freertos.c **** /* USER CODE END Header_Referee_Task */
 326:Core/Src/freertos.c **** void Referee_Task(void *argument)
 327:Core/Src/freertos.c **** {
 574              		.loc 1 327 1
 575              		.cfi_startproc
 576              		@ args = 0, pretend = 0, frame = 8
 577              		@ frame_needed = 1, uses_anonymous_args = 0
 578 0000 80B5     		push	{r7, lr}
 579              	.LCFI21:
 580              		.cfi_def_cfa_offset 8
 581              		.cfi_offset 7, -8
 582              		.cfi_offset 14, -4
 583 0002 82B0     		sub	sp, sp, #8
 584              	.LCFI22:
ARM GAS  C:\Users\23671\AppData\Local\Temp\cc21Rggs.s 			page 17


 585              		.cfi_def_cfa_offset 16
 586 0004 00AF     		add	r7, sp, #0
 587              	.LCFI23:
 588              		.cfi_def_cfa_register 7
 589 0006 7860     		str	r0, [r7, #4]
 328:Core/Src/freertos.c ****   /* USER CODE BEGIN Referee_Task */
 329:Core/Src/freertos.c ****   ui_init();
 590              		.loc 1 329 3
 591 0008 FFF7FEFF 		bl	ui_init
 592              	.L23:
 330:Core/Src/freertos.c ****   /* Infinite loop */
 331:Core/Src/freertos.c ****   for (;;)
 332:Core/Src/freertos.c ****   {
 333:Core/Src/freertos.c ****     Referee_unpack_fifo_data(&referee_fifo, &referee_unpack_obj);
 593              		.loc 1 333 5
 594 000c 0D49     		ldr	r1, .L24
 595 000e 0E48     		ldr	r0, .L24+4
 596 0010 FFF7FEFF 		bl	Referee_unpack_fifo_data
 334:Core/Src/freertos.c ****     ui_self_id = Referee_data.robot_id;
 597              		.loc 1 334 30
 598 0014 0D4B     		ldr	r3, .L24+8
 599 0016 1B79     		ldrb	r3, [r3, #4]	@ zero_extendqisi2
 600 0018 1A46     		mov	r2, r3
 601              		.loc 1 334 16
 602 001a 0D4B     		ldr	r3, .L24+12
 603 001c 1A60     		str	r2, [r3]
 335:Core/Src/freertos.c ****     Supercapui_change(cap.remain_vol);
 604              		.loc 1 335 5
 605 001e 0D4B     		ldr	r3, .L24+16
 606 0020 D3F80530 		ldr	r3, [r3, #5]	@ unaligned
 607 0024 00EE103A 		vmov	s0, r3
 608 0028 FFF7FEFF 		bl	Supercapui_change
 336:Core/Src/freertos.c ****     Shootui_change();
 609              		.loc 1 336 5
 610 002c FFF7FEFF 		bl	Shootui_change
 337:Core/Src/freertos.c ****     Autoui_change();
 611              		.loc 1 337 5
 612 0030 FFF7FEFF 		bl	Autoui_change
 338:Core/Src/freertos.c ****     ui_updata();
 613              		.loc 1 338 5
 614 0034 FFF7FEFF 		bl	ui_updata
 339:Core/Src/freertos.c ****     osDelay(1);
 615              		.loc 1 339 5 discriminator 1
 616 0038 0120     		movs	r0, #1
 617 003a FFF7FEFF 		bl	osDelay
 333:Core/Src/freertos.c ****     ui_self_id = Referee_data.robot_id;
 618              		.loc 1 333 5
 619 003e 00BF     		nop
 620 0040 E4E7     		b	.L23
 621              	.L25:
 622 0042 00BF     		.align	2
 623              	.L24:
 624 0044 00000000 		.word	referee_unpack_obj
 625 0048 00000000 		.word	referee_fifo
 626 004c 00000000 		.word	Referee_data
 627 0050 00000000 		.word	ui_self_id
 628 0054 00000000 		.word	cap
ARM GAS  C:\Users\23671\AppData\Local\Temp\cc21Rggs.s 			page 18


 629              		.cfi_endproc
 630              	.LFE158:
 632              		.section	.text.Log_and_debug_Task,"ax",%progbits
 633              		.align	1
 634              		.global	Log_and_debug_Task
 635              		.syntax unified
 636              		.thumb
 637              		.thumb_func
 639              	Log_and_debug_Task:
 640              	.LFB159:
 340:Core/Src/freertos.c ****   }
 341:Core/Src/freertos.c ****   /* USER CODE END Referee_Task */
 342:Core/Src/freertos.c **** }
 343:Core/Src/freertos.c **** 
 344:Core/Src/freertos.c **** /* USER CODE BEGIN Header_Log_and_debug_Task */
 345:Core/Src/freertos.c **** /**
 346:Core/Src/freertos.c ****  * @brief Function implementing the Log_and_debug thread.
 347:Core/Src/freertos.c ****  * @param argument: Not used
 348:Core/Src/freertos.c ****  * @retval None
 349:Core/Src/freertos.c ****  */
 350:Core/Src/freertos.c **** /* USER CODE END Header_Log_and_debug_Task */
 351:Core/Src/freertos.c **** void Log_and_debug_Task(void *argument)
 352:Core/Src/freertos.c **** {
 641              		.loc 1 352 1
 642              		.cfi_startproc
 643              		@ args = 0, pretend = 0, frame = 8
 644              		@ frame_needed = 1, uses_anonymous_args = 0
 645 0000 80B5     		push	{r7, lr}
 646              	.LCFI24:
 647              		.cfi_def_cfa_offset 8
 648              		.cfi_offset 7, -8
 649              		.cfi_offset 14, -4
 650 0002 82B0     		sub	sp, sp, #8
 651              	.LCFI25:
 652              		.cfi_def_cfa_offset 16
 653 0004 00AF     		add	r7, sp, #0
 654              	.LCFI26:
 655              		.cfi_def_cfa_register 7
 656 0006 7860     		str	r0, [r7, #4]
 657              	.L27:
 353:Core/Src/freertos.c ****   /* USER CODE BEGIN Log_and_debug_Task */
 354:Core/Src/freertos.c **** 
 355:Core/Src/freertos.c ****   /* Infinite loop */
 356:Core/Src/freertos.c ****   for (;;)
 357:Core/Src/freertos.c ****   {
 358:Core/Src/freertos.c ****     // Music_play(melody);
 359:Core/Src/freertos.c ****    // printf("hello\n");
 360:Core/Src/freertos.c ****     osDelay(500);
 658              		.loc 1 360 5
 659 0008 4FF4FA70 		mov	r0, #500
 660 000c FFF7FEFF 		bl	osDelay
 361:Core/Src/freertos.c ****     LEDshowcolor(RED);
 661              		.loc 1 361 5
 662 0010 4FF47F00 		mov	r0, #16711680
 663 0014 FFF7FEFF 		bl	LEDshowcolor
 362:Core/Src/freertos.c ****     osDelay(500);
 664              		.loc 1 362 5
ARM GAS  C:\Users\23671\AppData\Local\Temp\cc21Rggs.s 			page 19


 665 0018 4FF4FA70 		mov	r0, #500
 666 001c FFF7FEFF 		bl	osDelay
 363:Core/Src/freertos.c ****     LEDshowcolor(BLUE);
 667              		.loc 1 363 5
 668 0020 FF20     		movs	r0, #255
 669 0022 FFF7FEFF 		bl	LEDshowcolor
 364:Core/Src/freertos.c ****     osDelay(500);
 670              		.loc 1 364 5
 671 0026 4FF4FA70 		mov	r0, #500
 672 002a FFF7FEFF 		bl	osDelay
 365:Core/Src/freertos.c ****     LEDshowcolor(GREEN);
 673              		.loc 1 365 5
 674 002e 4FF47F40 		mov	r0, #65280
 675 0032 FFF7FEFF 		bl	LEDshowcolor
 366:Core/Src/freertos.c **** 
 367:Core/Src/freertos.c ****     osDelay(1);
 676              		.loc 1 367 5 discriminator 1
 677 0036 0120     		movs	r0, #1
 678 0038 FFF7FEFF 		bl	osDelay
 360:Core/Src/freertos.c ****     LEDshowcolor(RED);
 679              		.loc 1 360 5
 680 003c 00BF     		nop
 681 003e E3E7     		b	.L27
 682              		.cfi_endproc
 683              	.LFE159:
 685              		.text
 686              	.Letext0:
 687              		.file 2 "D:/MSYS2/mingw64/arm-none-eabi/include/machine/_default_types.h"
 688              		.file 3 "D:/MSYS2/mingw64/arm-none-eabi/include/sys/_stdint.h"
 689              		.file 4 "Drivers/CMSIS/Device/ST/STM32H7xx/Include/stm32h723xx.h"
 690              		.file 5 "Drivers/STM32H7xx_HAL_Driver/Inc/stm32h7xx_hal_def.h"
 691              		.file 6 "Drivers/STM32H7xx_HAL_Driver/Inc/stm32h7xx_hal_iwdg.h"
 692              		.file 7 "Middlewares/Third_Party/FreeRTOS/Source/CMSIS_RTOS_V2/cmsis_os2.h"
 693              		.file 8 "User/Software/Global_status.h"
 694              		.file 9 "Drivers/UI/ui_interface.h"
 695              		.file 10 "User/Hardware/referee_system_protocol.h"
 696              		.file 11 "Algorithm/fifo.h"
 697              		.file 12 "User/Hardware/referee_system.h"
 698              		.file 13 "User/Hardware/supercup.h"
 699              		.file 14 "User/Hardware/LED.h"
 700              		.file 15 "User/Hardware/dm4310_drv.h"
 701              		.file 16 "Core/Inc/iwdg.h"
 702              		.file 17 "User/Software/ui.h"
 703              		.file 18 "User/Software/shoot.h"
 704              		.file 19 "User/Software/Auto_control.h"
 705              		.file 20 "User/Hardware/motor.h"
 706              		.file 21 "User/Software/Chassis.h"
 707              		.file 22 "User/Software/Gimbal.h"
 708              		.file 23 "User/Software/remote_control.h"
 709              		.file 24 "User/Hardware/dm_arm.h"
 710              		.file 25 "User/Software/WFLY_ET16_remote_control.h"
ARM GAS  C:\Users\23671\AppData\Local\Temp\cc21Rggs.s 			page 20

