ARM GAS  C:\Users\23671\AppData\Local\Temp\ccxPu3e0.s 			page 1


   1              		.cpu cortex-m7
   2              		.arch armv7e-m
   3              		.fpu fpv5-d16
   4              		.eabi_attribute 28, 1
   5              		.eabi_attribute 20, 1
   6              		.eabi_attribute 21, 1
   7              		.eabi_attribute 23, 3
   8              		.eabi_attribute 24, 1
   9              		.eabi_attribute 25, 1
  10              		.eabi_attribute 26, 1
  11              		.eabi_attribute 30, 6
  12              		.eabi_attribute 34, 1
  13              		.eabi_attribute 18, 4
  14              		.file	"Power_switch.c"
  15              		.text
  16              	.Ltext0:
  17              		.cfi_sections	.debug_frame
  18              		.file 1 "User/BSP/Power_switch.c"
  19              		.section	.text.Power_set,"ax",%progbits
  20              		.align	1
  21              		.global	Power_set
  22              		.syntax unified
  23              		.thumb
  24              		.thumb_func
  26              	Power_set:
  27              	.LFB144:
   1:User/BSP/Power_switch.c **** /**
   2:User/BSP/Power_switch.c ****  * @file Power_switch.c
   3:User/BSP/Power_switch.c ****  * @author Siri (lixirui2017@outlook.com)
   4:User/BSP/Power_switch.c ****  * @brief 达秒开发板电源开关功能
   5:User/BSP/Power_switch.c ****  * @version 0.1
   6:User/BSP/Power_switch.c ****  * @date 2024-12-20
   7:User/BSP/Power_switch.c ****  *
   8:User/BSP/Power_switch.c ****  * @copyright Copyright (c) 2024
   9:User/BSP/Power_switch.c ****  *
  10:User/BSP/Power_switch.c ****  */
  11:User/BSP/Power_switch.c **** #include "main.h"
  12:User/BSP/Power_switch.c **** #include "Power_switch.h"
  13:User/BSP/Power_switch.c **** 
  14:User/BSP/Power_switch.c **** /**
  15:User/BSP/Power_switch.c ****  * @brief 设置电源状态
  16:User/BSP/Power_switch.c ****  *
  17:User/BSP/Power_switch.c ****  * @param power which power you want to set
  18:User/BSP/Power_switch.c ****  * @param status the status you want the power be
  19:User/BSP/Power_switch.c ****  */
  20:User/BSP/Power_switch.c **** void Power_set(powertyp power, GPIO_PinState status)
  21:User/BSP/Power_switch.c **** {
  28              		.loc 1 21 1
  29              		.cfi_startproc
  30              		@ args = 0, pretend = 0, frame = 8
  31              		@ frame_needed = 1, uses_anonymous_args = 0
  32 0000 80B5     		push	{r7, lr}
  33              	.LCFI0:
  34              		.cfi_def_cfa_offset 8
  35              		.cfi_offset 7, -8
  36              		.cfi_offset 14, -4
  37 0002 82B0     		sub	sp, sp, #8
ARM GAS  C:\Users\23671\AppData\Local\Temp\ccxPu3e0.s 			page 2


  38              	.LCFI1:
  39              		.cfi_def_cfa_offset 16
  40 0004 00AF     		add	r7, sp, #0
  41              	.LCFI2:
  42              		.cfi_def_cfa_register 7
  43 0006 0346     		mov	r3, r0
  44 0008 0A46     		mov	r2, r1
  45 000a FB71     		strb	r3, [r7, #7]
  46 000c 1346     		mov	r3, r2
  47 000e BB71     		strb	r3, [r7, #6]
  22:User/BSP/Power_switch.c ****     if (power == power1)
  48              		.loc 1 22 8
  49 0010 FB79     		ldrb	r3, [r7, #7]	@ zero_extendqisi2
  50 0012 002B     		cmp	r3, #0
  51 0014 07D1     		bne	.L2
  23:User/BSP/Power_switch.c ****         HAL_GPIO_WritePin(Power_OUT1_GPIO_Port, Power_OUT1_Pin, status);
  52              		.loc 1 23 9
  53 0016 BB79     		ldrb	r3, [r7, #6]	@ zero_extendqisi2
  54 0018 1A46     		mov	r2, r3
  55 001a 4FF48041 		mov	r1, #16384
  56 001e 0948     		ldr	r0, .L5
  57 0020 FFF7FEFF 		bl	HAL_GPIO_WritePin
  24:User/BSP/Power_switch.c ****     else if (power == power2)
  25:User/BSP/Power_switch.c ****         HAL_GPIO_WritePin(Power_OUT2_GPIO_Port, Power_OUT2_Pin, status);
  26:User/BSP/Power_switch.c **** }
  58              		.loc 1 26 1
  59 0024 09E0     		b	.L4
  60              	.L2:
  24:User/BSP/Power_switch.c ****     else if (power == power2)
  61              		.loc 1 24 13
  62 0026 FB79     		ldrb	r3, [r7, #7]	@ zero_extendqisi2
  63 0028 012B     		cmp	r3, #1
  64 002a 06D1     		bne	.L4
  25:User/BSP/Power_switch.c **** }
  65              		.loc 1 25 9
  66 002c BB79     		ldrb	r3, [r7, #6]	@ zero_extendqisi2
  67 002e 1A46     		mov	r2, r3
  68 0030 4FF40051 		mov	r1, #8192
  69 0034 0348     		ldr	r0, .L5
  70 0036 FFF7FEFF 		bl	HAL_GPIO_WritePin
  71              	.L4:
  72              		.loc 1 26 1
  73 003a 00BF     		nop
  74 003c 0837     		adds	r7, r7, #8
  75              	.LCFI3:
  76              		.cfi_def_cfa_offset 8
  77 003e BD46     		mov	sp, r7
  78              	.LCFI4:
  79              		.cfi_def_cfa_register 13
  80              		@ sp needed
  81 0040 80BD     		pop	{r7, pc}
  82              	.L6:
  83 0042 00BF     		.align	2
  84              	.L5:
  85 0044 00080258 		.word	1476528128
  86              		.cfi_endproc
  87              	.LFE144:
ARM GAS  C:\Users\23671\AppData\Local\Temp\ccxPu3e0.s 			page 3


  89              		.section	.text.Power_Turn_off,"ax",%progbits
  90              		.align	1
  91              		.global	Power_Turn_off
  92              		.syntax unified
  93              		.thumb
  94              		.thumb_func
  96              	Power_Turn_off:
  97              	.LFB145:
  27:User/BSP/Power_switch.c **** 
  28:User/BSP/Power_switch.c **** /**
  29:User/BSP/Power_switch.c ****  * @brief 关闭电源
  30:User/BSP/Power_switch.c ****  * 
  31:User/BSP/Power_switch.c ****  * @param power the power you want to turn_off
  32:User/BSP/Power_switch.c ****  */
  33:User/BSP/Power_switch.c **** void Power_Turn_off(powertyp power)
  34:User/BSP/Power_switch.c **** {
  98              		.loc 1 34 1
  99              		.cfi_startproc
 100              		@ args = 0, pretend = 0, frame = 8
 101              		@ frame_needed = 1, uses_anonymous_args = 0
 102 0000 80B5     		push	{r7, lr}
 103              	.LCFI5:
 104              		.cfi_def_cfa_offset 8
 105              		.cfi_offset 7, -8
 106              		.cfi_offset 14, -4
 107 0002 82B0     		sub	sp, sp, #8
 108              	.LCFI6:
 109              		.cfi_def_cfa_offset 16
 110 0004 00AF     		add	r7, sp, #0
 111              	.LCFI7:
 112              		.cfi_def_cfa_register 7
 113 0006 0346     		mov	r3, r0
 114 0008 FB71     		strb	r3, [r7, #7]
  35:User/BSP/Power_switch.c ****     if (power == power1)
 115              		.loc 1 35 8
 116 000a FB79     		ldrb	r3, [r7, #7]	@ zero_extendqisi2
 117 000c 002B     		cmp	r3, #0
 118 000e 06D1     		bne	.L8
  36:User/BSP/Power_switch.c ****         HAL_GPIO_WritePin(Power_OUT1_GPIO_Port, Power_OUT1_Pin, RESET);
 119              		.loc 1 36 9
 120 0010 0022     		movs	r2, #0
 121 0012 4FF48041 		mov	r1, #16384
 122 0016 0848     		ldr	r0, .L11
 123 0018 FFF7FEFF 		bl	HAL_GPIO_WritePin
  37:User/BSP/Power_switch.c ****     else if (power == power2)
  38:User/BSP/Power_switch.c ****         HAL_GPIO_WritePin(Power_OUT2_GPIO_Port, Power_OUT2_Pin, RESET);
  39:User/BSP/Power_switch.c **** }
 124              		.loc 1 39 1
 125 001c 08E0     		b	.L10
 126              	.L8:
  37:User/BSP/Power_switch.c ****     else if (power == power2)
 127              		.loc 1 37 13
 128 001e FB79     		ldrb	r3, [r7, #7]	@ zero_extendqisi2
 129 0020 012B     		cmp	r3, #1
 130 0022 05D1     		bne	.L10
  38:User/BSP/Power_switch.c **** }
 131              		.loc 1 38 9
ARM GAS  C:\Users\23671\AppData\Local\Temp\ccxPu3e0.s 			page 4


 132 0024 0022     		movs	r2, #0
 133 0026 4FF40051 		mov	r1, #8192
 134 002a 0348     		ldr	r0, .L11
 135 002c FFF7FEFF 		bl	HAL_GPIO_WritePin
 136              	.L10:
 137              		.loc 1 39 1
 138 0030 00BF     		nop
 139 0032 0837     		adds	r7, r7, #8
 140              	.LCFI8:
 141              		.cfi_def_cfa_offset 8
 142 0034 BD46     		mov	sp, r7
 143              	.LCFI9:
 144              		.cfi_def_cfa_register 13
 145              		@ sp needed
 146 0036 80BD     		pop	{r7, pc}
 147              	.L12:
 148              		.align	2
 149              	.L11:
 150 0038 00080258 		.word	1476528128
 151              		.cfi_endproc
 152              	.LFE145:
 154              		.section	.text.Power_Turn_on,"ax",%progbits
 155              		.align	1
 156              		.global	Power_Turn_on
 157              		.syntax unified
 158              		.thumb
 159              		.thumb_func
 161              	Power_Turn_on:
 162              	.LFB146:
  40:User/BSP/Power_switch.c **** 
  41:User/BSP/Power_switch.c **** /**
  42:User/BSP/Power_switch.c ****  * @brief 打开电源
  43:User/BSP/Power_switch.c ****  * 
  44:User/BSP/Power_switch.c ****  * @param power the power you want to turn-on
  45:User/BSP/Power_switch.c ****  */
  46:User/BSP/Power_switch.c **** void Power_Turn_on(powertyp power)
  47:User/BSP/Power_switch.c **** {
 163              		.loc 1 47 1
 164              		.cfi_startproc
 165              		@ args = 0, pretend = 0, frame = 8
 166              		@ frame_needed = 1, uses_anonymous_args = 0
 167 0000 80B5     		push	{r7, lr}
 168              	.LCFI10:
 169              		.cfi_def_cfa_offset 8
 170              		.cfi_offset 7, -8
 171              		.cfi_offset 14, -4
 172 0002 82B0     		sub	sp, sp, #8
 173              	.LCFI11:
 174              		.cfi_def_cfa_offset 16
 175 0004 00AF     		add	r7, sp, #0
 176              	.LCFI12:
 177              		.cfi_def_cfa_register 7
 178 0006 0346     		mov	r3, r0
 179 0008 FB71     		strb	r3, [r7, #7]
  48:User/BSP/Power_switch.c ****     if (power == power1)
 180              		.loc 1 48 8
 181 000a FB79     		ldrb	r3, [r7, #7]	@ zero_extendqisi2
ARM GAS  C:\Users\23671\AppData\Local\Temp\ccxPu3e0.s 			page 5


 182 000c 002B     		cmp	r3, #0
 183 000e 06D1     		bne	.L14
  49:User/BSP/Power_switch.c ****         HAL_GPIO_WritePin(Power_OUT1_GPIO_Port, Power_OUT1_Pin, SET);
 184              		.loc 1 49 9
 185 0010 0122     		movs	r2, #1
 186 0012 4FF48041 		mov	r1, #16384
 187 0016 0848     		ldr	r0, .L17
 188 0018 FFF7FEFF 		bl	HAL_GPIO_WritePin
  50:User/BSP/Power_switch.c ****     else if (power == power2)
  51:User/BSP/Power_switch.c ****         HAL_GPIO_WritePin(Power_OUT2_GPIO_Port, Power_OUT2_Pin, SET);
  52:User/BSP/Power_switch.c **** }
 189              		.loc 1 52 1
 190 001c 08E0     		b	.L16
 191              	.L14:
  50:User/BSP/Power_switch.c ****     else if (power == power2)
 192              		.loc 1 50 13
 193 001e FB79     		ldrb	r3, [r7, #7]	@ zero_extendqisi2
 194 0020 012B     		cmp	r3, #1
 195 0022 05D1     		bne	.L16
  51:User/BSP/Power_switch.c **** }
 196              		.loc 1 51 9
 197 0024 0122     		movs	r2, #1
 198 0026 4FF40051 		mov	r1, #8192
 199 002a 0348     		ldr	r0, .L17
 200 002c FFF7FEFF 		bl	HAL_GPIO_WritePin
 201              	.L16:
 202              		.loc 1 52 1
 203 0030 00BF     		nop
 204 0032 0837     		adds	r7, r7, #8
 205              	.LCFI13:
 206              		.cfi_def_cfa_offset 8
 207 0034 BD46     		mov	sp, r7
 208              	.LCFI14:
 209              		.cfi_def_cfa_register 13
 210              		@ sp needed
 211 0036 80BD     		pop	{r7, pc}
 212              	.L18:
 213              		.align	2
 214              	.L17:
 215 0038 00080258 		.word	1476528128
 216              		.cfi_endproc
 217              	.LFE146:
 219              		.text
 220              	.Letext0:
 221              		.file 2 "D:/MSYS2/mingw64/arm-none-eabi/include/machine/_default_types.h"
 222              		.file 3 "D:/MSYS2/mingw64/arm-none-eabi/include/sys/_stdint.h"
 223              		.file 4 "Drivers/CMSIS/Device/ST/STM32H7xx/Include/stm32h723xx.h"
 224              		.file 5 "Drivers/CMSIS/Device/ST/STM32H7xx/Include/stm32h7xx.h"
 225              		.file 6 "Drivers/STM32H7xx_HAL_Driver/Inc/stm32h7xx_hal_gpio.h"
 226              		.file 7 "User/BSP/Power_switch.h"
ARM GAS  C:\Users\23671\AppData\Local\Temp\ccxPu3e0.s 			page 6

