ARM GAS  C:\Users\23671\AppData\Local\Temp\cctd05Gk.s 			page 1


   1              		.cpu cortex-m7
   2              		.arch armv7e-m
   3              		.fpu fpv5-d16
   4              		.eabi_attribute 28, 1
   5              		.eabi_attribute 20, 1
   6              		.eabi_attribute 21, 1
   7              		.eabi_attribute 23, 3
   8              		.eabi_attribute 24, 1
   9              		.eabi_attribute 25, 1
  10              		.eabi_attribute 26, 1
  11              		.eabi_attribute 30, 6
  12              		.eabi_attribute 34, 1
  13              		.eabi_attribute 18, 4
  14              		.file	"remote_control.c"
  15              		.text
  16              	.Ltext0:
  17              		.cfi_sections	.debug_frame
  18              		.file 1 "User/Software/remote_control.c"
  19              		.global	RC_data
  20              		.section	.bss.RC_data,"aw",%nobits
  21              		.align	2
  24              	RC_data:
  25 0000 00000000 		.space	68
  25      00000000 
  25      00000000 
  25      00000000 
  25      00000000 
  26              		.global	wait_time
  27              		.section	.bss.wait_time,"aw",%nobits
  28              		.align	2
  31              	wait_time:
  32 0000 00000000 		.space	40
  32      00000000 
  32      00000000 
  32      00000000 
  32      00000000 
  33              		.section	.text.Wait,"ax",%progbits
  34              		.align	1
  35              		.global	Wait
  36              		.syntax unified
  37              		.thumb
  38              		.thumb_func
  40              	Wait:
  41              	.LFB147:
   1:User/Software/remote_control.c **** #include "remote_control.h"
   2:User/Software/remote_control.c **** #include "Global_status.h"
   3:User/Software/remote_control.c **** #include "Chassis.h"
   4:User/Software/remote_control.c **** #include "Gimbal.h"
   5:User/Software/remote_control.c **** #include "ui.h"
   6:User/Software/remote_control.c **** #include "ramp_generator.h"
   7:User/Software/remote_control.c **** 
   8:User/Software/remote_control.c **** #include "DT7.h"
   9:User/Software/remote_control.c **** 
  10:User/Software/remote_control.c **** #include "Stm32_time.h"
  11:User/Software/remote_control.c **** 
  12:User/Software/remote_control.c **** RC_ctrl_t RC_data;
  13:User/Software/remote_control.c **** 
ARM GAS  C:\Users\23671\AppData\Local\Temp\cctd05Gk.s 			page 2


  14:User/Software/remote_control.c **** int16_t wait_time[SIZE_OF_WAIT] = {0}; // 键盘消抖用时间
  15:User/Software/remote_control.c **** 
  16:User/Software/remote_control.c **** #define MOVE_SENSITIVITY 10.0f   // 移动灵敏度，
  17:User/Software/remote_control.c **** #define PITCH_SENSITIVITY 0.008f // pitch轴灵敏度
  18:User/Software/remote_control.c **** #define YAW_SENSITIVITY 0.005f   // yaw轴灵敏度
  19:User/Software/remote_control.c **** 
  20:User/Software/remote_control.c **** /**
  21:User/Software/remote_control.c ****  * @brief 统一消抖
  22:User/Software/remote_control.c ****  *
  23:User/Software/remote_control.c ****  * @param key 按键宏
  24:User/Software/remote_control.c ****  * @return uint8_t 0未到时间，1到时间
  25:User/Software/remote_control.c ****  */
  26:User/Software/remote_control.c **** uint8_t Wait(uint8_t key)
  27:User/Software/remote_control.c **** {
  42              		.loc 1 27 1
  43              		.cfi_startproc
  44              		@ args = 0, pretend = 0, frame = 8
  45              		@ frame_needed = 1, uses_anonymous_args = 0
  46              		@ link register save eliminated.
  47 0000 80B4     		push	{r7}
  48              	.LCFI0:
  49              		.cfi_def_cfa_offset 4
  50              		.cfi_offset 7, -4
  51 0002 83B0     		sub	sp, sp, #12
  52              	.LCFI1:
  53              		.cfi_def_cfa_offset 16
  54 0004 00AF     		add	r7, sp, #0
  55              	.LCFI2:
  56              		.cfi_def_cfa_register 7
  57 0006 0346     		mov	r3, r0
  58 0008 FB71     		strb	r3, [r7, #7]
  28:User/Software/remote_control.c ****     if (wait_time[key] > 0)
  59              		.loc 1 28 18
  60 000a FB79     		ldrb	r3, [r7, #7]	@ zero_extendqisi2
  61 000c 0E4A     		ldr	r2, .L4
  62 000e 32F91330 		ldrsh	r3, [r2, r3, lsl #1]
  63              		.loc 1 28 8
  64 0012 002B     		cmp	r3, #0
  65 0014 0CDD     		ble	.L2
  29:User/Software/remote_control.c ****     {
  30:User/Software/remote_control.c ****         wait_time[key]--;
  66              		.loc 1 30 18
  67 0016 FB79     		ldrb	r3, [r7, #7]	@ zero_extendqisi2
  68 0018 0B4A     		ldr	r2, .L4
  69 001a 32F91320 		ldrsh	r2, [r2, r3, lsl #1]
  70              		.loc 1 30 23
  71 001e 92B2     		uxth	r2, r2
  72 0020 013A     		subs	r2, r2, #1
  73 0022 92B2     		uxth	r2, r2
  74 0024 11B2     		sxth	r1, r2
  75 0026 084A     		ldr	r2, .L4
  76 0028 22F81310 		strh	r1, [r2, r3, lsl #1]	@ movhi
  31:User/Software/remote_control.c ****         return 0;
  77              		.loc 1 31 16
  78 002c 0023     		movs	r3, #0
  79 002e 05E0     		b	.L3
  80              	.L2:
ARM GAS  C:\Users\23671\AppData\Local\Temp\cctd05Gk.s 			page 3


  32:User/Software/remote_control.c ****     }
  33:User/Software/remote_control.c ****     else
  34:User/Software/remote_control.c ****     {
  35:User/Software/remote_control.c ****         wait_time[key] = 200;
  81              		.loc 1 35 18
  82 0030 FB79     		ldrb	r3, [r7, #7]	@ zero_extendqisi2
  83              		.loc 1 35 24
  84 0032 054A     		ldr	r2, .L4
  85 0034 C821     		movs	r1, #200
  86 0036 22F81310 		strh	r1, [r2, r3, lsl #1]	@ movhi
  36:User/Software/remote_control.c ****         return 1;
  87              		.loc 1 36 16
  88 003a 0123     		movs	r3, #1
  89              	.L3:
  37:User/Software/remote_control.c ****     }
  38:User/Software/remote_control.c **** }
  90              		.loc 1 38 1
  91 003c 1846     		mov	r0, r3
  92 003e 0C37     		adds	r7, r7, #12
  93              	.LCFI3:
  94              		.cfi_def_cfa_offset 4
  95 0040 BD46     		mov	sp, r7
  96              	.LCFI4:
  97              		.cfi_def_cfa_register 13
  98              		@ sp needed
  99 0042 5DF8047B 		ldr	r7, [sp], #4
 100              	.LCFI5:
 101              		.cfi_restore 7
 102              		.cfi_def_cfa_offset 0
 103 0046 7047     		bx	lr
 104              	.L5:
 105              		.align	2
 106              	.L4:
 107 0048 00000000 		.word	wait_time
 108              		.cfi_endproc
 109              	.LFE147:
 111              		.section	.text.DT7toRCdata,"ax",%progbits
 112              		.align	1
 113              		.global	DT7toRCdata
 114              		.syntax unified
 115              		.thumb
 116              		.thumb_func
 118              	DT7toRCdata:
 119              	.LFB148:
  39:User/Software/remote_control.c **** /**
  40:User/Software/remote_control.c ****  * @brief 遥控数据来源于DT7遥控器
  41:User/Software/remote_control.c ****  *
  42:User/Software/remote_control.c ****  */
  43:User/Software/remote_control.c **** void DT7toRCdata()//
  44:User/Software/remote_control.c **** {
 120              		.loc 1 44 1
 121              		.cfi_startproc
 122              		@ args = 0, pretend = 0, frame = 0
 123              		@ frame_needed = 1, uses_anonymous_args = 0
 124              		@ link register save eliminated.
 125 0000 80B4     		push	{r7}
 126              	.LCFI6:
ARM GAS  C:\Users\23671\AppData\Local\Temp\cctd05Gk.s 			page 4


 127              		.cfi_def_cfa_offset 4
 128              		.cfi_offset 7, -4
 129 0002 00AF     		add	r7, sp, #0
 130              	.LCFI7:
 131              		.cfi_def_cfa_register 7
  45:User/Software/remote_control.c ****     /*遥控器数据*/
  46:User/Software/remote_control.c ****     RC_data.rc.ch[0] = DT7_data.rc.ch[0];
 132              		.loc 1 46 38
 133 0004 344B     		ldr	r3, .L7
 134 0006 B3F90030 		ldrsh	r3, [r3]	@ unaligned
 135 000a 1BB2     		sxth	r3, r3
 136 000c 9AB2     		uxth	r2, r3
 137              		.loc 1 46 22
 138 000e 334B     		ldr	r3, .L7+4
 139 0010 1A80     		strh	r2, [r3]	@ movhi
  47:User/Software/remote_control.c ****     RC_data.rc.ch[1] = SBUS_CH.CH1;
 140              		.loc 1 47 31
 141 0012 334B     		ldr	r3, .L7+8
 142 0014 1A88     		ldrh	r2, [r3]
 143              		.loc 1 47 22
 144 0016 314B     		ldr	r3, .L7+4
 145 0018 5A80     		strh	r2, [r3, #2]	@ movhi
  48:User/Software/remote_control.c ****     RC_data.rc.ch[2] = SBUS_CH.CH2;
 146              		.loc 1 48 31
 147 001a 314B     		ldr	r3, .L7+8
 148 001c 5A88     		ldrh	r2, [r3, #2]
 149              		.loc 1 48 22
 150 001e 2F4B     		ldr	r3, .L7+4
 151 0020 9A80     		strh	r2, [r3, #4]	@ movhi
  49:User/Software/remote_control.c ****     RC_data.rc.ch[3] = SBUS_CH.CH3;
 152              		.loc 1 49 31
 153 0022 2F4B     		ldr	r3, .L7+8
 154 0024 9A88     		ldrh	r2, [r3, #4]
 155              		.loc 1 49 22
 156 0026 2D4B     		ldr	r3, .L7+4
 157 0028 DA80     		strh	r2, [r3, #6]	@ movhi
  50:User/Software/remote_control.c ****     RC_data.rc.ch[4] = SBUS_CH.CH4;
 158              		.loc 1 50 31
 159 002a 2D4B     		ldr	r3, .L7+8
 160 002c DA88     		ldrh	r2, [r3, #6]
 161              		.loc 1 50 22
 162 002e 2B4B     		ldr	r3, .L7+4
 163 0030 1A81     		strh	r2, [r3, #8]	@ movhi
  51:User/Software/remote_control.c ****     RC_data.rc.s[0] = DT7_data.rc.s[0];
 164              		.loc 1 51 36
 165 0032 294B     		ldr	r3, .L7
 166 0034 9B7A     		ldrb	r3, [r3, #10]	@ zero_extendqisi2
 167 0036 1AB2     		sxth	r2, r3
 168              		.loc 1 51 21
 169 0038 284B     		ldr	r3, .L7+4
 170 003a 5A81     		strh	r2, [r3, #10]	@ movhi
  52:User/Software/remote_control.c ****     RC_data.rc.s[1] = SBUS_CH.CH5;
 171              		.loc 1 52 30
 172 003c 284B     		ldr	r3, .L7+8
 173 003e 1B89     		ldrh	r3, [r3, #8]
 174 0040 1AB2     		sxth	r2, r3
 175              		.loc 1 52 21
ARM GAS  C:\Users\23671\AppData\Local\Temp\cctd05Gk.s 			page 5


 176 0042 264B     		ldr	r3, .L7+4
 177 0044 9A81     		strh	r2, [r3, #12]	@ movhi
  53:User/Software/remote_control.c ****     RC_data.rc.s[2] = SBUS_CH.CH6;
 178              		.loc 1 53 30
 179 0046 264B     		ldr	r3, .L7+8
 180 0048 5B89     		ldrh	r3, [r3, #10]
 181 004a 1AB2     		sxth	r2, r3
 182              		.loc 1 53 21
 183 004c 234B     		ldr	r3, .L7+4
 184 004e DA81     		strh	r2, [r3, #14]	@ movhi
  54:User/Software/remote_control.c ****     RC_data.rc.s[3] = SBUS_CH.CH7;
 185              		.loc 1 54 30
 186 0050 234B     		ldr	r3, .L7+8
 187 0052 9B89     		ldrh	r3, [r3, #12]
 188 0054 1AB2     		sxth	r2, r3
 189              		.loc 1 54 21
 190 0056 214B     		ldr	r3, .L7+4
 191 0058 1A82     		strh	r2, [r3, #16]	@ movhi
  55:User/Software/remote_control.c ****     RC_data.rc.s[4] = SBUS_CH.CH8;
 192              		.loc 1 55 30
 193 005a 214B     		ldr	r3, .L7+8
 194 005c DB89     		ldrh	r3, [r3, #14]
 195 005e 1AB2     		sxth	r2, r3
 196              		.loc 1 55 21
 197 0060 1E4B     		ldr	r3, .L7+4
 198 0062 5A82     		strh	r2, [r3, #18]	@ movhi
  56:User/Software/remote_control.c ****     RC_data.rc.s[5] = SBUS_CH.CH9;
 199              		.loc 1 56 30
 200 0064 1E4B     		ldr	r3, .L7+8
 201 0066 1B8A     		ldrh	r3, [r3, #16]
 202 0068 1AB2     		sxth	r2, r3
 203              		.loc 1 56 21
 204 006a 1C4B     		ldr	r3, .L7+4
 205 006c 9A82     		strh	r2, [r3, #20]	@ movhi
  57:User/Software/remote_control.c ****     RC_data.rc.s[6] = SBUS_CH.CH10;
 206              		.loc 1 57 30
 207 006e 1C4B     		ldr	r3, .L7+8
 208 0070 5B8A     		ldrh	r3, [r3, #18]
 209 0072 1AB2     		sxth	r2, r3
 210              		.loc 1 57 21
 211 0074 194B     		ldr	r3, .L7+4
 212 0076 DA82     		strh	r2, [r3, #22]	@ movhi
  58:User/Software/remote_control.c ****     RC_data.rc.s[7] = SBUS_CH.CH11;
 213              		.loc 1 58 30
 214 0078 194B     		ldr	r3, .L7+8
 215 007a 9B8A     		ldrh	r3, [r3, #20]
 216 007c 1AB2     		sxth	r2, r3
 217              		.loc 1 58 21
 218 007e 174B     		ldr	r3, .L7+4
 219 0080 1A83     		strh	r2, [r3, #24]	@ movhi
  59:User/Software/remote_control.c ****     RC_data.rc.s[8] = SBUS_CH.CH12;
 220              		.loc 1 59 30
 221 0082 174B     		ldr	r3, .L7+8
 222 0084 DB8A     		ldrh	r3, [r3, #22]
 223 0086 1AB2     		sxth	r2, r3
 224              		.loc 1 59 21
 225 0088 144B     		ldr	r3, .L7+4
ARM GAS  C:\Users\23671\AppData\Local\Temp\cctd05Gk.s 			page 6


 226 008a 5A83     		strh	r2, [r3, #26]	@ movhi
  60:User/Software/remote_control.c ****     /*键鼠数据 */
  61:User/Software/remote_control.c ****     RC_data.key.v = DT7_data.key.v;
 227              		.loc 1 61 33
 228 008c 124B     		ldr	r3, .L7
 229 008e 9B8A     		ldrh	r3, [r3, #20]	@ unaligned
 230 0090 9AB2     		uxth	r2, r3
 231              		.loc 1 61 19
 232 0092 124B     		ldr	r3, .L7+4
 233 0094 9A84     		strh	r2, [r3, #36]	@ movhi
  62:User/Software/remote_control.c ****     RC_data.mouse.x = DT7_data.mouse.x;
 234              		.loc 1 62 37
 235 0096 104B     		ldr	r3, .L7
 236 0098 B3F90C30 		ldrsh	r3, [r3, #12]	@ unaligned
 237 009c 1AB2     		sxth	r2, r3
 238              		.loc 1 62 21
 239 009e 0F4B     		ldr	r3, .L7+4
 240 00a0 9A83     		strh	r2, [r3, #28]	@ movhi
  63:User/Software/remote_control.c ****     RC_data.mouse.y = DT7_data.mouse.y;
 241              		.loc 1 63 37
 242 00a2 0D4B     		ldr	r3, .L7
 243 00a4 B3F90E30 		ldrsh	r3, [r3, #14]	@ unaligned
 244 00a8 1AB2     		sxth	r2, r3
 245              		.loc 1 63 21
 246 00aa 0C4B     		ldr	r3, .L7+4
 247 00ac DA83     		strh	r2, [r3, #30]	@ movhi
  64:User/Software/remote_control.c ****     RC_data.mouse.z = DT7_data.mouse.z;
 248              		.loc 1 64 37
 249 00ae 0A4B     		ldr	r3, .L7
 250 00b0 B3F91030 		ldrsh	r3, [r3, #16]	@ unaligned
 251 00b4 1AB2     		sxth	r2, r3
 252              		.loc 1 64 21
 253 00b6 094B     		ldr	r3, .L7+4
 254 00b8 1A84     		strh	r2, [r3, #32]	@ movhi
  65:User/Software/remote_control.c ****     RC_data.mouse.press_l = DT7_data.mouse.press_l;
 255              		.loc 1 65 43
 256 00ba 074B     		ldr	r3, .L7
 257 00bc 9A7C     		ldrb	r2, [r3, #18]	@ zero_extendqisi2
 258              		.loc 1 65 27
 259 00be 074B     		ldr	r3, .L7+4
 260 00c0 83F82220 		strb	r2, [r3, #34]
  66:User/Software/remote_control.c ****     RC_data.mouse.press_r = DT7_data.mouse.press_r;
 261              		.loc 1 66 43
 262 00c4 044B     		ldr	r3, .L7
 263 00c6 DA7C     		ldrb	r2, [r3, #19]	@ zero_extendqisi2
 264              		.loc 1 66 27
 265 00c8 044B     		ldr	r3, .L7+4
 266 00ca 83F82320 		strb	r2, [r3, #35]
  67:User/Software/remote_control.c **** }
 267              		.loc 1 67 1
 268 00ce 00BF     		nop
 269 00d0 BD46     		mov	sp, r7
 270              	.LCFI8:
 271              		.cfi_def_cfa_register 13
 272              		@ sp needed
 273 00d2 5DF8047B 		ldr	r7, [sp], #4
 274              	.LCFI9:
ARM GAS  C:\Users\23671\AppData\Local\Temp\cctd05Gk.s 			page 7


 275              		.cfi_restore 7
 276              		.cfi_def_cfa_offset 0
 277 00d6 7047     		bx	lr
 278              	.L8:
 279              		.align	2
 280              	.L7:
 281 00d8 00000000 		.word	DT7_data
 282 00dc 00000000 		.word	RC_data
 283 00e0 00000000 		.word	SBUS_CH
 284              		.cfi_endproc
 285              	.LFE148:
 287              		.section	.text.RC_control,"ax",%progbits
 288              		.align	1
 289              		.global	RC_control
 290              		.syntax unified
 291              		.thumb
 292              		.thumb_func
 294              	RC_control:
 295              	.LFB149:
  68:User/Software/remote_control.c **** 
  69:User/Software/remote_control.c **** 
  70:User/Software/remote_control.c **** /**
  71:User/Software/remote_control.c ****  * @brief 遥控器控制
  72:User/Software/remote_control.c ****  *
  73:User/Software/remote_control.c ****  */
  74:User/Software/remote_control.c **** void RC_control()
  75:User/Software/remote_control.c **** {
 296              		.loc 1 75 1
 297              		.cfi_startproc
 298              		@ args = 0, pretend = 0, frame = 0
 299              		@ frame_needed = 1, uses_anonymous_args = 0
 300 0000 80B5     		push	{r7, lr}
 301              	.LCFI10:
 302              		.cfi_def_cfa_offset 8
 303              		.cfi_offset 7, -8
 304              		.cfi_offset 14, -4
 305 0002 00AF     		add	r7, sp, #0
 306              	.LCFI11:
 307              		.cfi_def_cfa_register 7
  76:User/Software/remote_control.c ****     /*控制模式选择*/
  77:User/Software/remote_control.c ****     if (RC_data.rc.s[1]==RC_data.rc.s[2]==RC_data.rc.s[3]==RC_data.rc.s[4]==1695) // 左下右下，锁死
  78:User/Software/remote_control.c ****         Global.Control.mode = LOCK;
  79:User/Software/remote_control.c ****     else if (switch_is_up(RC_R_SW) && switch_is_up(RC_L_SW)) // 左上右上，键盘控制
 308              		.loc 1 79 14
 309 0004 1C4B     		ldr	r3, .L15
 310 0006 B3F90A30 		ldrsh	r3, [r3, #10]
 311              		.loc 1 79 13
 312 000a 012B     		cmp	r3, #1
 313 000c 09D1     		bne	.L10
 314              		.loc 1 79 39 discriminator 1
 315 000e 1A4B     		ldr	r3, .L15
 316 0010 B3F90C30 		ldrsh	r3, [r3, #12]
 317              		.loc 1 79 36 discriminator 1
 318 0014 012B     		cmp	r3, #1
 319 0016 04D1     		bne	.L10
  80:User/Software/remote_control.c ****         Global.Control.mode = KEY;
 320              		.loc 1 80 29
ARM GAS  C:\Users\23671\AppData\Local\Temp\cctd05Gk.s 			page 8


 321 0018 184B     		ldr	r3, .L15+4
 322 001a 0122     		movs	r2, #1
 323 001c 83F83920 		strb	r2, [r3, #57]
 324 0020 03E0     		b	.L11
 325              	.L10:
  81:User/Software/remote_control.c ****     else
  82:User/Software/remote_control.c ****         Global.Control.mode = RC;
 326              		.loc 1 82 29
 327 0022 164B     		ldr	r3, .L15+4
 328 0024 0022     		movs	r2, #0
 329 0026 83F83920 		strb	r2, [r3, #57]
 330              	.L11:
  83:User/Software/remote_control.c ****     if (Global.Control.mode != RC)
 331              		.loc 1 83 23
 332 002a 144B     		ldr	r3, .L15+4
 333 002c 93F83930 		ldrb	r3, [r3, #57]	@ zero_extendqisi2
 334              		.loc 1 83 8
 335 0030 002B     		cmp	r3, #0
 336 0032 1FD1     		bne	.L14
  84:User/Software/remote_control.c ****         return;
  85:User/Software/remote_control.c ****     /*底盘控制*/
  86:User/Software/remote_control.c ****     Global.Chssis.mode = FLOW;
 337              		.loc 1 86 24
 338 0034 114B     		ldr	r3, .L15+4
 339 0036 0022     		movs	r2, #0
 340 0038 1A70     		strb	r2, [r3]
  87:User/Software/remote_control.c ****     
  88:User/Software/remote_control.c ****     Chassis_set_x(RC_data.rc.ch[1] / 40.0f);
 341              		.loc 1 88 32
 342 003a 0F4B     		ldr	r3, .L15
 343 003c 5B88     		ldrh	r3, [r3, #2]
 344 003e 07EE903A 		vmov	s15, r3	@ int
 345              		.loc 1 88 5
 346 0042 F8EEE77A 		vcvt.f32.s32	s15, s15
 347 0046 DFED0E6A 		vldr.32	s13, .L15+8
 348 004a 87EEA67A 		vdiv.f32	s14, s15, s13
 349 004e B0EE470A 		vmov.f32	s0, s14
 350 0052 FFF7FEFF 		bl	Chassis_set_x
  89:User/Software/remote_control.c ****     Chassis_set_y(RC_data.rc.ch[2] / 40.0f);
 351              		.loc 1 89 32
 352 0056 084B     		ldr	r3, .L15
 353 0058 9B88     		ldrh	r3, [r3, #4]
 354 005a 07EE903A 		vmov	s15, r3	@ int
 355              		.loc 1 89 5
 356 005e F8EEE77A 		vcvt.f32.s32	s15, s15
 357 0062 DFED076A 		vldr.32	s13, .L15+8
 358 0066 87EEA67A 		vdiv.f32	s14, s15, s13
 359 006a B0EE470A 		vmov.f32	s0, s14
 360 006e FFF7FEFF 		bl	Chassis_set_y
 361 0072 00E0     		b	.L9
 362              	.L14:
  84:User/Software/remote_control.c ****         return;
 363              		.loc 1 84 9
 364 0074 00BF     		nop
 365              	.L9:
  90:User/Software/remote_control.c **** 
  91:User/Software/remote_control.c ****  
ARM GAS  C:\Users\23671\AppData\Local\Temp\cctd05Gk.s 			page 9


  92:User/Software/remote_control.c **** 
  93:User/Software/remote_control.c **** 
  94:User/Software/remote_control.c **** }
 366              		.loc 1 94 1
 367 0076 80BD     		pop	{r7, pc}
 368              	.L16:
 369              		.align	2
 370              	.L15:
 371 0078 00000000 		.word	RC_data
 372 007c 00000000 		.word	Global
 373 0080 00002042 		.word	1109393408
 374              		.cfi_endproc
 375              	.LFE149:
 377              		.section	.text.Keyboard_mouse_control,"ax",%progbits
 378              		.align	1
 379              		.global	Keyboard_mouse_control
 380              		.syntax unified
 381              		.thumb
 382              		.thumb_func
 384              	Keyboard_mouse_control:
 385              	.LFB150:
  95:User/Software/remote_control.c **** //
  96:User/Software/remote_control.c **** void Keyboard_mouse_control(void)
  97:User/Software/remote_control.c **** {
 386              		.loc 1 97 1
 387              		.cfi_startproc
 388              		@ args = 0, pretend = 0, frame = 0
 389              		@ frame_needed = 1, uses_anonymous_args = 0
 390 0000 80B5     		push	{r7, lr}
 391              	.LCFI12:
 392              		.cfi_def_cfa_offset 8
 393              		.cfi_offset 7, -8
 394              		.cfi_offset 14, -4
 395 0002 00AF     		add	r7, sp, #0
 396              	.LCFI13:
 397              		.cfi_def_cfa_register 7
  98:User/Software/remote_control.c ****     if (Global.Control.mode != KEY)
 398              		.loc 1 98 23
 399 0004 854B     		ldr	r3, .L39
 400 0006 93F83930 		ldrb	r3, [r3, #57]	@ zero_extendqisi2
 401              		.loc 1 98 8
 402 000a 012B     		cmp	r3, #1
 403 000c 40F00381 		bne	.L38
  99:User/Software/remote_control.c ****         return;
 100:User/Software/remote_control.c ****     /*底盘控制*/
 101:User/Software/remote_control.c ****     if (IF_KEY_PRESSED_W)
 404              		.loc 1 101 9
 405 0010 834B     		ldr	r3, .L39+4
 406 0012 9B8C     		ldrh	r3, [r3, #36]
 407 0014 03F00103 		and	r3, r3, #1
 408              		.loc 1 101 8
 409 0018 002B     		cmp	r3, #0
 410 001a 03D0     		beq	.L20
 102:User/Software/remote_control.c ****         Chassis_set_y(5.0);
 411              		.loc 1 102 9
 412 001c B1EE040A 		vmov.f32	s0, #5.0e+0
 413 0020 FFF7FEFF 		bl	Chassis_set_y
ARM GAS  C:\Users\23671\AppData\Local\Temp\cctd05Gk.s 			page 10


 414              	.L20:
 103:User/Software/remote_control.c ****     if (IF_KEY_PRESSED_S)
 415              		.loc 1 103 9
 416 0024 7E4B     		ldr	r3, .L39+4
 417 0026 9B8C     		ldrh	r3, [r3, #36]
 418 0028 03F00203 		and	r3, r3, #2
 419              		.loc 1 103 8
 420 002c 002B     		cmp	r3, #0
 421 002e 03D0     		beq	.L21
 104:User/Software/remote_control.c ****         Chassis_set_y(-5.0);
 422              		.loc 1 104 9
 423 0030 B9EE040A 		vmov.f32	s0, #-5.0e+0
 424 0034 FFF7FEFF 		bl	Chassis_set_y
 425              	.L21:
 105:User/Software/remote_control.c ****     if (IF_KEY_PRESSED_D)
 426              		.loc 1 105 9
 427 0038 794B     		ldr	r3, .L39+4
 428 003a 9B8C     		ldrh	r3, [r3, #36]
 429 003c 03F00803 		and	r3, r3, #8
 430              		.loc 1 105 8
 431 0040 002B     		cmp	r3, #0
 432 0042 03D0     		beq	.L22
 106:User/Software/remote_control.c ****         Chassis_set_x(5.0);
 433              		.loc 1 106 9
 434 0044 B1EE040A 		vmov.f32	s0, #5.0e+0
 435 0048 FFF7FEFF 		bl	Chassis_set_x
 436              	.L22:
 107:User/Software/remote_control.c ****     if (IF_KEY_PRESSED_A)
 437              		.loc 1 107 9
 438 004c 744B     		ldr	r3, .L39+4
 439 004e 9B8C     		ldrh	r3, [r3, #36]
 440 0050 03F00403 		and	r3, r3, #4
 441              		.loc 1 107 8
 442 0054 002B     		cmp	r3, #0
 443 0056 03D0     		beq	.L23
 108:User/Software/remote_control.c ****         Chassis_set_x(-5.0);
 444              		.loc 1 108 9
 445 0058 B9EE040A 		vmov.f32	s0, #-5.0e+0
 446 005c FFF7FEFF 		bl	Chassis_set_x
 447              	.L23:
 109:User/Software/remote_control.c ****     if (!IF_KEY_PRESSED_W && !IF_KEY_PRESSED_S)
 448              		.loc 1 109 10
 449 0060 6F4B     		ldr	r3, .L39+4
 450 0062 9B8C     		ldrh	r3, [r3, #36]
 451 0064 03F00103 		and	r3, r3, #1
 452              		.loc 1 109 8
 453 0068 002B     		cmp	r3, #0
 454 006a 09D1     		bne	.L24
 455              		.loc 1 109 31 discriminator 1
 456 006c 6C4B     		ldr	r3, .L39+4
 457 006e 9B8C     		ldrh	r3, [r3, #36]
 458 0070 03F00203 		and	r3, r3, #2
 459              		.loc 1 109 27 discriminator 1
 460 0074 002B     		cmp	r3, #0
 461 0076 03D1     		bne	.L24
 110:User/Software/remote_control.c ****         Chassis_set_y(0);
 462              		.loc 1 110 9
ARM GAS  C:\Users\23671\AppData\Local\Temp\cctd05Gk.s 			page 11


 463 0078 9FED6A0A 		vldr.32	s0, .L39+8
 464 007c FFF7FEFF 		bl	Chassis_set_y
 465              	.L24:
 111:User/Software/remote_control.c ****     if (!IF_KEY_PRESSED_A && !IF_KEY_PRESSED_D)
 466              		.loc 1 111 10
 467 0080 674B     		ldr	r3, .L39+4
 468 0082 9B8C     		ldrh	r3, [r3, #36]
 469 0084 03F00403 		and	r3, r3, #4
 470              		.loc 1 111 8
 471 0088 002B     		cmp	r3, #0
 472 008a 09D1     		bne	.L25
 473              		.loc 1 111 31 discriminator 1
 474 008c 644B     		ldr	r3, .L39+4
 475 008e 9B8C     		ldrh	r3, [r3, #36]
 476 0090 03F00803 		and	r3, r3, #8
 477              		.loc 1 111 27 discriminator 1
 478 0094 002B     		cmp	r3, #0
 479 0096 03D1     		bne	.L25
 112:User/Software/remote_control.c ****         Chassis_set_x(0);
 480              		.loc 1 112 9
 481 0098 9FED620A 		vldr.32	s0, .L39+8
 482 009c FFF7FEFF 		bl	Chassis_set_x
 483              	.L25:
 113:User/Software/remote_control.c ****     if (IF_KEY_PRESSED_SHIFT)
 484              		.loc 1 113 9
 485 00a0 5F4B     		ldr	r3, .L39+4
 486 00a2 9B8C     		ldrh	r3, [r3, #36]
 487 00a4 03F01003 		and	r3, r3, #16
 488              		.loc 1 113 8
 489 00a8 002B     		cmp	r3, #0
 490 00aa 08D0     		beq	.L26
 114:User/Software/remote_control.c ****     {
 115:User/Software/remote_control.c ****         Global.Cap.mode = FULL;
 491              		.loc 1 115 25
 492 00ac 5B4B     		ldr	r3, .L39
 493 00ae 0122     		movs	r2, #1
 494 00b0 83F83820 		strb	r2, [r3, #56]
 116:User/Software/remote_control.c ****         Chassis_set_accel(8.0);
 495              		.loc 1 116 9
 496 00b4 B2EE000A 		vmov.f32	s0, #8.0e+0
 497 00b8 FFF7FEFF 		bl	Chassis_set_accel
 498 00bc 07E0     		b	.L27
 499              	.L26:
 117:User/Software/remote_control.c ****     }
 118:User/Software/remote_control.c ****     else
 119:User/Software/remote_control.c ****     {
 120:User/Software/remote_control.c ****         Global.Cap.mode = Not_FULL;
 500              		.loc 1 120 25
 501 00be 574B     		ldr	r3, .L39
 502 00c0 0022     		movs	r2, #0
 503 00c2 83F83820 		strb	r2, [r3, #56]
 121:User/Software/remote_control.c ****         Chassis_set_accel(4.0);
 504              		.loc 1 121 9
 505 00c6 B1EE000A 		vmov.f32	s0, #4.0e+0
 506 00ca FFF7FEFF 		bl	Chassis_set_accel
 507              	.L27:
 122:User/Software/remote_control.c ****     }
ARM GAS  C:\Users\23671\AppData\Local\Temp\cctd05Gk.s 			page 12


 123:User/Software/remote_control.c ****     if (IF_KEY_PRESSED_Q) // 小陀螺开关
 508              		.loc 1 123 9
 509 00ce 544B     		ldr	r3, .L39+4
 510 00d0 9B8C     		ldrh	r3, [r3, #36]
 511 00d2 03F04003 		and	r3, r3, #64
 512              		.loc 1 123 8
 513 00d6 002B     		cmp	r3, #0
 514 00d8 10D0     		beq	.L28
 124:User/Software/remote_control.c ****     {
 125:User/Software/remote_control.c ****         if (Wait(WAIT_Q)) // 消抖
 515              		.loc 1 125 13
 516 00da 0420     		movs	r0, #4
 517 00dc FFF7FEFF 		bl	Wait
 518 00e0 0346     		mov	r3, r0
 519              		.loc 1 125 12 discriminator 1
 520 00e2 002B     		cmp	r3, #0
 521 00e4 0AD0     		beq	.L28
 126:User/Software/remote_control.c ****         {
 127:User/Software/remote_control.c ****             if (Global.Chssis.mode != SPIN_P)
 522              		.loc 1 127 30
 523 00e6 4D4B     		ldr	r3, .L39
 524 00e8 1B78     		ldrb	r3, [r3]	@ zero_extendqisi2
 525              		.loc 1 127 16
 526 00ea 012B     		cmp	r3, #1
 527 00ec 03D0     		beq	.L29
 128:User/Software/remote_control.c ****                 Global.Chssis.mode = SPIN_P;
 528              		.loc 1 128 36
 529 00ee 4B4B     		ldr	r3, .L39
 530 00f0 0122     		movs	r2, #1
 531 00f2 1A70     		strb	r2, [r3]
 532 00f4 02E0     		b	.L28
 533              	.L29:
 129:User/Software/remote_control.c ****             else
 130:User/Software/remote_control.c ****                 Global.Chssis.mode = FLOW;
 534              		.loc 1 130 36
 535 00f6 494B     		ldr	r3, .L39
 536 00f8 0022     		movs	r2, #0
 537 00fa 1A70     		strb	r2, [r3]
 538              	.L28:
 131:User/Software/remote_control.c ****         }
 132:User/Software/remote_control.c ****     }
 133:User/Software/remote_control.c ****     if (IF_KEY_PRESSED_Z) // UI开关
 539              		.loc 1 133 9
 540 00fc 484B     		ldr	r3, .L39+4
 541 00fe 9B8C     		ldrh	r3, [r3, #36]
 542 0100 03F40063 		and	r3, r3, #2048
 543              		.loc 1 133 8
 544 0104 002B     		cmp	r3, #0
 545 0106 01D0     		beq	.L30
 134:User/Software/remote_control.c ****     {
 135:User/Software/remote_control.c ****         ui_init();
 546              		.loc 1 135 9
 547 0108 FFF7FEFF 		bl	ui_init
 548              	.L30:
 136:User/Software/remote_control.c ****     }
 137:User/Software/remote_control.c ****     if (IF_KEY_PRESSED_CTRL)
 549              		.loc 1 137 9
ARM GAS  C:\Users\23671\AppData\Local\Temp\cctd05Gk.s 			page 13


 550 010c 444B     		ldr	r3, .L39+4
 551 010e 9B8C     		ldrh	r3, [r3, #36]
 552 0110 03F02003 		and	r3, r3, #32
 553              		.loc 1 137 8
 554 0114 002B     		cmp	r3, #0
 555 0116 03D0     		beq	.L31
 138:User/Software/remote_control.c ****         Global.Chssis.input.reset = 1;
 556              		.loc 1 138 35
 557 0118 404B     		ldr	r3, .L39
 558 011a 0122     		movs	r2, #1
 559 011c 1A74     		strb	r2, [r3, #16]
 560 011e 02E0     		b	.L32
 561              	.L31:
 139:User/Software/remote_control.c ****     else
 140:User/Software/remote_control.c ****         Global.Chssis.input.reset = 0;
 562              		.loc 1 140 35
 563 0120 3E4B     		ldr	r3, .L39
 564 0122 0022     		movs	r2, #0
 565 0124 1A74     		strb	r2, [r3, #16]
 566              	.L32:
 141:User/Software/remote_control.c ****     /*云台控制*/
 142:User/Software/remote_control.c ****     Gimbal_set_pitch_angle(Global.Gimbal.input.pitch -= MOUSE_Y_MOVE_SPEED * PITCH_SENSITIVITY);
 567              		.loc 1 142 47
 568 0126 3D4B     		ldr	r3, .L39
 569 0128 93ED067A 		vldr.32	s14, [r3, #24]
 570              		.loc 1 142 57
 571 012c 3C4B     		ldr	r3, .L39+4
 572 012e B3F91E30 		ldrsh	r3, [r3, #30]
 573              		.loc 1 142 76
 574 0132 07EE903A 		vmov	s15, r3	@ int
 575 0136 F8EEE77A 		vcvt.f32.s32	s15, s15
 576 013a DFED3B6A 		vldr.32	s13, .L39+12
 577 013e 67EEA67A 		vmul.f32	s15, s15, s13
 578              		.loc 1 142 54
 579 0142 77EE677A 		vsub.f32	s15, s14, s15
 580              		.loc 1 142 5
 581 0146 354B     		ldr	r3, .L39
 582 0148 C3ED067A 		vstr.32	s15, [r3, #24]
 583              		.loc 1 142 47
 584 014c 334B     		ldr	r3, .L39
 585 014e D3ED067A 		vldr.32	s15, [r3, #24]
 586              		.loc 1 142 5
 587 0152 B0EE670A 		vmov.f32	s0, s15
 588 0156 FFF7FEFF 		bl	Gimbal_set_pitch_angle
 143:User/Software/remote_control.c ****     Gimbal_set_yaw_angle(Global.Gimbal.input.yaw -= MOUSE_X_MOVE_SPEED * YAW_SENSITIVITY);
 589              		.loc 1 143 45
 590 015a 304B     		ldr	r3, .L39
 591 015c 93ED077A 		vldr.32	s14, [r3, #28]
 592              		.loc 1 143 53
 593 0160 2F4B     		ldr	r3, .L39+4
 594 0162 B3F91C30 		ldrsh	r3, [r3, #28]
 595              		.loc 1 143 72
 596 0166 07EE903A 		vmov	s15, r3	@ int
 597 016a F8EEE77A 		vcvt.f32.s32	s15, s15
 598 016e DFED2F6A 		vldr.32	s13, .L39+16
 599 0172 67EEA67A 		vmul.f32	s15, s15, s13
 600              		.loc 1 143 50
ARM GAS  C:\Users\23671\AppData\Local\Temp\cctd05Gk.s 			page 14


 601 0176 77EE677A 		vsub.f32	s15, s14, s15
 602              		.loc 1 143 5
 603 017a 284B     		ldr	r3, .L39
 604 017c C3ED077A 		vstr.32	s15, [r3, #28]
 605              		.loc 1 143 45
 606 0180 264B     		ldr	r3, .L39
 607 0182 D3ED077A 		vldr.32	s15, [r3, #28]
 608              		.loc 1 143 5
 609 0186 B0EE670A 		vmov.f32	s0, s15
 610 018a FFF7FEFF 		bl	Gimbal_set_yaw_angle
 144:User/Software/remote_control.c ****     /*自瞄选择*/
 145:User/Software/remote_control.c ****     if (IF_MOUSE_PRESSED_RIGH)
 611              		.loc 1 145 9
 612 018e 244B     		ldr	r3, .L39+4
 613 0190 93F82330 		ldrb	r3, [r3, #35]	@ zero_extendqisi2
 614              		.loc 1 145 8
 615 0194 012B     		cmp	r3, #1
 616 0196 04D1     		bne	.L33
 146:User/Software/remote_control.c ****         Global.Auto.mode = CAR;
 617              		.loc 1 146 26
 618 0198 204B     		ldr	r3, .L39
 619 019a 0122     		movs	r2, #1
 620 019c 83F82420 		strb	r2, [r3, #36]
 621 01a0 03E0     		b	.L34
 622              	.L33:
 147:User/Software/remote_control.c ****     else
 148:User/Software/remote_control.c ****         Global.Auto.mode = NONE;
 623              		.loc 1 148 26
 624 01a2 1E4B     		ldr	r3, .L39
 625 01a4 0022     		movs	r2, #0
 626 01a6 83F82420 		strb	r2, [r3, #36]
 627              	.L34:
 149:User/Software/remote_control.c ****     /*发射机构控制*/
 150:User/Software/remote_control.c ****     if (IF_KEY_PRESSED_R) // 摩擦轮开关
 628              		.loc 1 150 9
 629 01aa 1D4B     		ldr	r3, .L39+4
 630 01ac 9B8C     		ldrh	r3, [r3, #36]
 631 01ae 03F48073 		and	r3, r3, #256
 632              		.loc 1 150 8
 633 01b2 002B     		cmp	r3, #0
 634 01b4 11D0     		beq	.L35
 151:User/Software/remote_control.c ****     {
 152:User/Software/remote_control.c ****         if (Wait(WAIT_R)) // 消抖
 635              		.loc 1 152 13
 636 01b6 0D20     		movs	r0, #13
 637 01b8 FFF7FEFF 		bl	Wait
 638 01bc 0346     		mov	r3, r0
 639              		.loc 1 152 12 discriminator 1
 640 01be 002B     		cmp	r3, #0
 641 01c0 0BD0     		beq	.L35
 153:User/Software/remote_control.c ****             Global.Shoot.shoot_mode = !Global.Shoot.shoot_mode;
 642              		.loc 1 153 52
 643 01c2 164B     		ldr	r3, .L39
 644 01c4 93F82130 		ldrb	r3, [r3, #33]	@ zero_extendqisi2
 645              		.loc 1 153 39
 646 01c8 002B     		cmp	r3, #0
 647 01ca 0CBF     		ite	eq
ARM GAS  C:\Users\23671\AppData\Local\Temp\cctd05Gk.s 			page 15


 648 01cc 0123     		moveq	r3, #1
 649 01ce 0023     		movne	r3, #0
 650 01d0 DBB2     		uxtb	r3, r3
 651 01d2 1A46     		mov	r2, r3
 652              		.loc 1 153 37
 653 01d4 114B     		ldr	r3, .L39
 654 01d6 83F82120 		strb	r2, [r3, #33]
 655              	.L35:
 154:User/Software/remote_control.c ****     }
 155:User/Software/remote_control.c ****     if (IF_MOUSE_PRESSED_LEFT &&
 656              		.loc 1 155 9
 657 01da 114B     		ldr	r3, .L39+4
 658 01dc 93F82230 		ldrb	r3, [r3, #34]	@ zero_extendqisi2
 659              		.loc 1 155 8
 660 01e0 012B     		cmp	r3, #1
 661 01e2 13D1     		bne	.L36
 156:User/Software/remote_control.c ****         Global.Shoot.shoot_mode != CLOSE &&
 662              		.loc 1 156 21
 663 01e4 0D4B     		ldr	r3, .L39
 664 01e6 93F82130 		ldrb	r3, [r3, #33]	@ zero_extendqisi2
 155:User/Software/remote_control.c ****         Global.Shoot.shoot_mode != CLOSE &&
 665              		.loc 1 155 31 discriminator 1
 666 01ea 002B     		cmp	r3, #0
 667 01ec 0ED0     		beq	.L36
 157:User/Software/remote_control.c ****         (Global.Auto.mode == NONE ||
 668              		.loc 1 157 21
 669 01ee 0B4B     		ldr	r3, .L39
 670 01f0 93F82430 		ldrb	r3, [r3, #36]	@ zero_extendqisi2
 156:User/Software/remote_control.c ****         Global.Shoot.shoot_mode != CLOSE &&
 671              		.loc 1 156 42
 672 01f4 002B     		cmp	r3, #0
 673 01f6 04D0     		beq	.L37
 158:User/Software/remote_control.c ****          Global.Auto.input.fire == 1)) // 拨弹电机控制
 674              		.loc 1 158 27
 675 01f8 084B     		ldr	r3, .L39
 676 01fa 93F83430 		ldrb	r3, [r3, #52]	@ zero_extendqisi2
 157:User/Software/remote_control.c ****         (Global.Auto.mode == NONE ||
 677              		.loc 1 157 35
 678 01fe 012B     		cmp	r3, #1
 679 0200 04D1     		bne	.L36
 680              	.L37:
 159:User/Software/remote_control.c ****         Global.Shoot.tigger_mode = HIGH;
 681              		.loc 1 159 34
 682 0202 064B     		ldr	r3, .L39
 683 0204 0122     		movs	r2, #1
 684 0206 83F82020 		strb	r2, [r3, #32]
 685 020a 05E0     		b	.L17
 686              	.L36:
 160:User/Software/remote_control.c ****     else
 161:User/Software/remote_control.c ****         Global.Shoot.tigger_mode = TRIGGER_CLOSE;
 687              		.loc 1 161 34
 688 020c 034B     		ldr	r3, .L39
 689 020e 0022     		movs	r2, #0
 690 0210 83F82020 		strb	r2, [r3, #32]
 691 0214 00E0     		b	.L17
 692              	.L38:
  99:User/Software/remote_control.c ****     /*底盘控制*/
ARM GAS  C:\Users\23671\AppData\Local\Temp\cctd05Gk.s 			page 16


 693              		.loc 1 99 9
 694 0216 00BF     		nop
 695              	.L17:
 162:User/Software/remote_control.c **** }
 696              		.loc 1 162 1
 697 0218 80BD     		pop	{r7, pc}
 698              	.L40:
 699 021a 00BF     		.align	2
 700              	.L39:
 701 021c 00000000 		.word	Global
 702 0220 00000000 		.word	RC_data
 703 0224 00000000 		.word	0
 704 0228 6F12033C 		.word	1006834287
 705 022c 0AD7A33B 		.word	1000593162
 706              		.cfi_endproc
 707              	.LFE150:
 709              		.text
 710              	.Letext0:
 711              		.file 2 "D:/MSYS2/mingw64/arm-none-eabi/include/machine/_default_types.h"
 712              		.file 3 "D:/MSYS2/mingw64/arm-none-eabi/include/sys/_stdint.h"
 713              		.file 4 "User/Software/remote_control.h"
 714              		.file 5 "User/Software/Global_status.h"
 715              		.file 6 "User/Hardware/DT7.h"
 716              		.file 7 "User/Software/Gimbal.h"
 717              		.file 8 "User/Software/Chassis.h"
 718              		.file 9 "User/Software/ui.h"
ARM GAS  C:\Users\23671\AppData\Local\Temp\cctd05Gk.s 			page 17


DEFINED SYMBOLS
                            *ABS*:00000000 remote_control.c
C:\Users\23671\AppData\Local\Temp\cctd05Gk.s:24     .bss.RC_data:00000000 RC_data
C:\Users\23671\AppData\Local\Temp\cctd05Gk.s:21     .bss.RC_data:00000000 $d
C:\Users\23671\AppData\Local\Temp\cctd05Gk.s:31     .bss.wait_time:00000000 wait_time
C:\Users\23671\AppData\Local\Temp\cctd05Gk.s:28     .bss.wait_time:00000000 $d
C:\Users\23671\AppData\Local\Temp\cctd05Gk.s:34     .text.Wait:00000000 $t
C:\Users\23671\AppData\Local\Temp\cctd05Gk.s:40     .text.Wait:00000000 Wait
C:\Users\23671\AppData\Local\Temp\cctd05Gk.s:107    .text.Wait:00000048 $d
C:\Users\23671\AppData\Local\Temp\cctd05Gk.s:112    .text.DT7toRCdata:00000000 $t
C:\Users\23671\AppData\Local\Temp\cctd05Gk.s:118    .text.DT7toRCdata:00000000 DT7toRCdata
C:\Users\23671\AppData\Local\Temp\cctd05Gk.s:281    .text.DT7toRCdata:000000d8 $d
C:\Users\23671\AppData\Local\Temp\cctd05Gk.s:288    .text.RC_control:00000000 $t
C:\Users\23671\AppData\Local\Temp\cctd05Gk.s:294    .text.RC_control:00000000 RC_control
C:\Users\23671\AppData\Local\Temp\cctd05Gk.s:371    .text.RC_control:00000078 $d
C:\Users\23671\AppData\Local\Temp\cctd05Gk.s:378    .text.Keyboard_mouse_control:00000000 $t
C:\Users\23671\AppData\Local\Temp\cctd05Gk.s:384    .text.Keyboard_mouse_control:00000000 Keyboard_mouse_control
C:\Users\23671\AppData\Local\Temp\cctd05Gk.s:701    .text.Keyboard_mouse_control:0000021c $d

UNDEFINED SYMBOLS
DT7_data
SBUS_CH
Chassis_set_x
Chassis_set_y
Global
Chassis_set_accel
ui_init
Gimbal_set_pitch_angle
Gimbal_set_yaw_angle
