ARM GAS  C:\Users\23671\AppData\Local\Temp\cc9PLfNh.s 			page 1


   1              		.cpu cortex-m7
   2              		.arch armv7e-m
   3              		.fpu fpv5-d16
   4              		.eabi_attribute 28, 1
   5              		.eabi_attribute 20, 1
   6              		.eabi_attribute 21, 1
   7              		.eabi_attribute 23, 3
   8              		.eabi_attribute 24, 1
   9              		.eabi_attribute 25, 1
  10              		.eabi_attribute 26, 1
  11              		.eabi_attribute 30, 6
  12              		.eabi_attribute 34, 1
  13              		.eabi_attribute 18, 4
  14              		.file	"stm32h7xx_it.c"
  15              		.text
  16              	.Ltext0:
  17              		.cfi_sections	.debug_frame
  18              		.file 1 "Core/Src/stm32h7xx_it.c"
  19              		.section	.text.NMI_Handler,"ax",%progbits
  20              		.align	1
  21              		.global	NMI_Handler
  22              		.syntax unified
  23              		.thumb
  24              		.thumb_func
  26              	NMI_Handler:
  27              	.LFB144:
   1:Core/Src/stm32h7xx_it.c **** /* USER CODE BEGIN Header */
   2:Core/Src/stm32h7xx_it.c **** /**
   3:Core/Src/stm32h7xx_it.c ****  ******************************************************************************
   4:Core/Src/stm32h7xx_it.c ****  * @file    stm32h7xx_it.c
   5:Core/Src/stm32h7xx_it.c ****  * @brief   Interrupt Service Routines.
   6:Core/Src/stm32h7xx_it.c ****  ******************************************************************************
   7:Core/Src/stm32h7xx_it.c ****  * @attention
   8:Core/Src/stm32h7xx_it.c ****  *
   9:Core/Src/stm32h7xx_it.c ****  * Copyright (c) 2024 STMicroelectronics.
  10:Core/Src/stm32h7xx_it.c ****  * All rights reserved.
  11:Core/Src/stm32h7xx_it.c ****  *
  12:Core/Src/stm32h7xx_it.c ****  * This software is licensed under terms that can be found in the LICENSE file
  13:Core/Src/stm32h7xx_it.c ****  * in the root directory of this software component.
  14:Core/Src/stm32h7xx_it.c ****  * If no LICENSE file comes with this software, it is provided AS-IS.
  15:Core/Src/stm32h7xx_it.c ****  *
  16:Core/Src/stm32h7xx_it.c ****  ******************************************************************************
  17:Core/Src/stm32h7xx_it.c ****  */
  18:Core/Src/stm32h7xx_it.c **** /* USER CODE END Header */
  19:Core/Src/stm32h7xx_it.c **** 
  20:Core/Src/stm32h7xx_it.c **** /* Includes ------------------------------------------------------------------*/
  21:Core/Src/stm32h7xx_it.c **** #include "main.h"
  22:Core/Src/stm32h7xx_it.c **** #include "stm32h7xx_it.h"
  23:Core/Src/stm32h7xx_it.c **** /* Private includes ----------------------------------------------------------*/
  24:Core/Src/stm32h7xx_it.c **** /* USER CODE BEGIN Includes */
  25:Core/Src/stm32h7xx_it.c **** #include "LED.h"
  26:Core/Src/stm32h7xx_it.c **** /* USER CODE END Includes */
  27:Core/Src/stm32h7xx_it.c **** 
  28:Core/Src/stm32h7xx_it.c **** /* Private typedef -----------------------------------------------------------*/
  29:Core/Src/stm32h7xx_it.c **** /* USER CODE BEGIN TD */
  30:Core/Src/stm32h7xx_it.c **** 
  31:Core/Src/stm32h7xx_it.c **** /* USER CODE END TD */
ARM GAS  C:\Users\23671\AppData\Local\Temp\cc9PLfNh.s 			page 2


  32:Core/Src/stm32h7xx_it.c **** 
  33:Core/Src/stm32h7xx_it.c **** /* Private define ------------------------------------------------------------*/
  34:Core/Src/stm32h7xx_it.c **** /* USER CODE BEGIN PD */
  35:Core/Src/stm32h7xx_it.c **** 
  36:Core/Src/stm32h7xx_it.c **** /* USER CODE END PD */
  37:Core/Src/stm32h7xx_it.c **** 
  38:Core/Src/stm32h7xx_it.c **** /* Private macro -------------------------------------------------------------*/
  39:Core/Src/stm32h7xx_it.c **** /* USER CODE BEGIN PM */
  40:Core/Src/stm32h7xx_it.c **** 
  41:Core/Src/stm32h7xx_it.c **** /* USER CODE END PM */
  42:Core/Src/stm32h7xx_it.c **** 
  43:Core/Src/stm32h7xx_it.c **** /* Private variables ---------------------------------------------------------*/
  44:Core/Src/stm32h7xx_it.c **** /* USER CODE BEGIN PV */
  45:Core/Src/stm32h7xx_it.c **** 
  46:Core/Src/stm32h7xx_it.c **** /* USER CODE END PV */
  47:Core/Src/stm32h7xx_it.c **** 
  48:Core/Src/stm32h7xx_it.c **** /* Private function prototypes -----------------------------------------------*/
  49:Core/Src/stm32h7xx_it.c **** /* USER CODE BEGIN PFP */
  50:Core/Src/stm32h7xx_it.c **** 
  51:Core/Src/stm32h7xx_it.c **** /* USER CODE END PFP */
  52:Core/Src/stm32h7xx_it.c **** 
  53:Core/Src/stm32h7xx_it.c **** /* Private user code ---------------------------------------------------------*/
  54:Core/Src/stm32h7xx_it.c **** /* USER CODE BEGIN 0 */
  55:Core/Src/stm32h7xx_it.c **** 
  56:Core/Src/stm32h7xx_it.c **** /* USER CODE END 0 */
  57:Core/Src/stm32h7xx_it.c **** 
  58:Core/Src/stm32h7xx_it.c **** /* External variables --------------------------------------------------------*/
  59:Core/Src/stm32h7xx_it.c **** extern PCD_HandleTypeDef hpcd_USB_OTG_HS;
  60:Core/Src/stm32h7xx_it.c **** extern FDCAN_HandleTypeDef hfdcan1;
  61:Core/Src/stm32h7xx_it.c **** extern FDCAN_HandleTypeDef hfdcan2;
  62:Core/Src/stm32h7xx_it.c **** extern FDCAN_HandleTypeDef hfdcan3;
  63:Core/Src/stm32h7xx_it.c **** extern DMA_HandleTypeDef hdma_spi2_rx;
  64:Core/Src/stm32h7xx_it.c **** extern DMA_HandleTypeDef hdma_spi2_tx;
  65:Core/Src/stm32h7xx_it.c **** extern SPI_HandleTypeDef hspi2;
  66:Core/Src/stm32h7xx_it.c **** extern TIM_HandleTypeDef htim12;
  67:Core/Src/stm32h7xx_it.c **** extern TIM_HandleTypeDef htim13;
  68:Core/Src/stm32h7xx_it.c **** extern TIM_HandleTypeDef htim14;
  69:Core/Src/stm32h7xx_it.c **** extern DMA_HandleTypeDef hdma_uart5_rx;
  70:Core/Src/stm32h7xx_it.c **** extern DMA_HandleTypeDef hdma_uart7_rx;
  71:Core/Src/stm32h7xx_it.c **** extern DMA_HandleTypeDef hdma_uart7_tx;
  72:Core/Src/stm32h7xx_it.c **** extern DMA_HandleTypeDef hdma_usart1_rx;
  73:Core/Src/stm32h7xx_it.c **** extern DMA_HandleTypeDef hdma_usart1_tx;
  74:Core/Src/stm32h7xx_it.c **** extern DMA_HandleTypeDef hdma_usart2_rx;
  75:Core/Src/stm32h7xx_it.c **** extern DMA_HandleTypeDef hdma_usart2_tx;
  76:Core/Src/stm32h7xx_it.c **** extern DMA_HandleTypeDef hdma_usart3_rx;
  77:Core/Src/stm32h7xx_it.c **** extern DMA_HandleTypeDef hdma_usart3_tx;
  78:Core/Src/stm32h7xx_it.c **** extern DMA_HandleTypeDef hdma_usart10_rx;
  79:Core/Src/stm32h7xx_it.c **** extern DMA_HandleTypeDef hdma_usart10_tx;
  80:Core/Src/stm32h7xx_it.c **** extern UART_HandleTypeDef huart5;
  81:Core/Src/stm32h7xx_it.c **** extern UART_HandleTypeDef huart7;
  82:Core/Src/stm32h7xx_it.c **** extern UART_HandleTypeDef huart1;
  83:Core/Src/stm32h7xx_it.c **** extern UART_HandleTypeDef huart2;
  84:Core/Src/stm32h7xx_it.c **** extern UART_HandleTypeDef huart3;
  85:Core/Src/stm32h7xx_it.c **** extern UART_HandleTypeDef huart10;
  86:Core/Src/stm32h7xx_it.c **** extern TIM_HandleTypeDef htim23;
  87:Core/Src/stm32h7xx_it.c **** 
  88:Core/Src/stm32h7xx_it.c **** /* USER CODE BEGIN EV */
ARM GAS  C:\Users\23671\AppData\Local\Temp\cc9PLfNh.s 			page 3


  89:Core/Src/stm32h7xx_it.c **** 
  90:Core/Src/stm32h7xx_it.c **** /* USER CODE END EV */
  91:Core/Src/stm32h7xx_it.c **** 
  92:Core/Src/stm32h7xx_it.c **** /******************************************************************************/
  93:Core/Src/stm32h7xx_it.c **** /*           Cortex Processor Interruption and Exception Handlers          */
  94:Core/Src/stm32h7xx_it.c **** /******************************************************************************/
  95:Core/Src/stm32h7xx_it.c **** /**
  96:Core/Src/stm32h7xx_it.c ****   * @brief This function handles Non maskable interrupt.
  97:Core/Src/stm32h7xx_it.c ****   */
  98:Core/Src/stm32h7xx_it.c **** void NMI_Handler(void)
  99:Core/Src/stm32h7xx_it.c **** {
  28              		.loc 1 99 1
  29              		.cfi_startproc
  30              		@ args = 0, pretend = 0, frame = 0
  31              		@ frame_needed = 1, uses_anonymous_args = 0
  32              		@ link register save eliminated.
  33 0000 80B4     		push	{r7}
  34              	.LCFI0:
  35              		.cfi_def_cfa_offset 4
  36              		.cfi_offset 7, -4
  37 0002 00AF     		add	r7, sp, #0
  38              	.LCFI1:
  39              		.cfi_def_cfa_register 7
  40              	.L2:
 100:Core/Src/stm32h7xx_it.c ****   /* USER CODE BEGIN NonMaskableInt_IRQn 0 */
 101:Core/Src/stm32h7xx_it.c **** 
 102:Core/Src/stm32h7xx_it.c ****   /* USER CODE END NonMaskableInt_IRQn 0 */
 103:Core/Src/stm32h7xx_it.c ****   /* USER CODE BEGIN NonMaskableInt_IRQn 1 */
 104:Core/Src/stm32h7xx_it.c ****   while (1)
  41              		.loc 1 104 9
  42 0004 00BF     		nop
  43 0006 FDE7     		b	.L2
  44              		.cfi_endproc
  45              	.LFE144:
  47              		.section	.text.HardFault_Handler,"ax",%progbits
  48              		.align	1
  49              		.global	HardFault_Handler
  50              		.syntax unified
  51              		.thumb
  52              		.thumb_func
  54              	HardFault_Handler:
  55              	.LFB145:
 105:Core/Src/stm32h7xx_it.c ****   {
 106:Core/Src/stm32h7xx_it.c ****   }
 107:Core/Src/stm32h7xx_it.c ****   /* USER CODE END NonMaskableInt_IRQn 1 */
 108:Core/Src/stm32h7xx_it.c **** }
 109:Core/Src/stm32h7xx_it.c **** 
 110:Core/Src/stm32h7xx_it.c **** /**
 111:Core/Src/stm32h7xx_it.c ****   * @brief This function handles Hard fault interrupt.
 112:Core/Src/stm32h7xx_it.c ****   */
 113:Core/Src/stm32h7xx_it.c **** void HardFault_Handler(void)
 114:Core/Src/stm32h7xx_it.c **** {
  56              		.loc 1 114 1
  57              		.cfi_startproc
  58              		@ args = 0, pretend = 0, frame = 0
  59              		@ frame_needed = 1, uses_anonymous_args = 0
  60              		@ link register save eliminated.
ARM GAS  C:\Users\23671\AppData\Local\Temp\cc9PLfNh.s 			page 4


  61 0000 80B4     		push	{r7}
  62              	.LCFI2:
  63              		.cfi_def_cfa_offset 4
  64              		.cfi_offset 7, -4
  65 0002 00AF     		add	r7, sp, #0
  66              	.LCFI3:
  67              		.cfi_def_cfa_register 7
  68              	.L4:
 115:Core/Src/stm32h7xx_it.c ****   /* USER CODE BEGIN HardFault_IRQn 0 */
 116:Core/Src/stm32h7xx_it.c ****   // /* Go to infinite loop when Hard Fault exception occurs */
 117:Core/Src/stm32h7xx_it.c ****   // volatile int a = 1;
 118:Core/Src/stm32h7xx_it.c ****   // a++;
 119:Core/Src/stm32h7xx_it.c ****   // while (1);
 120:Core/Src/stm32h7xx_it.c ****   /* USER CODE END HardFault_IRQn 0 */
 121:Core/Src/stm32h7xx_it.c ****   while (1)
  69              		.loc 1 121 9
  70 0004 00BF     		nop
  71 0006 FDE7     		b	.L4
  72              		.cfi_endproc
  73              	.LFE145:
  75              		.section	.text.MemManage_Handler,"ax",%progbits
  76              		.align	1
  77              		.global	MemManage_Handler
  78              		.syntax unified
  79              		.thumb
  80              		.thumb_func
  82              	MemManage_Handler:
  83              	.LFB146:
 122:Core/Src/stm32h7xx_it.c ****   {
 123:Core/Src/stm32h7xx_it.c ****     /* USER CODE BEGIN W1_HardFault_IRQn 0 */
 124:Core/Src/stm32h7xx_it.c ****     
 125:Core/Src/stm32h7xx_it.c ****     /* USER CODE END W1_HardFault_IRQn 0 */
 126:Core/Src/stm32h7xx_it.c ****   }
 127:Core/Src/stm32h7xx_it.c **** }
 128:Core/Src/stm32h7xx_it.c **** 
 129:Core/Src/stm32h7xx_it.c **** /**
 130:Core/Src/stm32h7xx_it.c ****   * @brief This function handles Memory management fault.
 131:Core/Src/stm32h7xx_it.c ****   */
 132:Core/Src/stm32h7xx_it.c **** void MemManage_Handler(void)
 133:Core/Src/stm32h7xx_it.c **** {
  84              		.loc 1 133 1
  85              		.cfi_startproc
  86              		@ args = 0, pretend = 0, frame = 0
  87              		@ frame_needed = 1, uses_anonymous_args = 0
  88              		@ link register save eliminated.
  89 0000 80B4     		push	{r7}
  90              	.LCFI4:
  91              		.cfi_def_cfa_offset 4
  92              		.cfi_offset 7, -4
  93 0002 00AF     		add	r7, sp, #0
  94              	.LCFI5:
  95              		.cfi_def_cfa_register 7
  96              	.L6:
 134:Core/Src/stm32h7xx_it.c ****   /* USER CODE BEGIN MemoryManagement_IRQn 0 */
 135:Core/Src/stm32h7xx_it.c **** 
 136:Core/Src/stm32h7xx_it.c ****   /* USER CODE END MemoryManagement_IRQn 0 */
 137:Core/Src/stm32h7xx_it.c ****   while (1)
ARM GAS  C:\Users\23671\AppData\Local\Temp\cc9PLfNh.s 			page 5


  97              		.loc 1 137 9
  98 0004 00BF     		nop
  99 0006 FDE7     		b	.L6
 100              		.cfi_endproc
 101              	.LFE146:
 103              		.section	.text.BusFault_Handler,"ax",%progbits
 104              		.align	1
 105              		.global	BusFault_Handler
 106              		.syntax unified
 107              		.thumb
 108              		.thumb_func
 110              	BusFault_Handler:
 111              	.LFB147:
 138:Core/Src/stm32h7xx_it.c ****   {
 139:Core/Src/stm32h7xx_it.c ****     /* USER CODE BEGIN W1_MemoryManagement_IRQn 0 */
 140:Core/Src/stm32h7xx_it.c ****     /* USER CODE END W1_MemoryManagement_IRQn 0 */
 141:Core/Src/stm32h7xx_it.c ****   }
 142:Core/Src/stm32h7xx_it.c **** }
 143:Core/Src/stm32h7xx_it.c **** 
 144:Core/Src/stm32h7xx_it.c **** /**
 145:Core/Src/stm32h7xx_it.c ****   * @brief This function handles Pre-fetch fault, memory access fault.
 146:Core/Src/stm32h7xx_it.c ****   */
 147:Core/Src/stm32h7xx_it.c **** void BusFault_Handler(void)
 148:Core/Src/stm32h7xx_it.c **** {
 112              		.loc 1 148 1
 113              		.cfi_startproc
 114              		@ args = 0, pretend = 0, frame = 0
 115              		@ frame_needed = 1, uses_anonymous_args = 0
 116              		@ link register save eliminated.
 117 0000 80B4     		push	{r7}
 118              	.LCFI6:
 119              		.cfi_def_cfa_offset 4
 120              		.cfi_offset 7, -4
 121 0002 00AF     		add	r7, sp, #0
 122              	.LCFI7:
 123              		.cfi_def_cfa_register 7
 124              	.L8:
 149:Core/Src/stm32h7xx_it.c ****   /* USER CODE BEGIN BusFault_IRQn 0 */
 150:Core/Src/stm32h7xx_it.c **** 
 151:Core/Src/stm32h7xx_it.c ****   /* USER CODE END BusFault_IRQn 0 */
 152:Core/Src/stm32h7xx_it.c ****   while (1)
 125              		.loc 1 152 9
 126 0004 00BF     		nop
 127 0006 FDE7     		b	.L8
 128              		.cfi_endproc
 129              	.LFE147:
 131              		.section	.text.UsageFault_Handler,"ax",%progbits
 132              		.align	1
 133              		.global	UsageFault_Handler
 134              		.syntax unified
 135              		.thumb
 136              		.thumb_func
 138              	UsageFault_Handler:
 139              	.LFB148:
 153:Core/Src/stm32h7xx_it.c ****   {
 154:Core/Src/stm32h7xx_it.c ****     /* USER CODE BEGIN W1_BusFault_IRQn 0 */
 155:Core/Src/stm32h7xx_it.c ****     /* USER CODE END W1_BusFault_IRQn 0 */
ARM GAS  C:\Users\23671\AppData\Local\Temp\cc9PLfNh.s 			page 6


 156:Core/Src/stm32h7xx_it.c ****   }
 157:Core/Src/stm32h7xx_it.c **** }
 158:Core/Src/stm32h7xx_it.c **** 
 159:Core/Src/stm32h7xx_it.c **** /**
 160:Core/Src/stm32h7xx_it.c ****   * @brief This function handles Undefined instruction or illegal state.
 161:Core/Src/stm32h7xx_it.c ****   */
 162:Core/Src/stm32h7xx_it.c **** void UsageFault_Handler(void)
 163:Core/Src/stm32h7xx_it.c **** {
 140              		.loc 1 163 1
 141              		.cfi_startproc
 142              		@ args = 0, pretend = 0, frame = 0
 143              		@ frame_needed = 1, uses_anonymous_args = 0
 144              		@ link register save eliminated.
 145 0000 80B4     		push	{r7}
 146              	.LCFI8:
 147              		.cfi_def_cfa_offset 4
 148              		.cfi_offset 7, -4
 149 0002 00AF     		add	r7, sp, #0
 150              	.LCFI9:
 151              		.cfi_def_cfa_register 7
 152              	.L10:
 164:Core/Src/stm32h7xx_it.c ****   /* USER CODE BEGIN UsageFault_IRQn 0 */
 165:Core/Src/stm32h7xx_it.c **** 
 166:Core/Src/stm32h7xx_it.c ****   /* USER CODE END UsageFault_IRQn 0 */
 167:Core/Src/stm32h7xx_it.c ****   while (1)
 153              		.loc 1 167 9
 154 0004 00BF     		nop
 155 0006 FDE7     		b	.L10
 156              		.cfi_endproc
 157              	.LFE148:
 159              		.section	.text.DebugMon_Handler,"ax",%progbits
 160              		.align	1
 161              		.global	DebugMon_Handler
 162              		.syntax unified
 163              		.thumb
 164              		.thumb_func
 166              	DebugMon_Handler:
 167              	.LFB149:
 168:Core/Src/stm32h7xx_it.c ****   {
 169:Core/Src/stm32h7xx_it.c ****     /* USER CODE BEGIN W1_UsageFault_IRQn 0 */
 170:Core/Src/stm32h7xx_it.c ****     /* USER CODE END W1_UsageFault_IRQn 0 */
 171:Core/Src/stm32h7xx_it.c ****   }
 172:Core/Src/stm32h7xx_it.c **** }
 173:Core/Src/stm32h7xx_it.c **** 
 174:Core/Src/stm32h7xx_it.c **** /**
 175:Core/Src/stm32h7xx_it.c ****   * @brief This function handles Debug monitor.
 176:Core/Src/stm32h7xx_it.c ****   */
 177:Core/Src/stm32h7xx_it.c **** void DebugMon_Handler(void)
 178:Core/Src/stm32h7xx_it.c **** {
 168              		.loc 1 178 1
 169              		.cfi_startproc
 170              		@ args = 0, pretend = 0, frame = 0
 171              		@ frame_needed = 1, uses_anonymous_args = 0
 172              		@ link register save eliminated.
 173 0000 80B4     		push	{r7}
 174              	.LCFI10:
 175              		.cfi_def_cfa_offset 4
ARM GAS  C:\Users\23671\AppData\Local\Temp\cc9PLfNh.s 			page 7


 176              		.cfi_offset 7, -4
 177 0002 00AF     		add	r7, sp, #0
 178              	.LCFI11:
 179              		.cfi_def_cfa_register 7
 179:Core/Src/stm32h7xx_it.c ****   /* USER CODE BEGIN DebugMonitor_IRQn 0 */
 180:Core/Src/stm32h7xx_it.c **** 
 181:Core/Src/stm32h7xx_it.c ****   /* USER CODE END DebugMonitor_IRQn 0 */
 182:Core/Src/stm32h7xx_it.c ****   /* USER CODE BEGIN DebugMonitor_IRQn 1 */
 183:Core/Src/stm32h7xx_it.c **** 
 184:Core/Src/stm32h7xx_it.c ****   /* USER CODE END DebugMonitor_IRQn 1 */
 185:Core/Src/stm32h7xx_it.c **** }
 180              		.loc 1 185 1
 181 0004 00BF     		nop
 182 0006 BD46     		mov	sp, r7
 183              	.LCFI12:
 184              		.cfi_def_cfa_register 13
 185              		@ sp needed
 186 0008 5DF8047B 		ldr	r7, [sp], #4
 187              	.LCFI13:
 188              		.cfi_restore 7
 189              		.cfi_def_cfa_offset 0
 190 000c 7047     		bx	lr
 191              		.cfi_endproc
 192              	.LFE149:
 194              		.section	.text.DMA1_Stream0_IRQHandler,"ax",%progbits
 195              		.align	1
 196              		.global	DMA1_Stream0_IRQHandler
 197              		.syntax unified
 198              		.thumb
 199              		.thumb_func
 201              	DMA1_Stream0_IRQHandler:
 202              	.LFB150:
 186:Core/Src/stm32h7xx_it.c **** 
 187:Core/Src/stm32h7xx_it.c **** /******************************************************************************/
 188:Core/Src/stm32h7xx_it.c **** /* STM32H7xx Peripheral Interrupt Handlers                                    */
 189:Core/Src/stm32h7xx_it.c **** /* Add here the Interrupt Handlers for the used peripherals.                  */
 190:Core/Src/stm32h7xx_it.c **** /* For the available peripheral interrupt handler names,                      */
 191:Core/Src/stm32h7xx_it.c **** /* please refer to the startup file (startup_stm32h7xx.s).                    */
 192:Core/Src/stm32h7xx_it.c **** /******************************************************************************/
 193:Core/Src/stm32h7xx_it.c **** 
 194:Core/Src/stm32h7xx_it.c **** /**
 195:Core/Src/stm32h7xx_it.c ****   * @brief This function handles DMA1 stream0 global interrupt.
 196:Core/Src/stm32h7xx_it.c ****   */
 197:Core/Src/stm32h7xx_it.c **** void DMA1_Stream0_IRQHandler(void)
 198:Core/Src/stm32h7xx_it.c **** {
 203              		.loc 1 198 1
 204              		.cfi_startproc
 205              		@ args = 0, pretend = 0, frame = 0
 206              		@ frame_needed = 1, uses_anonymous_args = 0
 207 0000 80B5     		push	{r7, lr}
 208              	.LCFI14:
 209              		.cfi_def_cfa_offset 8
 210              		.cfi_offset 7, -8
 211              		.cfi_offset 14, -4
 212 0002 00AF     		add	r7, sp, #0
 213              	.LCFI15:
 214              		.cfi_def_cfa_register 7
ARM GAS  C:\Users\23671\AppData\Local\Temp\cc9PLfNh.s 			page 8


 199:Core/Src/stm32h7xx_it.c ****   /* USER CODE BEGIN DMA1_Stream0_IRQn 0 */
 200:Core/Src/stm32h7xx_it.c **** 
 201:Core/Src/stm32h7xx_it.c ****   /* USER CODE END DMA1_Stream0_IRQn 0 */
 202:Core/Src/stm32h7xx_it.c ****   HAL_DMA_IRQHandler(&hdma_spi2_rx);
 215              		.loc 1 202 3
 216 0004 0248     		ldr	r0, .L13
 217 0006 FFF7FEFF 		bl	HAL_DMA_IRQHandler
 203:Core/Src/stm32h7xx_it.c ****   /* USER CODE BEGIN DMA1_Stream0_IRQn 1 */
 204:Core/Src/stm32h7xx_it.c **** 
 205:Core/Src/stm32h7xx_it.c ****   /* USER CODE END DMA1_Stream0_IRQn 1 */
 206:Core/Src/stm32h7xx_it.c **** }
 218              		.loc 1 206 1
 219 000a 00BF     		nop
 220 000c 80BD     		pop	{r7, pc}
 221              	.L14:
 222 000e 00BF     		.align	2
 223              	.L13:
 224 0010 00000000 		.word	hdma_spi2_rx
 225              		.cfi_endproc
 226              	.LFE150:
 228              		.section	.text.DMA1_Stream1_IRQHandler,"ax",%progbits
 229              		.align	1
 230              		.global	DMA1_Stream1_IRQHandler
 231              		.syntax unified
 232              		.thumb
 233              		.thumb_func
 235              	DMA1_Stream1_IRQHandler:
 236              	.LFB151:
 207:Core/Src/stm32h7xx_it.c **** 
 208:Core/Src/stm32h7xx_it.c **** /**
 209:Core/Src/stm32h7xx_it.c ****   * @brief This function handles DMA1 stream1 global interrupt.
 210:Core/Src/stm32h7xx_it.c ****   */
 211:Core/Src/stm32h7xx_it.c **** void DMA1_Stream1_IRQHandler(void)
 212:Core/Src/stm32h7xx_it.c **** {
 237              		.loc 1 212 1
 238              		.cfi_startproc
 239              		@ args = 0, pretend = 0, frame = 0
 240              		@ frame_needed = 1, uses_anonymous_args = 0
 241 0000 80B5     		push	{r7, lr}
 242              	.LCFI16:
 243              		.cfi_def_cfa_offset 8
 244              		.cfi_offset 7, -8
 245              		.cfi_offset 14, -4
 246 0002 00AF     		add	r7, sp, #0
 247              	.LCFI17:
 248              		.cfi_def_cfa_register 7
 213:Core/Src/stm32h7xx_it.c ****   /* USER CODE BEGIN DMA1_Stream1_IRQn 0 */
 214:Core/Src/stm32h7xx_it.c **** 
 215:Core/Src/stm32h7xx_it.c ****   /* USER CODE END DMA1_Stream1_IRQn 0 */
 216:Core/Src/stm32h7xx_it.c ****   HAL_DMA_IRQHandler(&hdma_spi2_tx);
 249              		.loc 1 216 3
 250 0004 0248     		ldr	r0, .L16
 251 0006 FFF7FEFF 		bl	HAL_DMA_IRQHandler
 217:Core/Src/stm32h7xx_it.c ****   /* USER CODE BEGIN DMA1_Stream1_IRQn 1 */
 218:Core/Src/stm32h7xx_it.c **** 
 219:Core/Src/stm32h7xx_it.c ****   /* USER CODE END DMA1_Stream1_IRQn 1 */
 220:Core/Src/stm32h7xx_it.c **** }
ARM GAS  C:\Users\23671\AppData\Local\Temp\cc9PLfNh.s 			page 9


 252              		.loc 1 220 1
 253 000a 00BF     		nop
 254 000c 80BD     		pop	{r7, pc}
 255              	.L17:
 256 000e 00BF     		.align	2
 257              	.L16:
 258 0010 00000000 		.word	hdma_spi2_tx
 259              		.cfi_endproc
 260              	.LFE151:
 262              		.section	.text.DMA1_Stream2_IRQHandler,"ax",%progbits
 263              		.align	1
 264              		.global	DMA1_Stream2_IRQHandler
 265              		.syntax unified
 266              		.thumb
 267              		.thumb_func
 269              	DMA1_Stream2_IRQHandler:
 270              	.LFB152:
 221:Core/Src/stm32h7xx_it.c **** 
 222:Core/Src/stm32h7xx_it.c **** /**
 223:Core/Src/stm32h7xx_it.c ****   * @brief This function handles DMA1 stream2 global interrupt.
 224:Core/Src/stm32h7xx_it.c ****   */
 225:Core/Src/stm32h7xx_it.c **** void DMA1_Stream2_IRQHandler(void)
 226:Core/Src/stm32h7xx_it.c **** {
 271              		.loc 1 226 1
 272              		.cfi_startproc
 273              		@ args = 0, pretend = 0, frame = 0
 274              		@ frame_needed = 1, uses_anonymous_args = 0
 275 0000 80B5     		push	{r7, lr}
 276              	.LCFI18:
 277              		.cfi_def_cfa_offset 8
 278              		.cfi_offset 7, -8
 279              		.cfi_offset 14, -4
 280 0002 00AF     		add	r7, sp, #0
 281              	.LCFI19:
 282              		.cfi_def_cfa_register 7
 227:Core/Src/stm32h7xx_it.c ****   /* USER CODE BEGIN DMA1_Stream2_IRQn 0 */
 228:Core/Src/stm32h7xx_it.c **** 
 229:Core/Src/stm32h7xx_it.c ****   /* USER CODE END DMA1_Stream2_IRQn 0 */
 230:Core/Src/stm32h7xx_it.c ****   HAL_DMA_IRQHandler(&hdma_uart5_rx);
 283              		.loc 1 230 3
 284 0004 0248     		ldr	r0, .L19
 285 0006 FFF7FEFF 		bl	HAL_DMA_IRQHandler
 231:Core/Src/stm32h7xx_it.c ****   /* USER CODE BEGIN DMA1_Stream2_IRQn 1 */
 232:Core/Src/stm32h7xx_it.c **** 
 233:Core/Src/stm32h7xx_it.c ****   /* USER CODE END DMA1_Stream2_IRQn 1 */
 234:Core/Src/stm32h7xx_it.c **** }
 286              		.loc 1 234 1
 287 000a 00BF     		nop
 288 000c 80BD     		pop	{r7, pc}
 289              	.L20:
 290 000e 00BF     		.align	2
 291              	.L19:
 292 0010 00000000 		.word	hdma_uart5_rx
 293              		.cfi_endproc
 294              	.LFE152:
 296              		.section	.text.DMA1_Stream3_IRQHandler,"ax",%progbits
 297              		.align	1
ARM GAS  C:\Users\23671\AppData\Local\Temp\cc9PLfNh.s 			page 10


 298              		.global	DMA1_Stream3_IRQHandler
 299              		.syntax unified
 300              		.thumb
 301              		.thumb_func
 303              	DMA1_Stream3_IRQHandler:
 304              	.LFB153:
 235:Core/Src/stm32h7xx_it.c **** 
 236:Core/Src/stm32h7xx_it.c **** /**
 237:Core/Src/stm32h7xx_it.c ****   * @brief This function handles DMA1 stream3 global interrupt.
 238:Core/Src/stm32h7xx_it.c ****   */
 239:Core/Src/stm32h7xx_it.c **** void DMA1_Stream3_IRQHandler(void)
 240:Core/Src/stm32h7xx_it.c **** {
 305              		.loc 1 240 1
 306              		.cfi_startproc
 307              		@ args = 0, pretend = 0, frame = 0
 308              		@ frame_needed = 1, uses_anonymous_args = 0
 309 0000 80B5     		push	{r7, lr}
 310              	.LCFI20:
 311              		.cfi_def_cfa_offset 8
 312              		.cfi_offset 7, -8
 313              		.cfi_offset 14, -4
 314 0002 00AF     		add	r7, sp, #0
 315              	.LCFI21:
 316              		.cfi_def_cfa_register 7
 241:Core/Src/stm32h7xx_it.c ****   /* USER CODE BEGIN DMA1_Stream3_IRQn 0 */
 242:Core/Src/stm32h7xx_it.c **** 
 243:Core/Src/stm32h7xx_it.c ****   /* USER CODE END DMA1_Stream3_IRQn 0 */
 244:Core/Src/stm32h7xx_it.c ****   HAL_DMA_IRQHandler(&hdma_uart7_rx);
 317              		.loc 1 244 3
 318 0004 0248     		ldr	r0, .L22
 319 0006 FFF7FEFF 		bl	HAL_DMA_IRQHandler
 245:Core/Src/stm32h7xx_it.c ****   /* USER CODE BEGIN DMA1_Stream3_IRQn 1 */
 246:Core/Src/stm32h7xx_it.c **** 
 247:Core/Src/stm32h7xx_it.c ****   /* USER CODE END DMA1_Stream3_IRQn 1 */
 248:Core/Src/stm32h7xx_it.c **** }
 320              		.loc 1 248 1
 321 000a 00BF     		nop
 322 000c 80BD     		pop	{r7, pc}
 323              	.L23:
 324 000e 00BF     		.align	2
 325              	.L22:
 326 0010 00000000 		.word	hdma_uart7_rx
 327              		.cfi_endproc
 328              	.LFE153:
 330              		.section	.text.DMA1_Stream4_IRQHandler,"ax",%progbits
 331              		.align	1
 332              		.global	DMA1_Stream4_IRQHandler
 333              		.syntax unified
 334              		.thumb
 335              		.thumb_func
 337              	DMA1_Stream4_IRQHandler:
 338              	.LFB154:
 249:Core/Src/stm32h7xx_it.c **** 
 250:Core/Src/stm32h7xx_it.c **** /**
 251:Core/Src/stm32h7xx_it.c ****   * @brief This function handles DMA1 stream4 global interrupt.
 252:Core/Src/stm32h7xx_it.c ****   */
 253:Core/Src/stm32h7xx_it.c **** void DMA1_Stream4_IRQHandler(void)
ARM GAS  C:\Users\23671\AppData\Local\Temp\cc9PLfNh.s 			page 11


 254:Core/Src/stm32h7xx_it.c **** {
 339              		.loc 1 254 1
 340              		.cfi_startproc
 341              		@ args = 0, pretend = 0, frame = 0
 342              		@ frame_needed = 1, uses_anonymous_args = 0
 343 0000 80B5     		push	{r7, lr}
 344              	.LCFI22:
 345              		.cfi_def_cfa_offset 8
 346              		.cfi_offset 7, -8
 347              		.cfi_offset 14, -4
 348 0002 00AF     		add	r7, sp, #0
 349              	.LCFI23:
 350              		.cfi_def_cfa_register 7
 255:Core/Src/stm32h7xx_it.c ****   /* USER CODE BEGIN DMA1_Stream4_IRQn 0 */
 256:Core/Src/stm32h7xx_it.c **** 
 257:Core/Src/stm32h7xx_it.c ****   /* USER CODE END DMA1_Stream4_IRQn 0 */
 258:Core/Src/stm32h7xx_it.c ****   HAL_DMA_IRQHandler(&hdma_uart7_tx);
 351              		.loc 1 258 3
 352 0004 0248     		ldr	r0, .L25
 353 0006 FFF7FEFF 		bl	HAL_DMA_IRQHandler
 259:Core/Src/stm32h7xx_it.c ****   /* USER CODE BEGIN DMA1_Stream4_IRQn 1 */
 260:Core/Src/stm32h7xx_it.c **** 
 261:Core/Src/stm32h7xx_it.c ****   /* USER CODE END DMA1_Stream4_IRQn 1 */
 262:Core/Src/stm32h7xx_it.c **** }
 354              		.loc 1 262 1
 355 000a 00BF     		nop
 356 000c 80BD     		pop	{r7, pc}
 357              	.L26:
 358 000e 00BF     		.align	2
 359              	.L25:
 360 0010 00000000 		.word	hdma_uart7_tx
 361              		.cfi_endproc
 362              	.LFE154:
 364              		.section	.text.DMA1_Stream5_IRQHandler,"ax",%progbits
 365              		.align	1
 366              		.global	DMA1_Stream5_IRQHandler
 367              		.syntax unified
 368              		.thumb
 369              		.thumb_func
 371              	DMA1_Stream5_IRQHandler:
 372              	.LFB155:
 263:Core/Src/stm32h7xx_it.c **** 
 264:Core/Src/stm32h7xx_it.c **** /**
 265:Core/Src/stm32h7xx_it.c ****   * @brief This function handles DMA1 stream5 global interrupt.
 266:Core/Src/stm32h7xx_it.c ****   */
 267:Core/Src/stm32h7xx_it.c **** void DMA1_Stream5_IRQHandler(void)
 268:Core/Src/stm32h7xx_it.c **** {
 373              		.loc 1 268 1
 374              		.cfi_startproc
 375              		@ args = 0, pretend = 0, frame = 0
 376              		@ frame_needed = 1, uses_anonymous_args = 0
 377 0000 80B5     		push	{r7, lr}
 378              	.LCFI24:
 379              		.cfi_def_cfa_offset 8
 380              		.cfi_offset 7, -8
 381              		.cfi_offset 14, -4
 382 0002 00AF     		add	r7, sp, #0
ARM GAS  C:\Users\23671\AppData\Local\Temp\cc9PLfNh.s 			page 12


 383              	.LCFI25:
 384              		.cfi_def_cfa_register 7
 269:Core/Src/stm32h7xx_it.c ****   /* USER CODE BEGIN DMA1_Stream5_IRQn 0 */
 270:Core/Src/stm32h7xx_it.c **** 
 271:Core/Src/stm32h7xx_it.c ****   /* USER CODE END DMA1_Stream5_IRQn 0 */
 272:Core/Src/stm32h7xx_it.c ****   HAL_DMA_IRQHandler(&hdma_usart10_rx);
 385              		.loc 1 272 3
 386 0004 0248     		ldr	r0, .L28
 387 0006 FFF7FEFF 		bl	HAL_DMA_IRQHandler
 273:Core/Src/stm32h7xx_it.c ****   /* USER CODE BEGIN DMA1_Stream5_IRQn 1 */
 274:Core/Src/stm32h7xx_it.c **** 
 275:Core/Src/stm32h7xx_it.c ****   /* USER CODE END DMA1_Stream5_IRQn 1 */
 276:Core/Src/stm32h7xx_it.c **** }
 388              		.loc 1 276 1
 389 000a 00BF     		nop
 390 000c 80BD     		pop	{r7, pc}
 391              	.L29:
 392 000e 00BF     		.align	2
 393              	.L28:
 394 0010 00000000 		.word	hdma_usart10_rx
 395              		.cfi_endproc
 396              	.LFE155:
 398              		.section	.text.DMA1_Stream6_IRQHandler,"ax",%progbits
 399              		.align	1
 400              		.global	DMA1_Stream6_IRQHandler
 401              		.syntax unified
 402              		.thumb
 403              		.thumb_func
 405              	DMA1_Stream6_IRQHandler:
 406              	.LFB156:
 277:Core/Src/stm32h7xx_it.c **** 
 278:Core/Src/stm32h7xx_it.c **** /**
 279:Core/Src/stm32h7xx_it.c ****   * @brief This function handles DMA1 stream6 global interrupt.
 280:Core/Src/stm32h7xx_it.c ****   */
 281:Core/Src/stm32h7xx_it.c **** void DMA1_Stream6_IRQHandler(void)
 282:Core/Src/stm32h7xx_it.c **** {
 407              		.loc 1 282 1
 408              		.cfi_startproc
 409              		@ args = 0, pretend = 0, frame = 0
 410              		@ frame_needed = 1, uses_anonymous_args = 0
 411 0000 80B5     		push	{r7, lr}
 412              	.LCFI26:
 413              		.cfi_def_cfa_offset 8
 414              		.cfi_offset 7, -8
 415              		.cfi_offset 14, -4
 416 0002 00AF     		add	r7, sp, #0
 417              	.LCFI27:
 418              		.cfi_def_cfa_register 7
 283:Core/Src/stm32h7xx_it.c ****   /* USER CODE BEGIN DMA1_Stream6_IRQn 0 */
 284:Core/Src/stm32h7xx_it.c **** 
 285:Core/Src/stm32h7xx_it.c ****   /* USER CODE END DMA1_Stream6_IRQn 0 */
 286:Core/Src/stm32h7xx_it.c ****   HAL_DMA_IRQHandler(&hdma_usart10_tx);
 419              		.loc 1 286 3
 420 0004 0248     		ldr	r0, .L31
 421 0006 FFF7FEFF 		bl	HAL_DMA_IRQHandler
 287:Core/Src/stm32h7xx_it.c ****   /* USER CODE BEGIN DMA1_Stream6_IRQn 1 */
 288:Core/Src/stm32h7xx_it.c **** 
ARM GAS  C:\Users\23671\AppData\Local\Temp\cc9PLfNh.s 			page 13


 289:Core/Src/stm32h7xx_it.c ****   /* USER CODE END DMA1_Stream6_IRQn 1 */
 290:Core/Src/stm32h7xx_it.c **** }
 422              		.loc 1 290 1
 423 000a 00BF     		nop
 424 000c 80BD     		pop	{r7, pc}
 425              	.L32:
 426 000e 00BF     		.align	2
 427              	.L31:
 428 0010 00000000 		.word	hdma_usart10_tx
 429              		.cfi_endproc
 430              	.LFE156:
 432              		.section	.text.FDCAN1_IT0_IRQHandler,"ax",%progbits
 433              		.align	1
 434              		.global	FDCAN1_IT0_IRQHandler
 435              		.syntax unified
 436              		.thumb
 437              		.thumb_func
 439              	FDCAN1_IT0_IRQHandler:
 440              	.LFB157:
 291:Core/Src/stm32h7xx_it.c **** 
 292:Core/Src/stm32h7xx_it.c **** /**
 293:Core/Src/stm32h7xx_it.c ****   * @brief This function handles FDCAN1 interrupt 0.
 294:Core/Src/stm32h7xx_it.c ****   */
 295:Core/Src/stm32h7xx_it.c **** void FDCAN1_IT0_IRQHandler(void)
 296:Core/Src/stm32h7xx_it.c **** {
 441              		.loc 1 296 1
 442              		.cfi_startproc
 443              		@ args = 0, pretend = 0, frame = 0
 444              		@ frame_needed = 1, uses_anonymous_args = 0
 445 0000 80B5     		push	{r7, lr}
 446              	.LCFI28:
 447              		.cfi_def_cfa_offset 8
 448              		.cfi_offset 7, -8
 449              		.cfi_offset 14, -4
 450 0002 00AF     		add	r7, sp, #0
 451              	.LCFI29:
 452              		.cfi_def_cfa_register 7
 297:Core/Src/stm32h7xx_it.c ****   /* USER CODE BEGIN FDCAN1_IT0_IRQn 0 */
 298:Core/Src/stm32h7xx_it.c **** 
 299:Core/Src/stm32h7xx_it.c ****   /* USER CODE END FDCAN1_IT0_IRQn 0 */
 300:Core/Src/stm32h7xx_it.c ****   HAL_FDCAN_IRQHandler(&hfdcan1);
 453              		.loc 1 300 3
 454 0004 0248     		ldr	r0, .L34
 455 0006 FFF7FEFF 		bl	HAL_FDCAN_IRQHandler
 301:Core/Src/stm32h7xx_it.c ****   /* USER CODE BEGIN FDCAN1_IT0_IRQn 1 */
 302:Core/Src/stm32h7xx_it.c **** 
 303:Core/Src/stm32h7xx_it.c ****   /* USER CODE END FDCAN1_IT0_IRQn 1 */
 304:Core/Src/stm32h7xx_it.c **** }
 456              		.loc 1 304 1
 457 000a 00BF     		nop
 458 000c 80BD     		pop	{r7, pc}
 459              	.L35:
 460 000e 00BF     		.align	2
 461              	.L34:
 462 0010 00000000 		.word	hfdcan1
 463              		.cfi_endproc
 464              	.LFE157:
ARM GAS  C:\Users\23671\AppData\Local\Temp\cc9PLfNh.s 			page 14


 466              		.section	.text.FDCAN2_IT0_IRQHandler,"ax",%progbits
 467              		.align	1
 468              		.global	FDCAN2_IT0_IRQHandler
 469              		.syntax unified
 470              		.thumb
 471              		.thumb_func
 473              	FDCAN2_IT0_IRQHandler:
 474              	.LFB158:
 305:Core/Src/stm32h7xx_it.c **** 
 306:Core/Src/stm32h7xx_it.c **** /**
 307:Core/Src/stm32h7xx_it.c ****   * @brief This function handles FDCAN2 interrupt 0.
 308:Core/Src/stm32h7xx_it.c ****   */
 309:Core/Src/stm32h7xx_it.c **** void FDCAN2_IT0_IRQHandler(void)
 310:Core/Src/stm32h7xx_it.c **** {
 475              		.loc 1 310 1
 476              		.cfi_startproc
 477              		@ args = 0, pretend = 0, frame = 0
 478              		@ frame_needed = 1, uses_anonymous_args = 0
 479 0000 80B5     		push	{r7, lr}
 480              	.LCFI30:
 481              		.cfi_def_cfa_offset 8
 482              		.cfi_offset 7, -8
 483              		.cfi_offset 14, -4
 484 0002 00AF     		add	r7, sp, #0
 485              	.LCFI31:
 486              		.cfi_def_cfa_register 7
 311:Core/Src/stm32h7xx_it.c ****   /* USER CODE BEGIN FDCAN2_IT0_IRQn 0 */
 312:Core/Src/stm32h7xx_it.c **** 
 313:Core/Src/stm32h7xx_it.c ****   /* USER CODE END FDCAN2_IT0_IRQn 0 */
 314:Core/Src/stm32h7xx_it.c ****   HAL_FDCAN_IRQHandler(&hfdcan2);
 487              		.loc 1 314 3
 488 0004 0248     		ldr	r0, .L37
 489 0006 FFF7FEFF 		bl	HAL_FDCAN_IRQHandler
 315:Core/Src/stm32h7xx_it.c ****   /* USER CODE BEGIN FDCAN2_IT0_IRQn 1 */
 316:Core/Src/stm32h7xx_it.c **** 
 317:Core/Src/stm32h7xx_it.c ****   /* USER CODE END FDCAN2_IT0_IRQn 1 */
 318:Core/Src/stm32h7xx_it.c **** }
 490              		.loc 1 318 1
 491 000a 00BF     		nop
 492 000c 80BD     		pop	{r7, pc}
 493              	.L38:
 494 000e 00BF     		.align	2
 495              	.L37:
 496 0010 00000000 		.word	hfdcan2
 497              		.cfi_endproc
 498              	.LFE158:
 500              		.section	.text.FDCAN1_IT1_IRQHandler,"ax",%progbits
 501              		.align	1
 502              		.global	FDCAN1_IT1_IRQHandler
 503              		.syntax unified
 504              		.thumb
 505              		.thumb_func
 507              	FDCAN1_IT1_IRQHandler:
 508              	.LFB159:
 319:Core/Src/stm32h7xx_it.c **** 
 320:Core/Src/stm32h7xx_it.c **** /**
 321:Core/Src/stm32h7xx_it.c ****   * @brief This function handles FDCAN1 interrupt 1.
ARM GAS  C:\Users\23671\AppData\Local\Temp\cc9PLfNh.s 			page 15


 322:Core/Src/stm32h7xx_it.c ****   */
 323:Core/Src/stm32h7xx_it.c **** void FDCAN1_IT1_IRQHandler(void)
 324:Core/Src/stm32h7xx_it.c **** {
 509              		.loc 1 324 1
 510              		.cfi_startproc
 511              		@ args = 0, pretend = 0, frame = 0
 512              		@ frame_needed = 1, uses_anonymous_args = 0
 513 0000 80B5     		push	{r7, lr}
 514              	.LCFI32:
 515              		.cfi_def_cfa_offset 8
 516              		.cfi_offset 7, -8
 517              		.cfi_offset 14, -4
 518 0002 00AF     		add	r7, sp, #0
 519              	.LCFI33:
 520              		.cfi_def_cfa_register 7
 325:Core/Src/stm32h7xx_it.c ****   /* USER CODE BEGIN FDCAN1_IT1_IRQn 0 */
 326:Core/Src/stm32h7xx_it.c **** 
 327:Core/Src/stm32h7xx_it.c ****   /* USER CODE END FDCAN1_IT1_IRQn 0 */
 328:Core/Src/stm32h7xx_it.c ****   HAL_FDCAN_IRQHandler(&hfdcan1);
 521              		.loc 1 328 3
 522 0004 0248     		ldr	r0, .L40
 523 0006 FFF7FEFF 		bl	HAL_FDCAN_IRQHandler
 329:Core/Src/stm32h7xx_it.c ****   /* USER CODE BEGIN FDCAN1_IT1_IRQn 1 */
 330:Core/Src/stm32h7xx_it.c **** 
 331:Core/Src/stm32h7xx_it.c ****   /* USER CODE END FDCAN1_IT1_IRQn 1 */
 332:Core/Src/stm32h7xx_it.c **** }
 524              		.loc 1 332 1
 525 000a 00BF     		nop
 526 000c 80BD     		pop	{r7, pc}
 527              	.L41:
 528 000e 00BF     		.align	2
 529              	.L40:
 530 0010 00000000 		.word	hfdcan1
 531              		.cfi_endproc
 532              	.LFE159:
 534              		.section	.text.FDCAN2_IT1_IRQHandler,"ax",%progbits
 535              		.align	1
 536              		.global	FDCAN2_IT1_IRQHandler
 537              		.syntax unified
 538              		.thumb
 539              		.thumb_func
 541              	FDCAN2_IT1_IRQHandler:
 542              	.LFB160:
 333:Core/Src/stm32h7xx_it.c **** 
 334:Core/Src/stm32h7xx_it.c **** /**
 335:Core/Src/stm32h7xx_it.c ****   * @brief This function handles FDCAN2 interrupt 1.
 336:Core/Src/stm32h7xx_it.c ****   */
 337:Core/Src/stm32h7xx_it.c **** void FDCAN2_IT1_IRQHandler(void)
 338:Core/Src/stm32h7xx_it.c **** {
 543              		.loc 1 338 1
 544              		.cfi_startproc
 545              		@ args = 0, pretend = 0, frame = 0
 546              		@ frame_needed = 1, uses_anonymous_args = 0
 547 0000 80B5     		push	{r7, lr}
 548              	.LCFI34:
 549              		.cfi_def_cfa_offset 8
 550              		.cfi_offset 7, -8
ARM GAS  C:\Users\23671\AppData\Local\Temp\cc9PLfNh.s 			page 16


 551              		.cfi_offset 14, -4
 552 0002 00AF     		add	r7, sp, #0
 553              	.LCFI35:
 554              		.cfi_def_cfa_register 7
 339:Core/Src/stm32h7xx_it.c ****   /* USER CODE BEGIN FDCAN2_IT1_IRQn 0 */
 340:Core/Src/stm32h7xx_it.c **** 
 341:Core/Src/stm32h7xx_it.c ****   /* USER CODE END FDCAN2_IT1_IRQn 0 */
 342:Core/Src/stm32h7xx_it.c ****   HAL_FDCAN_IRQHandler(&hfdcan2);
 555              		.loc 1 342 3
 556 0004 0248     		ldr	r0, .L43
 557 0006 FFF7FEFF 		bl	HAL_FDCAN_IRQHandler
 343:Core/Src/stm32h7xx_it.c ****   /* USER CODE BEGIN FDCAN2_IT1_IRQn 1 */
 344:Core/Src/stm32h7xx_it.c **** 
 345:Core/Src/stm32h7xx_it.c ****   /* USER CODE END FDCAN2_IT1_IRQn 1 */
 346:Core/Src/stm32h7xx_it.c **** }
 558              		.loc 1 346 1
 559 000a 00BF     		nop
 560 000c 80BD     		pop	{r7, pc}
 561              	.L44:
 562 000e 00BF     		.align	2
 563              	.L43:
 564 0010 00000000 		.word	hfdcan2
 565              		.cfi_endproc
 566              	.LFE160:
 568              		.section	.text.SPI2_IRQHandler,"ax",%progbits
 569              		.align	1
 570              		.global	SPI2_IRQHandler
 571              		.syntax unified
 572              		.thumb
 573              		.thumb_func
 575              	SPI2_IRQHandler:
 576              	.LFB161:
 347:Core/Src/stm32h7xx_it.c **** 
 348:Core/Src/stm32h7xx_it.c **** /**
 349:Core/Src/stm32h7xx_it.c ****   * @brief This function handles SPI2 global interrupt.
 350:Core/Src/stm32h7xx_it.c ****   */
 351:Core/Src/stm32h7xx_it.c **** void SPI2_IRQHandler(void)
 352:Core/Src/stm32h7xx_it.c **** {
 577              		.loc 1 352 1
 578              		.cfi_startproc
 579              		@ args = 0, pretend = 0, frame = 0
 580              		@ frame_needed = 1, uses_anonymous_args = 0
 581 0000 80B5     		push	{r7, lr}
 582              	.LCFI36:
 583              		.cfi_def_cfa_offset 8
 584              		.cfi_offset 7, -8
 585              		.cfi_offset 14, -4
 586 0002 00AF     		add	r7, sp, #0
 587              	.LCFI37:
 588              		.cfi_def_cfa_register 7
 353:Core/Src/stm32h7xx_it.c ****   /* USER CODE BEGIN SPI2_IRQn 0 */
 354:Core/Src/stm32h7xx_it.c **** 
 355:Core/Src/stm32h7xx_it.c ****   /* USER CODE END SPI2_IRQn 0 */
 356:Core/Src/stm32h7xx_it.c ****   HAL_SPI_IRQHandler(&hspi2);
 589              		.loc 1 356 3
 590 0004 0248     		ldr	r0, .L46
 591 0006 FFF7FEFF 		bl	HAL_SPI_IRQHandler
ARM GAS  C:\Users\23671\AppData\Local\Temp\cc9PLfNh.s 			page 17


 357:Core/Src/stm32h7xx_it.c ****   /* USER CODE BEGIN SPI2_IRQn 1 */
 358:Core/Src/stm32h7xx_it.c **** 
 359:Core/Src/stm32h7xx_it.c ****   /* USER CODE END SPI2_IRQn 1 */
 360:Core/Src/stm32h7xx_it.c **** }
 592              		.loc 1 360 1
 593 000a 00BF     		nop
 594 000c 80BD     		pop	{r7, pc}
 595              	.L47:
 596 000e 00BF     		.align	2
 597              	.L46:
 598 0010 00000000 		.word	hspi2
 599              		.cfi_endproc
 600              	.LFE161:
 602              		.section	.text.USART1_IRQHandler,"ax",%progbits
 603              		.align	1
 604              		.global	USART1_IRQHandler
 605              		.syntax unified
 606              		.thumb
 607              		.thumb_func
 609              	USART1_IRQHandler:
 610              	.LFB162:
 361:Core/Src/stm32h7xx_it.c **** 
 362:Core/Src/stm32h7xx_it.c **** /**
 363:Core/Src/stm32h7xx_it.c ****   * @brief This function handles USART1 global interrupt.
 364:Core/Src/stm32h7xx_it.c ****   */
 365:Core/Src/stm32h7xx_it.c **** void USART1_IRQHandler(void)
 366:Core/Src/stm32h7xx_it.c **** {
 611              		.loc 1 366 1
 612              		.cfi_startproc
 613              		@ args = 0, pretend = 0, frame = 0
 614              		@ frame_needed = 1, uses_anonymous_args = 0
 615 0000 80B5     		push	{r7, lr}
 616              	.LCFI38:
 617              		.cfi_def_cfa_offset 8
 618              		.cfi_offset 7, -8
 619              		.cfi_offset 14, -4
 620 0002 00AF     		add	r7, sp, #0
 621              	.LCFI39:
 622              		.cfi_def_cfa_register 7
 367:Core/Src/stm32h7xx_it.c ****   /* USER CODE BEGIN USART1_IRQn 0 */
 368:Core/Src/stm32h7xx_it.c **** 
 369:Core/Src/stm32h7xx_it.c ****   /* USER CODE END USART1_IRQn 0 */
 370:Core/Src/stm32h7xx_it.c ****   HAL_UART_IRQHandler(&huart1);
 623              		.loc 1 370 3
 624 0004 0248     		ldr	r0, .L49
 625 0006 FFF7FEFF 		bl	HAL_UART_IRQHandler
 371:Core/Src/stm32h7xx_it.c ****   /* USER CODE BEGIN USART1_IRQn 1 */
 372:Core/Src/stm32h7xx_it.c **** 
 373:Core/Src/stm32h7xx_it.c ****   /* USER CODE END USART1_IRQn 1 */
 374:Core/Src/stm32h7xx_it.c **** }
 626              		.loc 1 374 1
 627 000a 00BF     		nop
 628 000c 80BD     		pop	{r7, pc}
 629              	.L50:
 630 000e 00BF     		.align	2
 631              	.L49:
 632 0010 00000000 		.word	huart1
ARM GAS  C:\Users\23671\AppData\Local\Temp\cc9PLfNh.s 			page 18


 633              		.cfi_endproc
 634              	.LFE162:
 636              		.section	.text.USART2_IRQHandler,"ax",%progbits
 637              		.align	1
 638              		.global	USART2_IRQHandler
 639              		.syntax unified
 640              		.thumb
 641              		.thumb_func
 643              	USART2_IRQHandler:
 644              	.LFB163:
 375:Core/Src/stm32h7xx_it.c **** 
 376:Core/Src/stm32h7xx_it.c **** /**
 377:Core/Src/stm32h7xx_it.c ****   * @brief This function handles USART2 global interrupt.
 378:Core/Src/stm32h7xx_it.c ****   */
 379:Core/Src/stm32h7xx_it.c **** void USART2_IRQHandler(void)
 380:Core/Src/stm32h7xx_it.c **** {
 645              		.loc 1 380 1
 646              		.cfi_startproc
 647              		@ args = 0, pretend = 0, frame = 0
 648              		@ frame_needed = 1, uses_anonymous_args = 0
 649 0000 80B5     		push	{r7, lr}
 650              	.LCFI40:
 651              		.cfi_def_cfa_offset 8
 652              		.cfi_offset 7, -8
 653              		.cfi_offset 14, -4
 654 0002 00AF     		add	r7, sp, #0
 655              	.LCFI41:
 656              		.cfi_def_cfa_register 7
 381:Core/Src/stm32h7xx_it.c ****   /* USER CODE BEGIN USART2_IRQn 0 */
 382:Core/Src/stm32h7xx_it.c **** 
 383:Core/Src/stm32h7xx_it.c ****   /* USER CODE END USART2_IRQn 0 */
 384:Core/Src/stm32h7xx_it.c ****   HAL_UART_IRQHandler(&huart2);
 657              		.loc 1 384 3
 658 0004 0248     		ldr	r0, .L52
 659 0006 FFF7FEFF 		bl	HAL_UART_IRQHandler
 385:Core/Src/stm32h7xx_it.c ****   /* USER CODE BEGIN USART2_IRQn 1 */
 386:Core/Src/stm32h7xx_it.c **** 
 387:Core/Src/stm32h7xx_it.c ****   /* USER CODE END USART2_IRQn 1 */
 388:Core/Src/stm32h7xx_it.c **** }
 660              		.loc 1 388 1
 661 000a 00BF     		nop
 662 000c 80BD     		pop	{r7, pc}
 663              	.L53:
 664 000e 00BF     		.align	2
 665              	.L52:
 666 0010 00000000 		.word	huart2
 667              		.cfi_endproc
 668              	.LFE163:
 670              		.section	.text.USART3_IRQHandler,"ax",%progbits
 671              		.align	1
 672              		.global	USART3_IRQHandler
 673              		.syntax unified
 674              		.thumb
 675              		.thumb_func
 677              	USART3_IRQHandler:
 678              	.LFB164:
 389:Core/Src/stm32h7xx_it.c **** 
ARM GAS  C:\Users\23671\AppData\Local\Temp\cc9PLfNh.s 			page 19


 390:Core/Src/stm32h7xx_it.c **** /**
 391:Core/Src/stm32h7xx_it.c ****   * @brief This function handles USART3 global interrupt.
 392:Core/Src/stm32h7xx_it.c ****   */
 393:Core/Src/stm32h7xx_it.c **** void USART3_IRQHandler(void)
 394:Core/Src/stm32h7xx_it.c **** {
 679              		.loc 1 394 1
 680              		.cfi_startproc
 681              		@ args = 0, pretend = 0, frame = 0
 682              		@ frame_needed = 1, uses_anonymous_args = 0
 683 0000 80B5     		push	{r7, lr}
 684              	.LCFI42:
 685              		.cfi_def_cfa_offset 8
 686              		.cfi_offset 7, -8
 687              		.cfi_offset 14, -4
 688 0002 00AF     		add	r7, sp, #0
 689              	.LCFI43:
 690              		.cfi_def_cfa_register 7
 395:Core/Src/stm32h7xx_it.c ****   /* USER CODE BEGIN USART3_IRQn 0 */
 396:Core/Src/stm32h7xx_it.c **** 
 397:Core/Src/stm32h7xx_it.c ****   /* USER CODE END USART3_IRQn 0 */
 398:Core/Src/stm32h7xx_it.c ****   HAL_UART_IRQHandler(&huart3);
 691              		.loc 1 398 3
 692 0004 0248     		ldr	r0, .L55
 693 0006 FFF7FEFF 		bl	HAL_UART_IRQHandler
 399:Core/Src/stm32h7xx_it.c ****   /* USER CODE BEGIN USART3_IRQn 1 */
 400:Core/Src/stm32h7xx_it.c **** 
 401:Core/Src/stm32h7xx_it.c ****   /* USER CODE END USART3_IRQn 1 */
 402:Core/Src/stm32h7xx_it.c **** }
 694              		.loc 1 402 1
 695 000a 00BF     		nop
 696 000c 80BD     		pop	{r7, pc}
 697              	.L56:
 698 000e 00BF     		.align	2
 699              	.L55:
 700 0010 00000000 		.word	huart3
 701              		.cfi_endproc
 702              	.LFE164:
 704              		.section	.text.TIM8_BRK_TIM12_IRQHandler,"ax",%progbits
 705              		.align	1
 706              		.global	TIM8_BRK_TIM12_IRQHandler
 707              		.syntax unified
 708              		.thumb
 709              		.thumb_func
 711              	TIM8_BRK_TIM12_IRQHandler:
 712              	.LFB165:
 403:Core/Src/stm32h7xx_it.c **** 
 404:Core/Src/stm32h7xx_it.c **** /**
 405:Core/Src/stm32h7xx_it.c ****   * @brief This function handles TIM8 break interrupt and TIM12 global interrupt.
 406:Core/Src/stm32h7xx_it.c ****   */
 407:Core/Src/stm32h7xx_it.c **** void TIM8_BRK_TIM12_IRQHandler(void)
 408:Core/Src/stm32h7xx_it.c **** {
 713              		.loc 1 408 1
 714              		.cfi_startproc
 715              		@ args = 0, pretend = 0, frame = 0
 716              		@ frame_needed = 1, uses_anonymous_args = 0
 717 0000 80B5     		push	{r7, lr}
 718              	.LCFI44:
ARM GAS  C:\Users\23671\AppData\Local\Temp\cc9PLfNh.s 			page 20


 719              		.cfi_def_cfa_offset 8
 720              		.cfi_offset 7, -8
 721              		.cfi_offset 14, -4
 722 0002 00AF     		add	r7, sp, #0
 723              	.LCFI45:
 724              		.cfi_def_cfa_register 7
 409:Core/Src/stm32h7xx_it.c ****   /* USER CODE BEGIN TIM8_BRK_TIM12_IRQn 0 */
 410:Core/Src/stm32h7xx_it.c **** 
 411:Core/Src/stm32h7xx_it.c ****   /* USER CODE END TIM8_BRK_TIM12_IRQn 0 */
 412:Core/Src/stm32h7xx_it.c ****   HAL_TIM_IRQHandler(&htim12);
 725              		.loc 1 412 3
 726 0004 0248     		ldr	r0, .L58
 727 0006 FFF7FEFF 		bl	HAL_TIM_IRQHandler
 413:Core/Src/stm32h7xx_it.c ****   /* USER CODE BEGIN TIM8_BRK_TIM12_IRQn 1 */
 414:Core/Src/stm32h7xx_it.c **** 
 415:Core/Src/stm32h7xx_it.c ****   /* USER CODE END TIM8_BRK_TIM12_IRQn 1 */
 416:Core/Src/stm32h7xx_it.c **** }
 728              		.loc 1 416 1
 729 000a 00BF     		nop
 730 000c 80BD     		pop	{r7, pc}
 731              	.L59:
 732 000e 00BF     		.align	2
 733              	.L58:
 734 0010 00000000 		.word	htim12
 735              		.cfi_endproc
 736              	.LFE165:
 738              		.section	.text.TIM8_UP_TIM13_IRQHandler,"ax",%progbits
 739              		.align	1
 740              		.global	TIM8_UP_TIM13_IRQHandler
 741              		.syntax unified
 742              		.thumb
 743              		.thumb_func
 745              	TIM8_UP_TIM13_IRQHandler:
 746              	.LFB166:
 417:Core/Src/stm32h7xx_it.c **** 
 418:Core/Src/stm32h7xx_it.c **** /**
 419:Core/Src/stm32h7xx_it.c ****   * @brief This function handles TIM8 update interrupt and TIM13 global interrupt.
 420:Core/Src/stm32h7xx_it.c ****   */
 421:Core/Src/stm32h7xx_it.c **** void TIM8_UP_TIM13_IRQHandler(void)
 422:Core/Src/stm32h7xx_it.c **** {
 747              		.loc 1 422 1
 748              		.cfi_startproc
 749              		@ args = 0, pretend = 0, frame = 0
 750              		@ frame_needed = 1, uses_anonymous_args = 0
 751 0000 80B5     		push	{r7, lr}
 752              	.LCFI46:
 753              		.cfi_def_cfa_offset 8
 754              		.cfi_offset 7, -8
 755              		.cfi_offset 14, -4
 756 0002 00AF     		add	r7, sp, #0
 757              	.LCFI47:
 758              		.cfi_def_cfa_register 7
 423:Core/Src/stm32h7xx_it.c ****   /* USER CODE BEGIN TIM8_UP_TIM13_IRQn 0 */
 424:Core/Src/stm32h7xx_it.c **** 
 425:Core/Src/stm32h7xx_it.c ****   /* USER CODE END TIM8_UP_TIM13_IRQn 0 */
 426:Core/Src/stm32h7xx_it.c ****   HAL_TIM_IRQHandler(&htim13);
 759              		.loc 1 426 3
ARM GAS  C:\Users\23671\AppData\Local\Temp\cc9PLfNh.s 			page 21


 760 0004 0248     		ldr	r0, .L61
 761 0006 FFF7FEFF 		bl	HAL_TIM_IRQHandler
 427:Core/Src/stm32h7xx_it.c ****   /* USER CODE BEGIN TIM8_UP_TIM13_IRQn 1 */
 428:Core/Src/stm32h7xx_it.c **** 
 429:Core/Src/stm32h7xx_it.c ****   /* USER CODE END TIM8_UP_TIM13_IRQn 1 */
 430:Core/Src/stm32h7xx_it.c **** }
 762              		.loc 1 430 1
 763 000a 00BF     		nop
 764 000c 80BD     		pop	{r7, pc}
 765              	.L62:
 766 000e 00BF     		.align	2
 767              	.L61:
 768 0010 00000000 		.word	htim13
 769              		.cfi_endproc
 770              	.LFE166:
 772              		.section	.text.TIM8_TRG_COM_TIM14_IRQHandler,"ax",%progbits
 773              		.align	1
 774              		.global	TIM8_TRG_COM_TIM14_IRQHandler
 775              		.syntax unified
 776              		.thumb
 777              		.thumb_func
 779              	TIM8_TRG_COM_TIM14_IRQHandler:
 780              	.LFB167:
 431:Core/Src/stm32h7xx_it.c **** 
 432:Core/Src/stm32h7xx_it.c **** /**
 433:Core/Src/stm32h7xx_it.c ****   * @brief This function handles TIM8 trigger and commutation interrupts and TIM14 global interrupt
 434:Core/Src/stm32h7xx_it.c ****   */
 435:Core/Src/stm32h7xx_it.c **** void TIM8_TRG_COM_TIM14_IRQHandler(void)
 436:Core/Src/stm32h7xx_it.c **** {
 781              		.loc 1 436 1
 782              		.cfi_startproc
 783              		@ args = 0, pretend = 0, frame = 0
 784              		@ frame_needed = 1, uses_anonymous_args = 0
 785 0000 80B5     		push	{r7, lr}
 786              	.LCFI48:
 787              		.cfi_def_cfa_offset 8
 788              		.cfi_offset 7, -8
 789              		.cfi_offset 14, -4
 790 0002 00AF     		add	r7, sp, #0
 791              	.LCFI49:
 792              		.cfi_def_cfa_register 7
 437:Core/Src/stm32h7xx_it.c ****   /* USER CODE BEGIN TIM8_TRG_COM_TIM14_IRQn 0 */
 438:Core/Src/stm32h7xx_it.c **** 
 439:Core/Src/stm32h7xx_it.c ****   /* USER CODE END TIM8_TRG_COM_TIM14_IRQn 0 */
 440:Core/Src/stm32h7xx_it.c ****   HAL_TIM_IRQHandler(&htim14);
 793              		.loc 1 440 3
 794 0004 0248     		ldr	r0, .L64
 795 0006 FFF7FEFF 		bl	HAL_TIM_IRQHandler
 441:Core/Src/stm32h7xx_it.c ****   /* USER CODE BEGIN TIM8_TRG_COM_TIM14_IRQn 1 */
 442:Core/Src/stm32h7xx_it.c **** 
 443:Core/Src/stm32h7xx_it.c ****   /* USER CODE END TIM8_TRG_COM_TIM14_IRQn 1 */
 444:Core/Src/stm32h7xx_it.c **** }
 796              		.loc 1 444 1
 797 000a 00BF     		nop
 798 000c 80BD     		pop	{r7, pc}
 799              	.L65:
 800 000e 00BF     		.align	2
ARM GAS  C:\Users\23671\AppData\Local\Temp\cc9PLfNh.s 			page 22


 801              	.L64:
 802 0010 00000000 		.word	htim14
 803              		.cfi_endproc
 804              	.LFE167:
 806              		.section	.text.DMA1_Stream7_IRQHandler,"ax",%progbits
 807              		.align	1
 808              		.global	DMA1_Stream7_IRQHandler
 809              		.syntax unified
 810              		.thumb
 811              		.thumb_func
 813              	DMA1_Stream7_IRQHandler:
 814              	.LFB168:
 445:Core/Src/stm32h7xx_it.c **** 
 446:Core/Src/stm32h7xx_it.c **** /**
 447:Core/Src/stm32h7xx_it.c ****   * @brief This function handles DMA1 stream7 global interrupt.
 448:Core/Src/stm32h7xx_it.c ****   */
 449:Core/Src/stm32h7xx_it.c **** void DMA1_Stream7_IRQHandler(void)
 450:Core/Src/stm32h7xx_it.c **** {
 815              		.loc 1 450 1
 816              		.cfi_startproc
 817              		@ args = 0, pretend = 0, frame = 0
 818              		@ frame_needed = 1, uses_anonymous_args = 0
 819 0000 80B5     		push	{r7, lr}
 820              	.LCFI50:
 821              		.cfi_def_cfa_offset 8
 822              		.cfi_offset 7, -8
 823              		.cfi_offset 14, -4
 824 0002 00AF     		add	r7, sp, #0
 825              	.LCFI51:
 826              		.cfi_def_cfa_register 7
 451:Core/Src/stm32h7xx_it.c ****   /* USER CODE BEGIN DMA1_Stream7_IRQn 0 */
 452:Core/Src/stm32h7xx_it.c **** 
 453:Core/Src/stm32h7xx_it.c ****   /* USER CODE END DMA1_Stream7_IRQn 0 */
 454:Core/Src/stm32h7xx_it.c ****   HAL_DMA_IRQHandler(&hdma_usart3_rx);
 827              		.loc 1 454 3
 828 0004 0248     		ldr	r0, .L67
 829 0006 FFF7FEFF 		bl	HAL_DMA_IRQHandler
 455:Core/Src/stm32h7xx_it.c ****   /* USER CODE BEGIN DMA1_Stream7_IRQn 1 */
 456:Core/Src/stm32h7xx_it.c **** 
 457:Core/Src/stm32h7xx_it.c ****   /* USER CODE END DMA1_Stream7_IRQn 1 */
 458:Core/Src/stm32h7xx_it.c **** }
 830              		.loc 1 458 1
 831 000a 00BF     		nop
 832 000c 80BD     		pop	{r7, pc}
 833              	.L68:
 834 000e 00BF     		.align	2
 835              	.L67:
 836 0010 00000000 		.word	hdma_usart3_rx
 837              		.cfi_endproc
 838              	.LFE168:
 840              		.section	.text.UART5_IRQHandler,"ax",%progbits
 841              		.align	1
 842              		.global	UART5_IRQHandler
 843              		.syntax unified
 844              		.thumb
 845              		.thumb_func
 847              	UART5_IRQHandler:
ARM GAS  C:\Users\23671\AppData\Local\Temp\cc9PLfNh.s 			page 23


 848              	.LFB169:
 459:Core/Src/stm32h7xx_it.c **** 
 460:Core/Src/stm32h7xx_it.c **** /**
 461:Core/Src/stm32h7xx_it.c ****   * @brief This function handles UART5 global interrupt.
 462:Core/Src/stm32h7xx_it.c ****   */
 463:Core/Src/stm32h7xx_it.c **** void UART5_IRQHandler(void)
 464:Core/Src/stm32h7xx_it.c **** {
 849              		.loc 1 464 1
 850              		.cfi_startproc
 851              		@ args = 0, pretend = 0, frame = 0
 852              		@ frame_needed = 1, uses_anonymous_args = 0
 853 0000 80B5     		push	{r7, lr}
 854              	.LCFI52:
 855              		.cfi_def_cfa_offset 8
 856              		.cfi_offset 7, -8
 857              		.cfi_offset 14, -4
 858 0002 00AF     		add	r7, sp, #0
 859              	.LCFI53:
 860              		.cfi_def_cfa_register 7
 465:Core/Src/stm32h7xx_it.c ****   /* USER CODE BEGIN UART5_IRQn 0 */
 466:Core/Src/stm32h7xx_it.c **** 
 467:Core/Src/stm32h7xx_it.c ****   /* USER CODE END UART5_IRQn 0 */
 468:Core/Src/stm32h7xx_it.c ****   HAL_UART_IRQHandler(&huart5);
 861              		.loc 1 468 3
 862 0004 0248     		ldr	r0, .L70
 863 0006 FFF7FEFF 		bl	HAL_UART_IRQHandler
 469:Core/Src/stm32h7xx_it.c ****   /* USER CODE BEGIN UART5_IRQn 1 */
 470:Core/Src/stm32h7xx_it.c **** 
 471:Core/Src/stm32h7xx_it.c ****   /* USER CODE END UART5_IRQn 1 */
 472:Core/Src/stm32h7xx_it.c **** }
 864              		.loc 1 472 1
 865 000a 00BF     		nop
 866 000c 80BD     		pop	{r7, pc}
 867              	.L71:
 868 000e 00BF     		.align	2
 869              	.L70:
 870 0010 00000000 		.word	huart5
 871              		.cfi_endproc
 872              	.LFE169:
 874              		.section	.text.DMA2_Stream0_IRQHandler,"ax",%progbits
 875              		.align	1
 876              		.global	DMA2_Stream0_IRQHandler
 877              		.syntax unified
 878              		.thumb
 879              		.thumb_func
 881              	DMA2_Stream0_IRQHandler:
 882              	.LFB170:
 473:Core/Src/stm32h7xx_it.c **** 
 474:Core/Src/stm32h7xx_it.c **** /**
 475:Core/Src/stm32h7xx_it.c ****   * @brief This function handles DMA2 stream0 global interrupt.
 476:Core/Src/stm32h7xx_it.c ****   */
 477:Core/Src/stm32h7xx_it.c **** void DMA2_Stream0_IRQHandler(void)
 478:Core/Src/stm32h7xx_it.c **** {
 883              		.loc 1 478 1
 884              		.cfi_startproc
 885              		@ args = 0, pretend = 0, frame = 0
 886              		@ frame_needed = 1, uses_anonymous_args = 0
ARM GAS  C:\Users\23671\AppData\Local\Temp\cc9PLfNh.s 			page 24


 887 0000 80B5     		push	{r7, lr}
 888              	.LCFI54:
 889              		.cfi_def_cfa_offset 8
 890              		.cfi_offset 7, -8
 891              		.cfi_offset 14, -4
 892 0002 00AF     		add	r7, sp, #0
 893              	.LCFI55:
 894              		.cfi_def_cfa_register 7
 479:Core/Src/stm32h7xx_it.c ****   /* USER CODE BEGIN DMA2_Stream0_IRQn 0 */
 480:Core/Src/stm32h7xx_it.c **** 
 481:Core/Src/stm32h7xx_it.c ****   /* USER CODE END DMA2_Stream0_IRQn 0 */
 482:Core/Src/stm32h7xx_it.c ****   HAL_DMA_IRQHandler(&hdma_usart3_tx);
 895              		.loc 1 482 3
 896 0004 0248     		ldr	r0, .L73
 897 0006 FFF7FEFF 		bl	HAL_DMA_IRQHandler
 483:Core/Src/stm32h7xx_it.c ****   /* USER CODE BEGIN DMA2_Stream0_IRQn 1 */
 484:Core/Src/stm32h7xx_it.c **** 
 485:Core/Src/stm32h7xx_it.c ****   /* USER CODE END DMA2_Stream0_IRQn 1 */
 486:Core/Src/stm32h7xx_it.c **** }
 898              		.loc 1 486 1
 899 000a 00BF     		nop
 900 000c 80BD     		pop	{r7, pc}
 901              	.L74:
 902 000e 00BF     		.align	2
 903              	.L73:
 904 0010 00000000 		.word	hdma_usart3_tx
 905              		.cfi_endproc
 906              	.LFE170:
 908              		.section	.text.DMA2_Stream1_IRQHandler,"ax",%progbits
 909              		.align	1
 910              		.global	DMA2_Stream1_IRQHandler
 911              		.syntax unified
 912              		.thumb
 913              		.thumb_func
 915              	DMA2_Stream1_IRQHandler:
 916              	.LFB171:
 487:Core/Src/stm32h7xx_it.c **** 
 488:Core/Src/stm32h7xx_it.c **** /**
 489:Core/Src/stm32h7xx_it.c ****   * @brief This function handles DMA2 stream1 global interrupt.
 490:Core/Src/stm32h7xx_it.c ****   */
 491:Core/Src/stm32h7xx_it.c **** void DMA2_Stream1_IRQHandler(void)
 492:Core/Src/stm32h7xx_it.c **** {
 917              		.loc 1 492 1
 918              		.cfi_startproc
 919              		@ args = 0, pretend = 0, frame = 0
 920              		@ frame_needed = 1, uses_anonymous_args = 0
 921 0000 80B5     		push	{r7, lr}
 922              	.LCFI56:
 923              		.cfi_def_cfa_offset 8
 924              		.cfi_offset 7, -8
 925              		.cfi_offset 14, -4
 926 0002 00AF     		add	r7, sp, #0
 927              	.LCFI57:
 928              		.cfi_def_cfa_register 7
 493:Core/Src/stm32h7xx_it.c ****   /* USER CODE BEGIN DMA2_Stream1_IRQn 0 */
 494:Core/Src/stm32h7xx_it.c **** 
 495:Core/Src/stm32h7xx_it.c ****   /* USER CODE END DMA2_Stream1_IRQn 0 */
ARM GAS  C:\Users\23671\AppData\Local\Temp\cc9PLfNh.s 			page 25


 496:Core/Src/stm32h7xx_it.c ****   HAL_DMA_IRQHandler(&hdma_usart2_rx);
 929              		.loc 1 496 3
 930 0004 0248     		ldr	r0, .L76
 931 0006 FFF7FEFF 		bl	HAL_DMA_IRQHandler
 497:Core/Src/stm32h7xx_it.c ****   /* USER CODE BEGIN DMA2_Stream1_IRQn 1 */
 498:Core/Src/stm32h7xx_it.c **** 
 499:Core/Src/stm32h7xx_it.c ****   /* USER CODE END DMA2_Stream1_IRQn 1 */
 500:Core/Src/stm32h7xx_it.c **** }
 932              		.loc 1 500 1
 933 000a 00BF     		nop
 934 000c 80BD     		pop	{r7, pc}
 935              	.L77:
 936 000e 00BF     		.align	2
 937              	.L76:
 938 0010 00000000 		.word	hdma_usart2_rx
 939              		.cfi_endproc
 940              	.LFE171:
 942              		.section	.text.DMA2_Stream2_IRQHandler,"ax",%progbits
 943              		.align	1
 944              		.global	DMA2_Stream2_IRQHandler
 945              		.syntax unified
 946              		.thumb
 947              		.thumb_func
 949              	DMA2_Stream2_IRQHandler:
 950              	.LFB172:
 501:Core/Src/stm32h7xx_it.c **** 
 502:Core/Src/stm32h7xx_it.c **** /**
 503:Core/Src/stm32h7xx_it.c ****   * @brief This function handles DMA2 stream2 global interrupt.
 504:Core/Src/stm32h7xx_it.c ****   */
 505:Core/Src/stm32h7xx_it.c **** void DMA2_Stream2_IRQHandler(void)
 506:Core/Src/stm32h7xx_it.c **** {
 951              		.loc 1 506 1
 952              		.cfi_startproc
 953              		@ args = 0, pretend = 0, frame = 0
 954              		@ frame_needed = 1, uses_anonymous_args = 0
 955 0000 80B5     		push	{r7, lr}
 956              	.LCFI58:
 957              		.cfi_def_cfa_offset 8
 958              		.cfi_offset 7, -8
 959              		.cfi_offset 14, -4
 960 0002 00AF     		add	r7, sp, #0
 961              	.LCFI59:
 962              		.cfi_def_cfa_register 7
 507:Core/Src/stm32h7xx_it.c ****   /* USER CODE BEGIN DMA2_Stream2_IRQn 0 */
 508:Core/Src/stm32h7xx_it.c **** 
 509:Core/Src/stm32h7xx_it.c ****   /* USER CODE END DMA2_Stream2_IRQn 0 */
 510:Core/Src/stm32h7xx_it.c ****   HAL_DMA_IRQHandler(&hdma_usart2_tx);
 963              		.loc 1 510 3
 964 0004 0248     		ldr	r0, .L79
 965 0006 FFF7FEFF 		bl	HAL_DMA_IRQHandler
 511:Core/Src/stm32h7xx_it.c ****   /* USER CODE BEGIN DMA2_Stream2_IRQn 1 */
 512:Core/Src/stm32h7xx_it.c **** 
 513:Core/Src/stm32h7xx_it.c ****   /* USER CODE END DMA2_Stream2_IRQn 1 */
 514:Core/Src/stm32h7xx_it.c **** }
 966              		.loc 1 514 1
 967 000a 00BF     		nop
 968 000c 80BD     		pop	{r7, pc}
ARM GAS  C:\Users\23671\AppData\Local\Temp\cc9PLfNh.s 			page 26


 969              	.L80:
 970 000e 00BF     		.align	2
 971              	.L79:
 972 0010 00000000 		.word	hdma_usart2_tx
 973              		.cfi_endproc
 974              	.LFE172:
 976              		.section	.text.DMA2_Stream3_IRQHandler,"ax",%progbits
 977              		.align	1
 978              		.global	DMA2_Stream3_IRQHandler
 979              		.syntax unified
 980              		.thumb
 981              		.thumb_func
 983              	DMA2_Stream3_IRQHandler:
 984              	.LFB173:
 515:Core/Src/stm32h7xx_it.c **** 
 516:Core/Src/stm32h7xx_it.c **** /**
 517:Core/Src/stm32h7xx_it.c ****   * @brief This function handles DMA2 stream3 global interrupt.
 518:Core/Src/stm32h7xx_it.c ****   */
 519:Core/Src/stm32h7xx_it.c **** void DMA2_Stream3_IRQHandler(void)
 520:Core/Src/stm32h7xx_it.c **** {
 985              		.loc 1 520 1
 986              		.cfi_startproc
 987              		@ args = 0, pretend = 0, frame = 0
 988              		@ frame_needed = 1, uses_anonymous_args = 0
 989 0000 80B5     		push	{r7, lr}
 990              	.LCFI60:
 991              		.cfi_def_cfa_offset 8
 992              		.cfi_offset 7, -8
 993              		.cfi_offset 14, -4
 994 0002 00AF     		add	r7, sp, #0
 995              	.LCFI61:
 996              		.cfi_def_cfa_register 7
 521:Core/Src/stm32h7xx_it.c ****   /* USER CODE BEGIN DMA2_Stream3_IRQn 0 */
 522:Core/Src/stm32h7xx_it.c **** 
 523:Core/Src/stm32h7xx_it.c ****   /* USER CODE END DMA2_Stream3_IRQn 0 */
 524:Core/Src/stm32h7xx_it.c ****   HAL_DMA_IRQHandler(&hdma_usart1_rx);
 997              		.loc 1 524 3
 998 0004 0248     		ldr	r0, .L82
 999 0006 FFF7FEFF 		bl	HAL_DMA_IRQHandler
 525:Core/Src/stm32h7xx_it.c ****   /* USER CODE BEGIN DMA2_Stream3_IRQn 1 */
 526:Core/Src/stm32h7xx_it.c **** 
 527:Core/Src/stm32h7xx_it.c ****   /* USER CODE END DMA2_Stream3_IRQn 1 */
 528:Core/Src/stm32h7xx_it.c **** }
 1000              		.loc 1 528 1
 1001 000a 00BF     		nop
 1002 000c 80BD     		pop	{r7, pc}
 1003              	.L83:
 1004 000e 00BF     		.align	2
 1005              	.L82:
 1006 0010 00000000 		.word	hdma_usart1_rx
 1007              		.cfi_endproc
 1008              	.LFE173:
 1010              		.section	.text.DMA2_Stream4_IRQHandler,"ax",%progbits
 1011              		.align	1
 1012              		.global	DMA2_Stream4_IRQHandler
 1013              		.syntax unified
 1014              		.thumb
ARM GAS  C:\Users\23671\AppData\Local\Temp\cc9PLfNh.s 			page 27


 1015              		.thumb_func
 1017              	DMA2_Stream4_IRQHandler:
 1018              	.LFB174:
 529:Core/Src/stm32h7xx_it.c **** 
 530:Core/Src/stm32h7xx_it.c **** /**
 531:Core/Src/stm32h7xx_it.c ****   * @brief This function handles DMA2 stream4 global interrupt.
 532:Core/Src/stm32h7xx_it.c ****   */
 533:Core/Src/stm32h7xx_it.c **** void DMA2_Stream4_IRQHandler(void)
 534:Core/Src/stm32h7xx_it.c **** {
 1019              		.loc 1 534 1
 1020              		.cfi_startproc
 1021              		@ args = 0, pretend = 0, frame = 0
 1022              		@ frame_needed = 1, uses_anonymous_args = 0
 1023 0000 80B5     		push	{r7, lr}
 1024              	.LCFI62:
 1025              		.cfi_def_cfa_offset 8
 1026              		.cfi_offset 7, -8
 1027              		.cfi_offset 14, -4
 1028 0002 00AF     		add	r7, sp, #0
 1029              	.LCFI63:
 1030              		.cfi_def_cfa_register 7
 535:Core/Src/stm32h7xx_it.c ****   /* USER CODE BEGIN DMA2_Stream4_IRQn 0 */
 536:Core/Src/stm32h7xx_it.c **** 
 537:Core/Src/stm32h7xx_it.c ****   /* USER CODE END DMA2_Stream4_IRQn 0 */
 538:Core/Src/stm32h7xx_it.c ****   HAL_DMA_IRQHandler(&hdma_usart1_tx);
 1031              		.loc 1 538 3
 1032 0004 0248     		ldr	r0, .L85
 1033 0006 FFF7FEFF 		bl	HAL_DMA_IRQHandler
 539:Core/Src/stm32h7xx_it.c ****   /* USER CODE BEGIN DMA2_Stream4_IRQn 1 */
 540:Core/Src/stm32h7xx_it.c **** 
 541:Core/Src/stm32h7xx_it.c ****   /* USER CODE END DMA2_Stream4_IRQn 1 */
 542:Core/Src/stm32h7xx_it.c **** }
 1034              		.loc 1 542 1
 1035 000a 00BF     		nop
 1036 000c 80BD     		pop	{r7, pc}
 1037              	.L86:
 1038 000e 00BF     		.align	2
 1039              	.L85:
 1040 0010 00000000 		.word	hdma_usart1_tx
 1041              		.cfi_endproc
 1042              	.LFE174:
 1044              		.section	.text.OTG_HS_IRQHandler,"ax",%progbits
 1045              		.align	1
 1046              		.global	OTG_HS_IRQHandler
 1047              		.syntax unified
 1048              		.thumb
 1049              		.thumb_func
 1051              	OTG_HS_IRQHandler:
 1052              	.LFB175:
 543:Core/Src/stm32h7xx_it.c **** 
 544:Core/Src/stm32h7xx_it.c **** /**
 545:Core/Src/stm32h7xx_it.c ****   * @brief This function handles USB On The Go HS global interrupt.
 546:Core/Src/stm32h7xx_it.c ****   */
 547:Core/Src/stm32h7xx_it.c **** void OTG_HS_IRQHandler(void)
 548:Core/Src/stm32h7xx_it.c **** {
 1053              		.loc 1 548 1
 1054              		.cfi_startproc
ARM GAS  C:\Users\23671\AppData\Local\Temp\cc9PLfNh.s 			page 28


 1055              		@ args = 0, pretend = 0, frame = 0
 1056              		@ frame_needed = 1, uses_anonymous_args = 0
 1057 0000 80B5     		push	{r7, lr}
 1058              	.LCFI64:
 1059              		.cfi_def_cfa_offset 8
 1060              		.cfi_offset 7, -8
 1061              		.cfi_offset 14, -4
 1062 0002 00AF     		add	r7, sp, #0
 1063              	.LCFI65:
 1064              		.cfi_def_cfa_register 7
 549:Core/Src/stm32h7xx_it.c ****   /* USER CODE BEGIN OTG_HS_IRQn 0 */
 550:Core/Src/stm32h7xx_it.c **** 
 551:Core/Src/stm32h7xx_it.c ****   /* USER CODE END OTG_HS_IRQn 0 */
 552:Core/Src/stm32h7xx_it.c ****   HAL_PCD_IRQHandler(&hpcd_USB_OTG_HS);
 1065              		.loc 1 552 3
 1066 0004 0248     		ldr	r0, .L88
 1067 0006 FFF7FEFF 		bl	HAL_PCD_IRQHandler
 553:Core/Src/stm32h7xx_it.c ****   /* USER CODE BEGIN OTG_HS_IRQn 1 */
 554:Core/Src/stm32h7xx_it.c **** 
 555:Core/Src/stm32h7xx_it.c ****   /* USER CODE END OTG_HS_IRQn 1 */
 556:Core/Src/stm32h7xx_it.c **** }
 1068              		.loc 1 556 1
 1069 000a 00BF     		nop
 1070 000c 80BD     		pop	{r7, pc}
 1071              	.L89:
 1072 000e 00BF     		.align	2
 1073              	.L88:
 1074 0010 00000000 		.word	hpcd_USB_OTG_HS
 1075              		.cfi_endproc
 1076              	.LFE175:
 1078              		.section	.text.UART7_IRQHandler,"ax",%progbits
 1079              		.align	1
 1080              		.global	UART7_IRQHandler
 1081              		.syntax unified
 1082              		.thumb
 1083              		.thumb_func
 1085              	UART7_IRQHandler:
 1086              	.LFB176:
 557:Core/Src/stm32h7xx_it.c **** 
 558:Core/Src/stm32h7xx_it.c **** /**
 559:Core/Src/stm32h7xx_it.c ****   * @brief This function handles UART7 global interrupt.
 560:Core/Src/stm32h7xx_it.c ****   */
 561:Core/Src/stm32h7xx_it.c **** void UART7_IRQHandler(void)
 562:Core/Src/stm32h7xx_it.c **** {
 1087              		.loc 1 562 1
 1088              		.cfi_startproc
 1089              		@ args = 0, pretend = 0, frame = 0
 1090              		@ frame_needed = 1, uses_anonymous_args = 0
 1091 0000 80B5     		push	{r7, lr}
 1092              	.LCFI66:
 1093              		.cfi_def_cfa_offset 8
 1094              		.cfi_offset 7, -8
 1095              		.cfi_offset 14, -4
 1096 0002 00AF     		add	r7, sp, #0
 1097              	.LCFI67:
 1098              		.cfi_def_cfa_register 7
 563:Core/Src/stm32h7xx_it.c ****   /* USER CODE BEGIN UART7_IRQn 0 */
ARM GAS  C:\Users\23671\AppData\Local\Temp\cc9PLfNh.s 			page 29


 564:Core/Src/stm32h7xx_it.c ****   // UART_rx_IRQHandler(&UART7_data);
 565:Core/Src/stm32h7xx_it.c ****   /* USER CODE END UART7_IRQn 0 */
 566:Core/Src/stm32h7xx_it.c ****   HAL_UART_IRQHandler(&huart7);
 1099              		.loc 1 566 3
 1100 0004 0248     		ldr	r0, .L91
 1101 0006 FFF7FEFF 		bl	HAL_UART_IRQHandler
 567:Core/Src/stm32h7xx_it.c ****   /* USER CODE BEGIN UART7_IRQn 1 */
 568:Core/Src/stm32h7xx_it.c **** 
 569:Core/Src/stm32h7xx_it.c ****   /* USER CODE END UART7_IRQn 1 */
 570:Core/Src/stm32h7xx_it.c **** }
 1102              		.loc 1 570 1
 1103 000a 00BF     		nop
 1104 000c 80BD     		pop	{r7, pc}
 1105              	.L92:
 1106 000e 00BF     		.align	2
 1107              	.L91:
 1108 0010 00000000 		.word	huart7
 1109              		.cfi_endproc
 1110              	.LFE176:
 1112              		.section	.text.USART10_IRQHandler,"ax",%progbits
 1113              		.align	1
 1114              		.global	USART10_IRQHandler
 1115              		.syntax unified
 1116              		.thumb
 1117              		.thumb_func
 1119              	USART10_IRQHandler:
 1120              	.LFB177:
 571:Core/Src/stm32h7xx_it.c **** 
 572:Core/Src/stm32h7xx_it.c **** /**
 573:Core/Src/stm32h7xx_it.c ****   * @brief This function handles USART10 global interrupt.
 574:Core/Src/stm32h7xx_it.c ****   */
 575:Core/Src/stm32h7xx_it.c **** void USART10_IRQHandler(void)
 576:Core/Src/stm32h7xx_it.c **** {
 1121              		.loc 1 576 1
 1122              		.cfi_startproc
 1123              		@ args = 0, pretend = 0, frame = 0
 1124              		@ frame_needed = 1, uses_anonymous_args = 0
 1125 0000 80B5     		push	{r7, lr}
 1126              	.LCFI68:
 1127              		.cfi_def_cfa_offset 8
 1128              		.cfi_offset 7, -8
 1129              		.cfi_offset 14, -4
 1130 0002 00AF     		add	r7, sp, #0
 1131              	.LCFI69:
 1132              		.cfi_def_cfa_register 7
 577:Core/Src/stm32h7xx_it.c ****   /* USER CODE BEGIN USART10_IRQn 0 */
 578:Core/Src/stm32h7xx_it.c ****   // UART_rx_IRQHandler(&UART10_data);
 579:Core/Src/stm32h7xx_it.c ****   /* USER CODE END USART10_IRQn 0 */
 580:Core/Src/stm32h7xx_it.c ****   HAL_UART_IRQHandler(&huart10);
 1133              		.loc 1 580 3
 1134 0004 0248     		ldr	r0, .L94
 1135 0006 FFF7FEFF 		bl	HAL_UART_IRQHandler
 581:Core/Src/stm32h7xx_it.c ****   /* USER CODE BEGIN USART10_IRQn 1 */
 582:Core/Src/stm32h7xx_it.c **** 
 583:Core/Src/stm32h7xx_it.c ****   /* USER CODE END USART10_IRQn 1 */
 584:Core/Src/stm32h7xx_it.c **** }
 1136              		.loc 1 584 1
ARM GAS  C:\Users\23671\AppData\Local\Temp\cc9PLfNh.s 			page 30


 1137 000a 00BF     		nop
 1138 000c 80BD     		pop	{r7, pc}
 1139              	.L95:
 1140 000e 00BF     		.align	2
 1141              	.L94:
 1142 0010 00000000 		.word	huart10
 1143              		.cfi_endproc
 1144              	.LFE177:
 1146              		.section	.text.FDCAN3_IT0_IRQHandler,"ax",%progbits
 1147              		.align	1
 1148              		.global	FDCAN3_IT0_IRQHandler
 1149              		.syntax unified
 1150              		.thumb
 1151              		.thumb_func
 1153              	FDCAN3_IT0_IRQHandler:
 1154              	.LFB178:
 585:Core/Src/stm32h7xx_it.c **** 
 586:Core/Src/stm32h7xx_it.c **** /**
 587:Core/Src/stm32h7xx_it.c ****   * @brief This function handles FDCAN3 interrupt 0.
 588:Core/Src/stm32h7xx_it.c ****   */
 589:Core/Src/stm32h7xx_it.c **** void FDCAN3_IT0_IRQHandler(void)
 590:Core/Src/stm32h7xx_it.c **** {
 1155              		.loc 1 590 1
 1156              		.cfi_startproc
 1157              		@ args = 0, pretend = 0, frame = 0
 1158              		@ frame_needed = 1, uses_anonymous_args = 0
 1159 0000 80B5     		push	{r7, lr}
 1160              	.LCFI70:
 1161              		.cfi_def_cfa_offset 8
 1162              		.cfi_offset 7, -8
 1163              		.cfi_offset 14, -4
 1164 0002 00AF     		add	r7, sp, #0
 1165              	.LCFI71:
 1166              		.cfi_def_cfa_register 7
 591:Core/Src/stm32h7xx_it.c ****   /* USER CODE BEGIN FDCAN3_IT0_IRQn 0 */
 592:Core/Src/stm32h7xx_it.c **** 
 593:Core/Src/stm32h7xx_it.c ****   /* USER CODE END FDCAN3_IT0_IRQn 0 */
 594:Core/Src/stm32h7xx_it.c ****   HAL_FDCAN_IRQHandler(&hfdcan3);
 1167              		.loc 1 594 3
 1168 0004 0248     		ldr	r0, .L97
 1169 0006 FFF7FEFF 		bl	HAL_FDCAN_IRQHandler
 595:Core/Src/stm32h7xx_it.c ****   /* USER CODE BEGIN FDCAN3_IT0_IRQn 1 */
 596:Core/Src/stm32h7xx_it.c **** 
 597:Core/Src/stm32h7xx_it.c ****   /* USER CODE END FDCAN3_IT0_IRQn 1 */
 598:Core/Src/stm32h7xx_it.c **** }
 1170              		.loc 1 598 1
 1171 000a 00BF     		nop
 1172 000c 80BD     		pop	{r7, pc}
 1173              	.L98:
 1174 000e 00BF     		.align	2
 1175              	.L97:
 1176 0010 00000000 		.word	hfdcan3
 1177              		.cfi_endproc
 1178              	.LFE178:
 1180              		.section	.text.FDCAN3_IT1_IRQHandler,"ax",%progbits
 1181              		.align	1
 1182              		.global	FDCAN3_IT1_IRQHandler
ARM GAS  C:\Users\23671\AppData\Local\Temp\cc9PLfNh.s 			page 31


 1183              		.syntax unified
 1184              		.thumb
 1185              		.thumb_func
 1187              	FDCAN3_IT1_IRQHandler:
 1188              	.LFB179:
 599:Core/Src/stm32h7xx_it.c **** 
 600:Core/Src/stm32h7xx_it.c **** /**
 601:Core/Src/stm32h7xx_it.c ****   * @brief This function handles FDCAN3 interrupt 1.
 602:Core/Src/stm32h7xx_it.c ****   */
 603:Core/Src/stm32h7xx_it.c **** void FDCAN3_IT1_IRQHandler(void)
 604:Core/Src/stm32h7xx_it.c **** {
 1189              		.loc 1 604 1
 1190              		.cfi_startproc
 1191              		@ args = 0, pretend = 0, frame = 0
 1192              		@ frame_needed = 1, uses_anonymous_args = 0
 1193 0000 80B5     		push	{r7, lr}
 1194              	.LCFI72:
 1195              		.cfi_def_cfa_offset 8
 1196              		.cfi_offset 7, -8
 1197              		.cfi_offset 14, -4
 1198 0002 00AF     		add	r7, sp, #0
 1199              	.LCFI73:
 1200              		.cfi_def_cfa_register 7
 605:Core/Src/stm32h7xx_it.c ****   /* USER CODE BEGIN FDCAN3_IT1_IRQn 0 */
 606:Core/Src/stm32h7xx_it.c **** 
 607:Core/Src/stm32h7xx_it.c ****   /* USER CODE END FDCAN3_IT1_IRQn 0 */
 608:Core/Src/stm32h7xx_it.c ****   HAL_FDCAN_IRQHandler(&hfdcan3);
 1201              		.loc 1 608 3
 1202 0004 0248     		ldr	r0, .L100
 1203 0006 FFF7FEFF 		bl	HAL_FDCAN_IRQHandler
 609:Core/Src/stm32h7xx_it.c ****   /* USER CODE BEGIN FDCAN3_IT1_IRQn 1 */
 610:Core/Src/stm32h7xx_it.c **** 
 611:Core/Src/stm32h7xx_it.c ****   /* USER CODE END FDCAN3_IT1_IRQn 1 */
 612:Core/Src/stm32h7xx_it.c **** }
 1204              		.loc 1 612 1
 1205 000a 00BF     		nop
 1206 000c 80BD     		pop	{r7, pc}
 1207              	.L101:
 1208 000e 00BF     		.align	2
 1209              	.L100:
 1210 0010 00000000 		.word	hfdcan3
 1211              		.cfi_endproc
 1212              	.LFE179:
 1214              		.section	.text.TIM23_IRQHandler,"ax",%progbits
 1215              		.align	1
 1216              		.global	TIM23_IRQHandler
 1217              		.syntax unified
 1218              		.thumb
 1219              		.thumb_func
 1221              	TIM23_IRQHandler:
 1222              	.LFB180:
 613:Core/Src/stm32h7xx_it.c **** 
 614:Core/Src/stm32h7xx_it.c **** /**
 615:Core/Src/stm32h7xx_it.c ****   * @brief This function handles TIM23 global interrupt.
 616:Core/Src/stm32h7xx_it.c ****   */
 617:Core/Src/stm32h7xx_it.c **** void TIM23_IRQHandler(void)
 618:Core/Src/stm32h7xx_it.c **** {
ARM GAS  C:\Users\23671\AppData\Local\Temp\cc9PLfNh.s 			page 32


 1223              		.loc 1 618 1
 1224              		.cfi_startproc
 1225              		@ args = 0, pretend = 0, frame = 0
 1226              		@ frame_needed = 1, uses_anonymous_args = 0
 1227 0000 80B5     		push	{r7, lr}
 1228              	.LCFI74:
 1229              		.cfi_def_cfa_offset 8
 1230              		.cfi_offset 7, -8
 1231              		.cfi_offset 14, -4
 1232 0002 00AF     		add	r7, sp, #0
 1233              	.LCFI75:
 1234              		.cfi_def_cfa_register 7
 619:Core/Src/stm32h7xx_it.c ****   /* USER CODE BEGIN TIM23_IRQn 0 */
 620:Core/Src/stm32h7xx_it.c **** 
 621:Core/Src/stm32h7xx_it.c ****   /* USER CODE END TIM23_IRQn 0 */
 622:Core/Src/stm32h7xx_it.c ****   HAL_TIM_IRQHandler(&htim23);
 1235              		.loc 1 622 3
 1236 0004 0248     		ldr	r0, .L103
 1237 0006 FFF7FEFF 		bl	HAL_TIM_IRQHandler
 623:Core/Src/stm32h7xx_it.c ****   /* USER CODE BEGIN TIM23_IRQn 1 */
 624:Core/Src/stm32h7xx_it.c **** 
 625:Core/Src/stm32h7xx_it.c ****   /* USER CODE END TIM23_IRQn 1 */
 626:Core/Src/stm32h7xx_it.c **** }
 1238              		.loc 1 626 1
 1239 000a 00BF     		nop
 1240 000c 80BD     		pop	{r7, pc}
 1241              	.L104:
 1242 000e 00BF     		.align	2
 1243              	.L103:
 1244 0010 00000000 		.word	htim23
 1245              		.cfi_endproc
 1246              	.LFE180:
 1248              		.text
 1249              	.Letext0:
 1250              		.file 2 "D:/MSYS2/mingw64/arm-none-eabi/include/machine/_default_types.h"
 1251              		.file 3 "D:/MSYS2/mingw64/arm-none-eabi/include/sys/_stdint.h"
 1252              		.file 4 "Drivers/CMSIS/Device/ST/STM32H7xx/Include/stm32h723xx.h"
 1253              		.file 5 "Drivers/CMSIS/Device/ST/STM32H7xx/Include/stm32h7xx.h"
 1254              		.file 6 "Drivers/STM32H7xx_HAL_Driver/Inc/stm32h7xx_hal_def.h"
 1255              		.file 7 "Drivers/STM32H7xx_HAL_Driver/Inc/stm32h7xx_hal_dma.h"
 1256              		.file 8 "Drivers/STM32H7xx_HAL_Driver/Inc/stm32h7xx_hal_fdcan.h"
 1257              		.file 9 "Drivers/STM32H7xx_HAL_Driver/Inc/stm32h7xx_hal_spi.h"
 1258              		.file 10 "Drivers/STM32H7xx_HAL_Driver/Inc/stm32h7xx_hal_tim.h"
 1259              		.file 11 "Drivers/STM32H7xx_HAL_Driver/Inc/stm32h7xx_hal_uart.h"
 1260              		.file 12 "Drivers/STM32H7xx_HAL_Driver/Inc/stm32h7xx_ll_usb.h"
 1261              		.file 13 "Drivers/STM32H7xx_HAL_Driver/Inc/stm32h7xx_hal_pcd.h"
ARM GAS  C:\Users\23671\AppData\Local\Temp\cc9PLfNh.s 			page 33

