ARM GAS  C:\Users\fffff\AppData\Local\Temp\ccLkBlD6.s 			page 1


   1              		.cpu cortex-m7
   2              		.arch armv7e-m
   3              		.fpu fpv5-d16
   4              		.eabi_attribute 28, 1
   5              		.eabi_attribute 20, 1
   6              		.eabi_attribute 21, 1
   7              		.eabi_attribute 23, 3
   8              		.eabi_attribute 24, 1
   9              		.eabi_attribute 25, 1
  10              		.eabi_attribute 26, 1
  11              		.eabi_attribute 30, 6
  12              		.eabi_attribute 34, 1
  13              		.eabi_attribute 18, 4
  14              		.file	"stm32h7xx_hal_rcc.c"
  15              		.text
  16              	.Ltext0:
  17              		.cfi_sections	.debug_frame
  18              		.file 1 "Drivers/STM32H7xx_HAL_Driver/Src/stm32h7xx_hal_rcc.c"
  19              		.section	.text.HAL_RCC_DeInit,"ax",%progbits
  20              		.align	1
  21              		.global	HAL_RCC_DeInit
  22              		.syntax unified
  23              		.thumb
  24              		.thumb_func
  26              	HAL_RCC_DeInit:
  27              	.LFB144:
   1:Drivers/STM32H7xx_HAL_Driver/Src/stm32h7xx_hal_rcc.c **** /**
   2:Drivers/STM32H7xx_HAL_Driver/Src/stm32h7xx_hal_rcc.c ****   ******************************************************************************
   3:Drivers/STM32H7xx_HAL_Driver/Src/stm32h7xx_hal_rcc.c ****   * @file    stm32h7xx_hal_rcc.c
   4:Drivers/STM32H7xx_HAL_Driver/Src/stm32h7xx_hal_rcc.c ****   * @author  MCD Application Team
   5:Drivers/STM32H7xx_HAL_Driver/Src/stm32h7xx_hal_rcc.c ****   * @brief   RCC HAL module driver.
   6:Drivers/STM32H7xx_HAL_Driver/Src/stm32h7xx_hal_rcc.c ****   *          This file provides firmware functions to manage the following
   7:Drivers/STM32H7xx_HAL_Driver/Src/stm32h7xx_hal_rcc.c ****   *          functionalities of the Reset and Clock Control (RCC) peripheral:
   8:Drivers/STM32H7xx_HAL_Driver/Src/stm32h7xx_hal_rcc.c ****   *           + Initialization and de-initialization functions
   9:Drivers/STM32H7xx_HAL_Driver/Src/stm32h7xx_hal_rcc.c ****   *           + Peripheral Control functions
  10:Drivers/STM32H7xx_HAL_Driver/Src/stm32h7xx_hal_rcc.c ****   *
  11:Drivers/STM32H7xx_HAL_Driver/Src/stm32h7xx_hal_rcc.c ****   @verbatim
  12:Drivers/STM32H7xx_HAL_Driver/Src/stm32h7xx_hal_rcc.c ****   ==============================================================================
  13:Drivers/STM32H7xx_HAL_Driver/Src/stm32h7xx_hal_rcc.c ****                       ##### RCC specific features #####
  14:Drivers/STM32H7xx_HAL_Driver/Src/stm32h7xx_hal_rcc.c ****   ==============================================================================
  15:Drivers/STM32H7xx_HAL_Driver/Src/stm32h7xx_hal_rcc.c ****     [..]
  16:Drivers/STM32H7xx_HAL_Driver/Src/stm32h7xx_hal_rcc.c ****       After reset the device is running from Internal High Speed oscillator
  17:Drivers/STM32H7xx_HAL_Driver/Src/stm32h7xx_hal_rcc.c ****       (HSI 64MHz) with Flash 0 wait state,and all peripherals are off except
  18:Drivers/STM32H7xx_HAL_Driver/Src/stm32h7xx_hal_rcc.c ****       internal SRAM, Flash, JTAG and PWR
  19:Drivers/STM32H7xx_HAL_Driver/Src/stm32h7xx_hal_rcc.c ****       (+) There is no pre-scaler on High speed (AHB) and Low speed (APB) buses;
  20:Drivers/STM32H7xx_HAL_Driver/Src/stm32h7xx_hal_rcc.c ****           all peripherals mapped on these buses are running at HSI speed.
  21:Drivers/STM32H7xx_HAL_Driver/Src/stm32h7xx_hal_rcc.c ****       (+) The clock for all peripherals is switched off, except the SRAM and FLASH.
  22:Drivers/STM32H7xx_HAL_Driver/Src/stm32h7xx_hal_rcc.c ****       (+) All GPIOs are in analogue mode , except the JTAG pins which
  23:Drivers/STM32H7xx_HAL_Driver/Src/stm32h7xx_hal_rcc.c ****           are assigned to be used for debug purpose.
  24:Drivers/STM32H7xx_HAL_Driver/Src/stm32h7xx_hal_rcc.c **** 
  25:Drivers/STM32H7xx_HAL_Driver/Src/stm32h7xx_hal_rcc.c ****     [..]
  26:Drivers/STM32H7xx_HAL_Driver/Src/stm32h7xx_hal_rcc.c ****       Once the device started from reset, the user application has to:
  27:Drivers/STM32H7xx_HAL_Driver/Src/stm32h7xx_hal_rcc.c ****       (+) Configure the clock source to be used to drive the System clock
  28:Drivers/STM32H7xx_HAL_Driver/Src/stm32h7xx_hal_rcc.c ****           (if the application needs higher frequency/performance)
  29:Drivers/STM32H7xx_HAL_Driver/Src/stm32h7xx_hal_rcc.c ****       (+) Configure the System clock frequency and Flash settings
  30:Drivers/STM32H7xx_HAL_Driver/Src/stm32h7xx_hal_rcc.c ****       (+) Configure the AHB and APB buses pre-scalers
  31:Drivers/STM32H7xx_HAL_Driver/Src/stm32h7xx_hal_rcc.c ****       (+) Enable the clock for the peripheral(s) to be used
ARM GAS  C:\Users\fffff\AppData\Local\Temp\ccLkBlD6.s 			page 2


  32:Drivers/STM32H7xx_HAL_Driver/Src/stm32h7xx_hal_rcc.c ****       (+) Configure the clock kernel source(s) for peripherals which clocks are not
  33:Drivers/STM32H7xx_HAL_Driver/Src/stm32h7xx_hal_rcc.c ****           derived from the System clock through :RCC_D1CCIPR,RCC_D2CCIP1R,RCC_D2CCIP2R
  34:Drivers/STM32H7xx_HAL_Driver/Src/stm32h7xx_hal_rcc.c ****           and RCC_D3CCIPR registers
  35:Drivers/STM32H7xx_HAL_Driver/Src/stm32h7xx_hal_rcc.c **** 
  36:Drivers/STM32H7xx_HAL_Driver/Src/stm32h7xx_hal_rcc.c ****                       ##### RCC Limitations #####
  37:Drivers/STM32H7xx_HAL_Driver/Src/stm32h7xx_hal_rcc.c ****   ==============================================================================
  38:Drivers/STM32H7xx_HAL_Driver/Src/stm32h7xx_hal_rcc.c ****     [..]
  39:Drivers/STM32H7xx_HAL_Driver/Src/stm32h7xx_hal_rcc.c ****       A delay between an RCC peripheral clock enable and the effective peripheral
  40:Drivers/STM32H7xx_HAL_Driver/Src/stm32h7xx_hal_rcc.c ****       enabling should be taken into account in order to manage the peripheral read/write
  41:Drivers/STM32H7xx_HAL_Driver/Src/stm32h7xx_hal_rcc.c ****       from/to registers.
  42:Drivers/STM32H7xx_HAL_Driver/Src/stm32h7xx_hal_rcc.c ****       (+) This delay depends on the peripheral mapping.
  43:Drivers/STM32H7xx_HAL_Driver/Src/stm32h7xx_hal_rcc.c ****       (+) If peripheral is mapped on AHB: the delay is 2 AHB clock cycle
  44:Drivers/STM32H7xx_HAL_Driver/Src/stm32h7xx_hal_rcc.c ****           after the clock enable bit is set on the hardware register
  45:Drivers/STM32H7xx_HAL_Driver/Src/stm32h7xx_hal_rcc.c ****       (+) If peripheral is mapped on APB: the delay is 2 APB clock cycle
  46:Drivers/STM32H7xx_HAL_Driver/Src/stm32h7xx_hal_rcc.c ****           after the clock enable bit is set on the hardware register
  47:Drivers/STM32H7xx_HAL_Driver/Src/stm32h7xx_hal_rcc.c **** 
  48:Drivers/STM32H7xx_HAL_Driver/Src/stm32h7xx_hal_rcc.c ****     [..]
  49:Drivers/STM32H7xx_HAL_Driver/Src/stm32h7xx_hal_rcc.c ****       Implemented Workaround:
  50:Drivers/STM32H7xx_HAL_Driver/Src/stm32h7xx_hal_rcc.c ****       (+) For AHB & APB peripherals, a dummy read to the peripheral register has been
  51:Drivers/STM32H7xx_HAL_Driver/Src/stm32h7xx_hal_rcc.c ****           inserted in each __HAL_RCC_PPP_CLK_ENABLE() macro.
  52:Drivers/STM32H7xx_HAL_Driver/Src/stm32h7xx_hal_rcc.c **** 
  53:Drivers/STM32H7xx_HAL_Driver/Src/stm32h7xx_hal_rcc.c ****   @endverbatim
  54:Drivers/STM32H7xx_HAL_Driver/Src/stm32h7xx_hal_rcc.c ****  ******************************************************************************
  55:Drivers/STM32H7xx_HAL_Driver/Src/stm32h7xx_hal_rcc.c ****   * @attention
  56:Drivers/STM32H7xx_HAL_Driver/Src/stm32h7xx_hal_rcc.c ****   *
  57:Drivers/STM32H7xx_HAL_Driver/Src/stm32h7xx_hal_rcc.c ****   * Copyright (c) 2017 STMicroelectronics.
  58:Drivers/STM32H7xx_HAL_Driver/Src/stm32h7xx_hal_rcc.c ****   * All rights reserved.
  59:Drivers/STM32H7xx_HAL_Driver/Src/stm32h7xx_hal_rcc.c ****   *
  60:Drivers/STM32H7xx_HAL_Driver/Src/stm32h7xx_hal_rcc.c ****   * This software is licensed under terms that can be found in the LICENSE file in
  61:Drivers/STM32H7xx_HAL_Driver/Src/stm32h7xx_hal_rcc.c ****   * the root directory of this software component.
  62:Drivers/STM32H7xx_HAL_Driver/Src/stm32h7xx_hal_rcc.c ****   * If no LICENSE file comes with this software, it is provided AS-IS.
  63:Drivers/STM32H7xx_HAL_Driver/Src/stm32h7xx_hal_rcc.c ****   ******************************************************************************
  64:Drivers/STM32H7xx_HAL_Driver/Src/stm32h7xx_hal_rcc.c ****   */
  65:Drivers/STM32H7xx_HAL_Driver/Src/stm32h7xx_hal_rcc.c **** 
  66:Drivers/STM32H7xx_HAL_Driver/Src/stm32h7xx_hal_rcc.c **** /* Includes ------------------------------------------------------------------*/
  67:Drivers/STM32H7xx_HAL_Driver/Src/stm32h7xx_hal_rcc.c **** #include "stm32h7xx_hal.h"
  68:Drivers/STM32H7xx_HAL_Driver/Src/stm32h7xx_hal_rcc.c **** 
  69:Drivers/STM32H7xx_HAL_Driver/Src/stm32h7xx_hal_rcc.c **** /** @addtogroup STM32H7xx_HAL_Driver
  70:Drivers/STM32H7xx_HAL_Driver/Src/stm32h7xx_hal_rcc.c ****   * @{
  71:Drivers/STM32H7xx_HAL_Driver/Src/stm32h7xx_hal_rcc.c ****   */
  72:Drivers/STM32H7xx_HAL_Driver/Src/stm32h7xx_hal_rcc.c **** 
  73:Drivers/STM32H7xx_HAL_Driver/Src/stm32h7xx_hal_rcc.c **** /** @defgroup RCC  RCC
  74:Drivers/STM32H7xx_HAL_Driver/Src/stm32h7xx_hal_rcc.c ****   * @brief RCC HAL module driver
  75:Drivers/STM32H7xx_HAL_Driver/Src/stm32h7xx_hal_rcc.c ****   * @{
  76:Drivers/STM32H7xx_HAL_Driver/Src/stm32h7xx_hal_rcc.c ****   */
  77:Drivers/STM32H7xx_HAL_Driver/Src/stm32h7xx_hal_rcc.c **** 
  78:Drivers/STM32H7xx_HAL_Driver/Src/stm32h7xx_hal_rcc.c **** #ifdef HAL_RCC_MODULE_ENABLED
  79:Drivers/STM32H7xx_HAL_Driver/Src/stm32h7xx_hal_rcc.c **** 
  80:Drivers/STM32H7xx_HAL_Driver/Src/stm32h7xx_hal_rcc.c **** /* Private typedef -----------------------------------------------------------*/
  81:Drivers/STM32H7xx_HAL_Driver/Src/stm32h7xx_hal_rcc.c **** /* Private define ------------------------------------------------------------*/
  82:Drivers/STM32H7xx_HAL_Driver/Src/stm32h7xx_hal_rcc.c **** /* Private macro -------------------------------------------------------------*/
  83:Drivers/STM32H7xx_HAL_Driver/Src/stm32h7xx_hal_rcc.c **** /** @defgroup RCC_Private_Macros RCC Private Macros
  84:Drivers/STM32H7xx_HAL_Driver/Src/stm32h7xx_hal_rcc.c ****   * @{
  85:Drivers/STM32H7xx_HAL_Driver/Src/stm32h7xx_hal_rcc.c ****   */
  86:Drivers/STM32H7xx_HAL_Driver/Src/stm32h7xx_hal_rcc.c **** #define MCO1_CLK_ENABLE()     __HAL_RCC_GPIOA_CLK_ENABLE()
  87:Drivers/STM32H7xx_HAL_Driver/Src/stm32h7xx_hal_rcc.c **** #define MCO1_GPIO_PORT        GPIOA
  88:Drivers/STM32H7xx_HAL_Driver/Src/stm32h7xx_hal_rcc.c **** #define MCO1_PIN              GPIO_PIN_8
ARM GAS  C:\Users\fffff\AppData\Local\Temp\ccLkBlD6.s 			page 3


  89:Drivers/STM32H7xx_HAL_Driver/Src/stm32h7xx_hal_rcc.c **** 
  90:Drivers/STM32H7xx_HAL_Driver/Src/stm32h7xx_hal_rcc.c **** #define MCO2_CLK_ENABLE()      __HAL_RCC_GPIOC_CLK_ENABLE()
  91:Drivers/STM32H7xx_HAL_Driver/Src/stm32h7xx_hal_rcc.c **** #define MCO2_GPIO_PORT         GPIOC
  92:Drivers/STM32H7xx_HAL_Driver/Src/stm32h7xx_hal_rcc.c **** #define MCO2_PIN               GPIO_PIN_9
  93:Drivers/STM32H7xx_HAL_Driver/Src/stm32h7xx_hal_rcc.c **** 
  94:Drivers/STM32H7xx_HAL_Driver/Src/stm32h7xx_hal_rcc.c **** /**
  95:Drivers/STM32H7xx_HAL_Driver/Src/stm32h7xx_hal_rcc.c ****   * @}
  96:Drivers/STM32H7xx_HAL_Driver/Src/stm32h7xx_hal_rcc.c ****   */
  97:Drivers/STM32H7xx_HAL_Driver/Src/stm32h7xx_hal_rcc.c **** /* Private variables ---------------------------------------------------------*/
  98:Drivers/STM32H7xx_HAL_Driver/Src/stm32h7xx_hal_rcc.c **** /** @defgroup RCC_Private_Variables RCC Private Variables
  99:Drivers/STM32H7xx_HAL_Driver/Src/stm32h7xx_hal_rcc.c ****   * @{
 100:Drivers/STM32H7xx_HAL_Driver/Src/stm32h7xx_hal_rcc.c ****   */
 101:Drivers/STM32H7xx_HAL_Driver/Src/stm32h7xx_hal_rcc.c **** 
 102:Drivers/STM32H7xx_HAL_Driver/Src/stm32h7xx_hal_rcc.c **** /**
 103:Drivers/STM32H7xx_HAL_Driver/Src/stm32h7xx_hal_rcc.c ****   * @}
 104:Drivers/STM32H7xx_HAL_Driver/Src/stm32h7xx_hal_rcc.c ****   */
 105:Drivers/STM32H7xx_HAL_Driver/Src/stm32h7xx_hal_rcc.c **** /* Private function prototypes -----------------------------------------------*/
 106:Drivers/STM32H7xx_HAL_Driver/Src/stm32h7xx_hal_rcc.c **** /* Exported functions --------------------------------------------------------*/
 107:Drivers/STM32H7xx_HAL_Driver/Src/stm32h7xx_hal_rcc.c **** 
 108:Drivers/STM32H7xx_HAL_Driver/Src/stm32h7xx_hal_rcc.c **** /** @defgroup RCC_Exported_Functions RCC Exported Functions
 109:Drivers/STM32H7xx_HAL_Driver/Src/stm32h7xx_hal_rcc.c ****   * @{
 110:Drivers/STM32H7xx_HAL_Driver/Src/stm32h7xx_hal_rcc.c ****   */
 111:Drivers/STM32H7xx_HAL_Driver/Src/stm32h7xx_hal_rcc.c **** 
 112:Drivers/STM32H7xx_HAL_Driver/Src/stm32h7xx_hal_rcc.c **** /** @defgroup RCC_Exported_Functions_Group1 Initialization and de-initialization functions
 113:Drivers/STM32H7xx_HAL_Driver/Src/stm32h7xx_hal_rcc.c ****  *  @brief    Initialization and Configuration functions
 114:Drivers/STM32H7xx_HAL_Driver/Src/stm32h7xx_hal_rcc.c ****  *
 115:Drivers/STM32H7xx_HAL_Driver/Src/stm32h7xx_hal_rcc.c **** @verbatim
 116:Drivers/STM32H7xx_HAL_Driver/Src/stm32h7xx_hal_rcc.c ****  ===============================================================================
 117:Drivers/STM32H7xx_HAL_Driver/Src/stm32h7xx_hal_rcc.c ****            ##### Initialization and de-initialization functions #####
 118:Drivers/STM32H7xx_HAL_Driver/Src/stm32h7xx_hal_rcc.c ****  ===============================================================================
 119:Drivers/STM32H7xx_HAL_Driver/Src/stm32h7xx_hal_rcc.c ****     [..]
 120:Drivers/STM32H7xx_HAL_Driver/Src/stm32h7xx_hal_rcc.c ****       This section provides functions allowing to configure the internal/external oscillators
 121:Drivers/STM32H7xx_HAL_Driver/Src/stm32h7xx_hal_rcc.c ****       (HSE, HSI, LSE,CSI, LSI,HSI48, PLL, CSS and MCO) and the System buses clocks (SYSCLK, AHB3, A
 122:Drivers/STM32H7xx_HAL_Driver/Src/stm32h7xx_hal_rcc.c ****        AHB2,AHB4,APB3, APB1L, APB1H, APB2, and APB4).
 123:Drivers/STM32H7xx_HAL_Driver/Src/stm32h7xx_hal_rcc.c **** 
 124:Drivers/STM32H7xx_HAL_Driver/Src/stm32h7xx_hal_rcc.c ****     [..] Internal/external clock and PLL configuration
 125:Drivers/STM32H7xx_HAL_Driver/Src/stm32h7xx_hal_rcc.c ****          (#) HSI (high-speed internal), 64 MHz factory-trimmed RC used directly or through
 126:Drivers/STM32H7xx_HAL_Driver/Src/stm32h7xx_hal_rcc.c ****              the PLL as System clock source.
 127:Drivers/STM32H7xx_HAL_Driver/Src/stm32h7xx_hal_rcc.c ****          (#) CSI is a low-power RC oscillator which can be used directly as system clock, periphera
 128:Drivers/STM32H7xx_HAL_Driver/Src/stm32h7xx_hal_rcc.c ****              clock, or PLL input.But even with frequency calibration, is less accurate than an
 129:Drivers/STM32H7xx_HAL_Driver/Src/stm32h7xx_hal_rcc.c ****              external crystal oscillator or ceramic resonator.
 130:Drivers/STM32H7xx_HAL_Driver/Src/stm32h7xx_hal_rcc.c ****          (#) LSI (low-speed internal), 32 KHz low consumption RC used as IWDG and/or RTC
 131:Drivers/STM32H7xx_HAL_Driver/Src/stm32h7xx_hal_rcc.c ****              clock source.
 132:Drivers/STM32H7xx_HAL_Driver/Src/stm32h7xx_hal_rcc.c **** 
 133:Drivers/STM32H7xx_HAL_Driver/Src/stm32h7xx_hal_rcc.c ****          (#) HSE (high-speed external), 4 to 48 MHz crystal oscillator used directly or
 134:Drivers/STM32H7xx_HAL_Driver/Src/stm32h7xx_hal_rcc.c ****              through the PLL as System clock source. Can be used also as RTC clock source.
 135:Drivers/STM32H7xx_HAL_Driver/Src/stm32h7xx_hal_rcc.c **** 
 136:Drivers/STM32H7xx_HAL_Driver/Src/stm32h7xx_hal_rcc.c ****          (#) LSE (low-speed external), 32 KHz oscillator used as RTC clock source.
 137:Drivers/STM32H7xx_HAL_Driver/Src/stm32h7xx_hal_rcc.c **** 
 138:Drivers/STM32H7xx_HAL_Driver/Src/stm32h7xx_hal_rcc.c ****          (#) PLL , The RCC features three independent PLLs (clocked by HSI , HSE or CSI),
 139:Drivers/STM32H7xx_HAL_Driver/Src/stm32h7xx_hal_rcc.c ****              featuring three different output clocks and able  to work either in integer or Fractio
 140:Drivers/STM32H7xx_HAL_Driver/Src/stm32h7xx_hal_rcc.c ****            (++) A main PLL, PLL1, which is generally used to provide clocks to the CPU
 141:Drivers/STM32H7xx_HAL_Driver/Src/stm32h7xx_hal_rcc.c ****                 and to some peripherals.
 142:Drivers/STM32H7xx_HAL_Driver/Src/stm32h7xx_hal_rcc.c ****            (++) Two dedicated PLLs, PLL2 and PLL3, which are used to generate the kernel clock for 
 143:Drivers/STM32H7xx_HAL_Driver/Src/stm32h7xx_hal_rcc.c **** 
 144:Drivers/STM32H7xx_HAL_Driver/Src/stm32h7xx_hal_rcc.c **** 
 145:Drivers/STM32H7xx_HAL_Driver/Src/stm32h7xx_hal_rcc.c ****          (#) CSS (Clock security system), once enabled and if a HSE clock failure occurs
ARM GAS  C:\Users\fffff\AppData\Local\Temp\ccLkBlD6.s 			page 4


 146:Drivers/STM32H7xx_HAL_Driver/Src/stm32h7xx_hal_rcc.c ****             (HSE used directly or through PLL as System clock source), the System clock
 147:Drivers/STM32H7xx_HAL_Driver/Src/stm32h7xx_hal_rcc.c ****              is automatically switched to HSI and an interrupt is generated if enabled.
 148:Drivers/STM32H7xx_HAL_Driver/Src/stm32h7xx_hal_rcc.c ****              The interrupt is linked to the Cortex-M NMI (Non-Mask-able Interrupt)
 149:Drivers/STM32H7xx_HAL_Driver/Src/stm32h7xx_hal_rcc.c ****              exception vector.
 150:Drivers/STM32H7xx_HAL_Driver/Src/stm32h7xx_hal_rcc.c **** 
 151:Drivers/STM32H7xx_HAL_Driver/Src/stm32h7xx_hal_rcc.c ****          (#) MCO1 (micro controller clock output), used to output HSI, LSE, HSE, PLL1(PLL1_Q)
 152:Drivers/STM32H7xx_HAL_Driver/Src/stm32h7xx_hal_rcc.c ****              or HSI48 clock (through a configurable pre-scaler) on PA8 pin.
 153:Drivers/STM32H7xx_HAL_Driver/Src/stm32h7xx_hal_rcc.c **** 
 154:Drivers/STM32H7xx_HAL_Driver/Src/stm32h7xx_hal_rcc.c ****          (#) MCO2 (micro controller clock output), used to output HSE, PLL2(PLL2_P), SYSCLK,
 155:Drivers/STM32H7xx_HAL_Driver/Src/stm32h7xx_hal_rcc.c ****              LSI, CSI, or PLL1(PLL1_P) clock (through a configurable pre-scaler) on PC9 pin.
 156:Drivers/STM32H7xx_HAL_Driver/Src/stm32h7xx_hal_rcc.c **** 
 157:Drivers/STM32H7xx_HAL_Driver/Src/stm32h7xx_hal_rcc.c ****     [..] System, AHB and APB buses clocks configuration
 158:Drivers/STM32H7xx_HAL_Driver/Src/stm32h7xx_hal_rcc.c ****          (#) Several clock sources can be used to drive the System clock (SYSCLK): CSI,HSI,
 159:Drivers/STM32H7xx_HAL_Driver/Src/stm32h7xx_hal_rcc.c ****              HSE and PLL.
 160:Drivers/STM32H7xx_HAL_Driver/Src/stm32h7xx_hal_rcc.c ****              The AHB clock (HCLK) is derived from System core clock through configurable
 161:Drivers/STM32H7xx_HAL_Driver/Src/stm32h7xx_hal_rcc.c ****              pre-scaler and used to clock the CPU, memory and peripherals mapped
 162:Drivers/STM32H7xx_HAL_Driver/Src/stm32h7xx_hal_rcc.c ****              on AHB and APB bus of the 3 Domains (D1, D2, D3)* through configurable pre-scalers
 163:Drivers/STM32H7xx_HAL_Driver/Src/stm32h7xx_hal_rcc.c ****              and used to clock the peripherals mapped on these buses. You can use
 164:Drivers/STM32H7xx_HAL_Driver/Src/stm32h7xx_hal_rcc.c ****              "HAL_RCC_GetSysClockFreq()" function to retrieve system clock frequency.
 165:Drivers/STM32H7xx_HAL_Driver/Src/stm32h7xx_hal_rcc.c **** 
 166:Drivers/STM32H7xx_HAL_Driver/Src/stm32h7xx_hal_rcc.c ****          -@- All the peripheral clocks are derived from the System clock (SYSCLK) except those
 167:Drivers/STM32H7xx_HAL_Driver/Src/stm32h7xx_hal_rcc.c ****              with dual clock domain where kernel source clock could be selected through
 168:Drivers/STM32H7xx_HAL_Driver/Src/stm32h7xx_hal_rcc.c ****              RCC_D1CCIPR,RCC_D2CCIP1R,RCC_D2CCIP2R and RCC_D3CCIPR registers.
 169:Drivers/STM32H7xx_HAL_Driver/Src/stm32h7xx_hal_rcc.c **** 
 170:Drivers/STM32H7xx_HAL_Driver/Src/stm32h7xx_hal_rcc.c ****      (*) : 2 Domains (CD and SRD) for stm32h7a3xx and stm32h7b3xx family lines.
 171:Drivers/STM32H7xx_HAL_Driver/Src/stm32h7xx_hal_rcc.c **** @endverbatim
 172:Drivers/STM32H7xx_HAL_Driver/Src/stm32h7xx_hal_rcc.c ****   * @{
 173:Drivers/STM32H7xx_HAL_Driver/Src/stm32h7xx_hal_rcc.c ****   */
 174:Drivers/STM32H7xx_HAL_Driver/Src/stm32h7xx_hal_rcc.c **** 
 175:Drivers/STM32H7xx_HAL_Driver/Src/stm32h7xx_hal_rcc.c **** /**
 176:Drivers/STM32H7xx_HAL_Driver/Src/stm32h7xx_hal_rcc.c ****   * @brief  Resets the RCC clock configuration to the default reset state.
 177:Drivers/STM32H7xx_HAL_Driver/Src/stm32h7xx_hal_rcc.c ****   * @note   The default reset state of the clock configuration is given below:
 178:Drivers/STM32H7xx_HAL_Driver/Src/stm32h7xx_hal_rcc.c ****   *            - HSI ON and used as system clock source
 179:Drivers/STM32H7xx_HAL_Driver/Src/stm32h7xx_hal_rcc.c ****   *            - HSE, PLL1, PLL2 and PLL3 OFF
 180:Drivers/STM32H7xx_HAL_Driver/Src/stm32h7xx_hal_rcc.c ****   *            - AHB, APB Bus pre-scaler set to 1.
 181:Drivers/STM32H7xx_HAL_Driver/Src/stm32h7xx_hal_rcc.c ****   *            - CSS, MCO1 and MCO2 OFF
 182:Drivers/STM32H7xx_HAL_Driver/Src/stm32h7xx_hal_rcc.c ****   *            - All interrupts disabled
 183:Drivers/STM32H7xx_HAL_Driver/Src/stm32h7xx_hal_rcc.c ****   * @note   This function doesn't modify the configuration of the
 184:Drivers/STM32H7xx_HAL_Driver/Src/stm32h7xx_hal_rcc.c ****   *            - Peripheral clocks
 185:Drivers/STM32H7xx_HAL_Driver/Src/stm32h7xx_hal_rcc.c ****   *            - LSI, LSE and RTC clocks
 186:Drivers/STM32H7xx_HAL_Driver/Src/stm32h7xx_hal_rcc.c ****   * @retval HAL status
 187:Drivers/STM32H7xx_HAL_Driver/Src/stm32h7xx_hal_rcc.c ****   */
 188:Drivers/STM32H7xx_HAL_Driver/Src/stm32h7xx_hal_rcc.c **** HAL_StatusTypeDef HAL_RCC_DeInit(void)
 189:Drivers/STM32H7xx_HAL_Driver/Src/stm32h7xx_hal_rcc.c **** {
  28              		.loc 1 189 1
  29              		.cfi_startproc
  30              		@ args = 0, pretend = 0, frame = 8
  31              		@ frame_needed = 1, uses_anonymous_args = 0
  32 0000 80B5     		push	{r7, lr}
  33              	.LCFI0:
  34              		.cfi_def_cfa_offset 8
  35              		.cfi_offset 7, -8
  36              		.cfi_offset 14, -4
  37 0002 82B0     		sub	sp, sp, #8
  38              	.LCFI1:
  39              		.cfi_def_cfa_offset 16
  40 0004 00AF     		add	r7, sp, #0
ARM GAS  C:\Users\fffff\AppData\Local\Temp\ccLkBlD6.s 			page 5


  41              	.LCFI2:
  42              		.cfi_def_cfa_register 7
 190:Drivers/STM32H7xx_HAL_Driver/Src/stm32h7xx_hal_rcc.c ****   uint32_t tickstart;
 191:Drivers/STM32H7xx_HAL_Driver/Src/stm32h7xx_hal_rcc.c **** 
 192:Drivers/STM32H7xx_HAL_Driver/Src/stm32h7xx_hal_rcc.c ****   /* Increasing the CPU frequency */
 193:Drivers/STM32H7xx_HAL_Driver/Src/stm32h7xx_hal_rcc.c ****   if (FLASH_LATENCY_DEFAULT  > __HAL_FLASH_GET_LATENCY())
  43              		.loc 1 193 32
  44 0006 894B     		ldr	r3, .L18
  45 0008 1B68     		ldr	r3, [r3]
  46 000a 03F00F03 		and	r3, r3, #15
  47              		.loc 1 193 6
  48 000e 062B     		cmp	r3, #6
  49 0010 0FD8     		bhi	.L2
 194:Drivers/STM32H7xx_HAL_Driver/Src/stm32h7xx_hal_rcc.c ****   {
 195:Drivers/STM32H7xx_HAL_Driver/Src/stm32h7xx_hal_rcc.c ****     /* Program the new number of wait states to the LATENCY bits in the FLASH_ACR register */
 196:Drivers/STM32H7xx_HAL_Driver/Src/stm32h7xx_hal_rcc.c ****     __HAL_FLASH_SET_LATENCY(FLASH_LATENCY_DEFAULT);
  50              		.loc 1 196 5
  51 0012 864B     		ldr	r3, .L18
  52 0014 1B68     		ldr	r3, [r3]
  53 0016 23F00F03 		bic	r3, r3, #15
  54 001a 844A     		ldr	r2, .L18
  55 001c 43F00703 		orr	r3, r3, #7
  56 0020 1360     		str	r3, [r2]
 197:Drivers/STM32H7xx_HAL_Driver/Src/stm32h7xx_hal_rcc.c **** 
 198:Drivers/STM32H7xx_HAL_Driver/Src/stm32h7xx_hal_rcc.c ****     /* Check that the new number of wait states is taken into account to access the Flash
 199:Drivers/STM32H7xx_HAL_Driver/Src/stm32h7xx_hal_rcc.c ****     memory by reading the FLASH_ACR register */
 200:Drivers/STM32H7xx_HAL_Driver/Src/stm32h7xx_hal_rcc.c ****     if (__HAL_FLASH_GET_LATENCY() != FLASH_LATENCY_DEFAULT)
  57              		.loc 1 200 9
  58 0022 824B     		ldr	r3, .L18
  59 0024 1B68     		ldr	r3, [r3]
  60 0026 03F00F03 		and	r3, r3, #15
  61              		.loc 1 200 8
  62 002a 072B     		cmp	r3, #7
  63 002c 01D0     		beq	.L2
 201:Drivers/STM32H7xx_HAL_Driver/Src/stm32h7xx_hal_rcc.c ****     {
 202:Drivers/STM32H7xx_HAL_Driver/Src/stm32h7xx_hal_rcc.c ****       return HAL_ERROR;
  64              		.loc 1 202 14
  65 002e 0123     		movs	r3, #1
  66 0030 F7E0     		b	.L3
  67              	.L2:
 203:Drivers/STM32H7xx_HAL_Driver/Src/stm32h7xx_hal_rcc.c ****     }
 204:Drivers/STM32H7xx_HAL_Driver/Src/stm32h7xx_hal_rcc.c **** 
 205:Drivers/STM32H7xx_HAL_Driver/Src/stm32h7xx_hal_rcc.c ****   }
 206:Drivers/STM32H7xx_HAL_Driver/Src/stm32h7xx_hal_rcc.c **** 
 207:Drivers/STM32H7xx_HAL_Driver/Src/stm32h7xx_hal_rcc.c **** 
 208:Drivers/STM32H7xx_HAL_Driver/Src/stm32h7xx_hal_rcc.c ****   /* Get Start Tick */
 209:Drivers/STM32H7xx_HAL_Driver/Src/stm32h7xx_hal_rcc.c ****   tickstart = HAL_GetTick();
  68              		.loc 1 209 15
  69 0032 FFF7FEFF 		bl	HAL_GetTick
  70 0036 7860     		str	r0, [r7, #4]
 210:Drivers/STM32H7xx_HAL_Driver/Src/stm32h7xx_hal_rcc.c **** 
 211:Drivers/STM32H7xx_HAL_Driver/Src/stm32h7xx_hal_rcc.c ****   /* Set HSION bit */
 212:Drivers/STM32H7xx_HAL_Driver/Src/stm32h7xx_hal_rcc.c ****   SET_BIT(RCC->CR, RCC_CR_HSION);
  71              		.loc 1 212 3
  72 0038 7D4B     		ldr	r3, .L18+4
  73 003a 1B68     		ldr	r3, [r3]
  74 003c 7C4A     		ldr	r2, .L18+4
ARM GAS  C:\Users\fffff\AppData\Local\Temp\ccLkBlD6.s 			page 6


  75 003e 43F00103 		orr	r3, r3, #1
  76 0042 1360     		str	r3, [r2]
 213:Drivers/STM32H7xx_HAL_Driver/Src/stm32h7xx_hal_rcc.c **** 
 214:Drivers/STM32H7xx_HAL_Driver/Src/stm32h7xx_hal_rcc.c ****   /* Wait till HSI is ready */
 215:Drivers/STM32H7xx_HAL_Driver/Src/stm32h7xx_hal_rcc.c ****   while (READ_BIT(RCC->CR, RCC_CR_HSIRDY) == 0U)
  77              		.loc 1 215 9
  78 0044 08E0     		b	.L4
  79              	.L5:
 216:Drivers/STM32H7xx_HAL_Driver/Src/stm32h7xx_hal_rcc.c ****   {
 217:Drivers/STM32H7xx_HAL_Driver/Src/stm32h7xx_hal_rcc.c ****     if ((HAL_GetTick() - tickstart) > HSI_TIMEOUT_VALUE)
  80              		.loc 1 217 10
  81 0046 FFF7FEFF 		bl	HAL_GetTick
  82 004a 0246     		mov	r2, r0
  83              		.loc 1 217 24 discriminator 1
  84 004c 7B68     		ldr	r3, [r7, #4]
  85 004e D31A     		subs	r3, r2, r3
  86              		.loc 1 217 8 discriminator 1
  87 0050 022B     		cmp	r3, #2
  88 0052 01D9     		bls	.L4
 218:Drivers/STM32H7xx_HAL_Driver/Src/stm32h7xx_hal_rcc.c ****     {
 219:Drivers/STM32H7xx_HAL_Driver/Src/stm32h7xx_hal_rcc.c ****       return HAL_TIMEOUT;
  89              		.loc 1 219 14
  90 0054 0323     		movs	r3, #3
  91 0056 E4E0     		b	.L3
  92              	.L4:
 215:Drivers/STM32H7xx_HAL_Driver/Src/stm32h7xx_hal_rcc.c ****   {
  93              		.loc 1 215 10
  94 0058 754B     		ldr	r3, .L18+4
  95 005a 1B68     		ldr	r3, [r3]
  96 005c 03F00403 		and	r3, r3, #4
 215:Drivers/STM32H7xx_HAL_Driver/Src/stm32h7xx_hal_rcc.c ****   {
  97              		.loc 1 215 43
  98 0060 002B     		cmp	r3, #0
  99 0062 F0D0     		beq	.L5
 220:Drivers/STM32H7xx_HAL_Driver/Src/stm32h7xx_hal_rcc.c ****     }
 221:Drivers/STM32H7xx_HAL_Driver/Src/stm32h7xx_hal_rcc.c ****   }
 222:Drivers/STM32H7xx_HAL_Driver/Src/stm32h7xx_hal_rcc.c **** 
 223:Drivers/STM32H7xx_HAL_Driver/Src/stm32h7xx_hal_rcc.c ****   /* Set HSITRIM[6:0] bits to the reset value */
 224:Drivers/STM32H7xx_HAL_Driver/Src/stm32h7xx_hal_rcc.c ****   SET_BIT(RCC->HSICFGR, RCC_HSICFGR_HSITRIM_6);
 100              		.loc 1 224 3
 101 0064 724B     		ldr	r3, .L18+4
 102 0066 5B68     		ldr	r3, [r3, #4]
 103 0068 714A     		ldr	r2, .L18+4
 104 006a 43F08043 		orr	r3, r3, #1073741824
 105 006e 5360     		str	r3, [r2, #4]
 225:Drivers/STM32H7xx_HAL_Driver/Src/stm32h7xx_hal_rcc.c **** 
 226:Drivers/STM32H7xx_HAL_Driver/Src/stm32h7xx_hal_rcc.c ****   /* Reset CFGR register */
 227:Drivers/STM32H7xx_HAL_Driver/Src/stm32h7xx_hal_rcc.c ****   CLEAR_REG(RCC->CFGR);
 106              		.loc 1 227 3
 107 0070 6F4B     		ldr	r3, .L18+4
 108 0072 0022     		movs	r2, #0
 109 0074 1A61     		str	r2, [r3, #16]
 228:Drivers/STM32H7xx_HAL_Driver/Src/stm32h7xx_hal_rcc.c **** 
 229:Drivers/STM32H7xx_HAL_Driver/Src/stm32h7xx_hal_rcc.c ****   /* Update the SystemCoreClock and SystemD2Clock global variables */
 230:Drivers/STM32H7xx_HAL_Driver/Src/stm32h7xx_hal_rcc.c ****   SystemCoreClock = HSI_VALUE;
 110              		.loc 1 230 19
 111 0076 6F4B     		ldr	r3, .L18+8
ARM GAS  C:\Users\fffff\AppData\Local\Temp\ccLkBlD6.s 			page 7


 112 0078 6F4A     		ldr	r2, .L18+12
 113 007a 1A60     		str	r2, [r3]
 231:Drivers/STM32H7xx_HAL_Driver/Src/stm32h7xx_hal_rcc.c ****   SystemD2Clock = HSI_VALUE;
 114              		.loc 1 231 17
 115 007c 6F4B     		ldr	r3, .L18+16
 116 007e 6E4A     		ldr	r2, .L18+12
 117 0080 1A60     		str	r2, [r3]
 232:Drivers/STM32H7xx_HAL_Driver/Src/stm32h7xx_hal_rcc.c **** 
 233:Drivers/STM32H7xx_HAL_Driver/Src/stm32h7xx_hal_rcc.c ****   /* Adapt Systick interrupt period */
 234:Drivers/STM32H7xx_HAL_Driver/Src/stm32h7xx_hal_rcc.c ****   if (HAL_InitTick(uwTickPrio) != HAL_OK)
 118              		.loc 1 234 7
 119 0082 6F4B     		ldr	r3, .L18+20
 120 0084 1B68     		ldr	r3, [r3]
 121 0086 1846     		mov	r0, r3
 122 0088 FFF7FEFF 		bl	HAL_InitTick
 123 008c 0346     		mov	r3, r0
 124              		.loc 1 234 6 discriminator 1
 125 008e 002B     		cmp	r3, #0
 126 0090 01D0     		beq	.L6
 235:Drivers/STM32H7xx_HAL_Driver/Src/stm32h7xx_hal_rcc.c ****   {
 236:Drivers/STM32H7xx_HAL_Driver/Src/stm32h7xx_hal_rcc.c ****     return HAL_ERROR;
 127              		.loc 1 236 12
 128 0092 0123     		movs	r3, #1
 129 0094 C5E0     		b	.L3
 130              	.L6:
 237:Drivers/STM32H7xx_HAL_Driver/Src/stm32h7xx_hal_rcc.c ****   }
 238:Drivers/STM32H7xx_HAL_Driver/Src/stm32h7xx_hal_rcc.c **** 
 239:Drivers/STM32H7xx_HAL_Driver/Src/stm32h7xx_hal_rcc.c ****   /* Get Start Tick */
 240:Drivers/STM32H7xx_HAL_Driver/Src/stm32h7xx_hal_rcc.c ****   tickstart = HAL_GetTick();
 131              		.loc 1 240 15
 132 0096 FFF7FEFF 		bl	HAL_GetTick
 133 009a 7860     		str	r0, [r7, #4]
 241:Drivers/STM32H7xx_HAL_Driver/Src/stm32h7xx_hal_rcc.c **** 
 242:Drivers/STM32H7xx_HAL_Driver/Src/stm32h7xx_hal_rcc.c ****   /* Wait till clock switch is ready */
 243:Drivers/STM32H7xx_HAL_Driver/Src/stm32h7xx_hal_rcc.c ****   while (READ_BIT(RCC->CFGR, RCC_CFGR_SWS) != 0U)
 134              		.loc 1 243 9
 135 009c 0AE0     		b	.L7
 136              	.L8:
 244:Drivers/STM32H7xx_HAL_Driver/Src/stm32h7xx_hal_rcc.c ****   {
 245:Drivers/STM32H7xx_HAL_Driver/Src/stm32h7xx_hal_rcc.c ****     if ((HAL_GetTick() - tickstart) > CLOCKSWITCH_TIMEOUT_VALUE)
 137              		.loc 1 245 10
 138 009e FFF7FEFF 		bl	HAL_GetTick
 139 00a2 0246     		mov	r2, r0
 140              		.loc 1 245 24 discriminator 1
 141 00a4 7B68     		ldr	r3, [r7, #4]
 142 00a6 D31A     		subs	r3, r2, r3
 143              		.loc 1 245 8 discriminator 1
 144 00a8 41F28832 		movw	r2, #5000
 145 00ac 9342     		cmp	r3, r2
 146 00ae 01D9     		bls	.L7
 246:Drivers/STM32H7xx_HAL_Driver/Src/stm32h7xx_hal_rcc.c ****     {
 247:Drivers/STM32H7xx_HAL_Driver/Src/stm32h7xx_hal_rcc.c ****       return HAL_TIMEOUT;
 147              		.loc 1 247 14
 148 00b0 0323     		movs	r3, #3
 149 00b2 B6E0     		b	.L3
 150              	.L7:
 243:Drivers/STM32H7xx_HAL_Driver/Src/stm32h7xx_hal_rcc.c ****   {
ARM GAS  C:\Users\fffff\AppData\Local\Temp\ccLkBlD6.s 			page 8


 151              		.loc 1 243 10
 152 00b4 5E4B     		ldr	r3, .L18+4
 153 00b6 1B69     		ldr	r3, [r3, #16]
 154 00b8 03F03803 		and	r3, r3, #56
 243:Drivers/STM32H7xx_HAL_Driver/Src/stm32h7xx_hal_rcc.c ****   {
 155              		.loc 1 243 44
 156 00bc 002B     		cmp	r3, #0
 157 00be EED1     		bne	.L8
 248:Drivers/STM32H7xx_HAL_Driver/Src/stm32h7xx_hal_rcc.c ****     }
 249:Drivers/STM32H7xx_HAL_Driver/Src/stm32h7xx_hal_rcc.c ****   }
 250:Drivers/STM32H7xx_HAL_Driver/Src/stm32h7xx_hal_rcc.c **** 
 251:Drivers/STM32H7xx_HAL_Driver/Src/stm32h7xx_hal_rcc.c ****   /* Get Start Tick */
 252:Drivers/STM32H7xx_HAL_Driver/Src/stm32h7xx_hal_rcc.c ****   tickstart = HAL_GetTick();
 158              		.loc 1 252 15
 159 00c0 FFF7FEFF 		bl	HAL_GetTick
 160 00c4 7860     		str	r0, [r7, #4]
 253:Drivers/STM32H7xx_HAL_Driver/Src/stm32h7xx_hal_rcc.c **** 
 254:Drivers/STM32H7xx_HAL_Driver/Src/stm32h7xx_hal_rcc.c ****   /* Reset CSION, CSIKERON, HSEON, HSI48ON, HSECSSON, HSIDIV bits */
 255:Drivers/STM32H7xx_HAL_Driver/Src/stm32h7xx_hal_rcc.c ****   CLEAR_BIT(RCC->CR, RCC_CR_HSEON | RCC_CR_HSIKERON | RCC_CR_HSIDIV | RCC_CR_HSIDIVF | RCC_CR_CSION
 161              		.loc 1 255 3
 162 00c6 5A4B     		ldr	r3, .L18+4
 163 00c8 1A68     		ldr	r2, [r3]
 164 00ca 5949     		ldr	r1, .L18+4
 165 00cc 5D4B     		ldr	r3, .L18+24
 166 00ce 1340     		ands	r3, r3, r2
 167 00d0 0B60     		str	r3, [r1]
 256:Drivers/STM32H7xx_HAL_Driver/Src/stm32h7xx_hal_rcc.c ****             | RCC_CR_HSI48ON | RCC_CR_CSSHSEON);
 257:Drivers/STM32H7xx_HAL_Driver/Src/stm32h7xx_hal_rcc.c **** 
 258:Drivers/STM32H7xx_HAL_Driver/Src/stm32h7xx_hal_rcc.c ****   /* Wait till HSE is disabled */
 259:Drivers/STM32H7xx_HAL_Driver/Src/stm32h7xx_hal_rcc.c ****   while (READ_BIT(RCC->CR, RCC_CR_HSERDY) != 0U)
 168              		.loc 1 259 9
 169 00d2 08E0     		b	.L9
 170              	.L10:
 260:Drivers/STM32H7xx_HAL_Driver/Src/stm32h7xx_hal_rcc.c ****   {
 261:Drivers/STM32H7xx_HAL_Driver/Src/stm32h7xx_hal_rcc.c ****     if ((HAL_GetTick() - tickstart) > HSE_TIMEOUT_VALUE)
 171              		.loc 1 261 10
 172 00d4 FFF7FEFF 		bl	HAL_GetTick
 173 00d8 0246     		mov	r2, r0
 174              		.loc 1 261 24 discriminator 1
 175 00da 7B68     		ldr	r3, [r7, #4]
 176 00dc D31A     		subs	r3, r2, r3
 177              		.loc 1 261 8 discriminator 1
 178 00de 642B     		cmp	r3, #100
 179 00e0 01D9     		bls	.L9
 262:Drivers/STM32H7xx_HAL_Driver/Src/stm32h7xx_hal_rcc.c ****     {
 263:Drivers/STM32H7xx_HAL_Driver/Src/stm32h7xx_hal_rcc.c ****       return HAL_TIMEOUT;
 180              		.loc 1 263 14
 181 00e2 0323     		movs	r3, #3
 182 00e4 9DE0     		b	.L3
 183              	.L9:
 259:Drivers/STM32H7xx_HAL_Driver/Src/stm32h7xx_hal_rcc.c ****   {
 184              		.loc 1 259 10
 185 00e6 524B     		ldr	r3, .L18+4
 186 00e8 1B68     		ldr	r3, [r3]
 187 00ea 03F40033 		and	r3, r3, #131072
 259:Drivers/STM32H7xx_HAL_Driver/Src/stm32h7xx_hal_rcc.c ****   {
 188              		.loc 1 259 43
ARM GAS  C:\Users\fffff\AppData\Local\Temp\ccLkBlD6.s 			page 9


 189 00ee 002B     		cmp	r3, #0
 190 00f0 F0D1     		bne	.L10
 264:Drivers/STM32H7xx_HAL_Driver/Src/stm32h7xx_hal_rcc.c ****     }
 265:Drivers/STM32H7xx_HAL_Driver/Src/stm32h7xx_hal_rcc.c ****   }
 266:Drivers/STM32H7xx_HAL_Driver/Src/stm32h7xx_hal_rcc.c **** 
 267:Drivers/STM32H7xx_HAL_Driver/Src/stm32h7xx_hal_rcc.c ****   /* Get Start Tick */
 268:Drivers/STM32H7xx_HAL_Driver/Src/stm32h7xx_hal_rcc.c ****   tickstart = HAL_GetTick();
 191              		.loc 1 268 15
 192 00f2 FFF7FEFF 		bl	HAL_GetTick
 193 00f6 7860     		str	r0, [r7, #4]
 269:Drivers/STM32H7xx_HAL_Driver/Src/stm32h7xx_hal_rcc.c **** 
 270:Drivers/STM32H7xx_HAL_Driver/Src/stm32h7xx_hal_rcc.c ****   /* Clear PLLON bit */
 271:Drivers/STM32H7xx_HAL_Driver/Src/stm32h7xx_hal_rcc.c ****   CLEAR_BIT(RCC->CR, RCC_CR_PLL1ON);
 194              		.loc 1 271 3
 195 00f8 4D4B     		ldr	r3, .L18+4
 196 00fa 1B68     		ldr	r3, [r3]
 197 00fc 4C4A     		ldr	r2, .L18+4
 198 00fe 23F08073 		bic	r3, r3, #16777216
 199 0102 1360     		str	r3, [r2]
 272:Drivers/STM32H7xx_HAL_Driver/Src/stm32h7xx_hal_rcc.c **** 
 273:Drivers/STM32H7xx_HAL_Driver/Src/stm32h7xx_hal_rcc.c ****   /* Wait till PLL is disabled */
 274:Drivers/STM32H7xx_HAL_Driver/Src/stm32h7xx_hal_rcc.c ****   while (READ_BIT(RCC->CR, RCC_CR_PLL1RDY) != 0U)
 200              		.loc 1 274 9
 201 0104 08E0     		b	.L11
 202              	.L12:
 275:Drivers/STM32H7xx_HAL_Driver/Src/stm32h7xx_hal_rcc.c ****   {
 276:Drivers/STM32H7xx_HAL_Driver/Src/stm32h7xx_hal_rcc.c ****     if ((HAL_GetTick() - tickstart) > PLL_TIMEOUT_VALUE)
 203              		.loc 1 276 10
 204 0106 FFF7FEFF 		bl	HAL_GetTick
 205 010a 0246     		mov	r2, r0
 206              		.loc 1 276 24 discriminator 1
 207 010c 7B68     		ldr	r3, [r7, #4]
 208 010e D31A     		subs	r3, r2, r3
 209              		.loc 1 276 8 discriminator 1
 210 0110 022B     		cmp	r3, #2
 211 0112 01D9     		bls	.L11
 277:Drivers/STM32H7xx_HAL_Driver/Src/stm32h7xx_hal_rcc.c ****     {
 278:Drivers/STM32H7xx_HAL_Driver/Src/stm32h7xx_hal_rcc.c ****       return HAL_TIMEOUT;
 212              		.loc 1 278 14
 213 0114 0323     		movs	r3, #3
 214 0116 84E0     		b	.L3
 215              	.L11:
 274:Drivers/STM32H7xx_HAL_Driver/Src/stm32h7xx_hal_rcc.c ****   {
 216              		.loc 1 274 10
 217 0118 454B     		ldr	r3, .L18+4
 218 011a 1B68     		ldr	r3, [r3]
 219 011c 03F00073 		and	r3, r3, #33554432
 274:Drivers/STM32H7xx_HAL_Driver/Src/stm32h7xx_hal_rcc.c ****   {
 220              		.loc 1 274 44
 221 0120 002B     		cmp	r3, #0
 222 0122 F0D1     		bne	.L12
 279:Drivers/STM32H7xx_HAL_Driver/Src/stm32h7xx_hal_rcc.c ****     }
 280:Drivers/STM32H7xx_HAL_Driver/Src/stm32h7xx_hal_rcc.c ****   }
 281:Drivers/STM32H7xx_HAL_Driver/Src/stm32h7xx_hal_rcc.c **** 
 282:Drivers/STM32H7xx_HAL_Driver/Src/stm32h7xx_hal_rcc.c ****   /* Get Start Tick */
 283:Drivers/STM32H7xx_HAL_Driver/Src/stm32h7xx_hal_rcc.c ****   tickstart = HAL_GetTick();
 223              		.loc 1 283 15
ARM GAS  C:\Users\fffff\AppData\Local\Temp\ccLkBlD6.s 			page 10


 224 0124 FFF7FEFF 		bl	HAL_GetTick
 225 0128 7860     		str	r0, [r7, #4]
 284:Drivers/STM32H7xx_HAL_Driver/Src/stm32h7xx_hal_rcc.c **** 
 285:Drivers/STM32H7xx_HAL_Driver/Src/stm32h7xx_hal_rcc.c ****   /* Reset PLL2ON bit */
 286:Drivers/STM32H7xx_HAL_Driver/Src/stm32h7xx_hal_rcc.c ****   CLEAR_BIT(RCC->CR, RCC_CR_PLL2ON);
 226              		.loc 1 286 3
 227 012a 414B     		ldr	r3, .L18+4
 228 012c 1B68     		ldr	r3, [r3]
 229 012e 404A     		ldr	r2, .L18+4
 230 0130 23F08063 		bic	r3, r3, #67108864
 231 0134 1360     		str	r3, [r2]
 287:Drivers/STM32H7xx_HAL_Driver/Src/stm32h7xx_hal_rcc.c **** 
 288:Drivers/STM32H7xx_HAL_Driver/Src/stm32h7xx_hal_rcc.c ****   /* Wait till PLL2 is disabled */
 289:Drivers/STM32H7xx_HAL_Driver/Src/stm32h7xx_hal_rcc.c ****   while (READ_BIT(RCC->CR, RCC_CR_PLL2RDY) != 0U)
 232              		.loc 1 289 9
 233 0136 08E0     		b	.L13
 234              	.L14:
 290:Drivers/STM32H7xx_HAL_Driver/Src/stm32h7xx_hal_rcc.c ****   {
 291:Drivers/STM32H7xx_HAL_Driver/Src/stm32h7xx_hal_rcc.c ****     if ((HAL_GetTick() - tickstart) > PLL_TIMEOUT_VALUE)
 235              		.loc 1 291 10
 236 0138 FFF7FEFF 		bl	HAL_GetTick
 237 013c 0246     		mov	r2, r0
 238              		.loc 1 291 24 discriminator 1
 239 013e 7B68     		ldr	r3, [r7, #4]
 240 0140 D31A     		subs	r3, r2, r3
 241              		.loc 1 291 8 discriminator 1
 242 0142 022B     		cmp	r3, #2
 243 0144 01D9     		bls	.L13
 292:Drivers/STM32H7xx_HAL_Driver/Src/stm32h7xx_hal_rcc.c ****     {
 293:Drivers/STM32H7xx_HAL_Driver/Src/stm32h7xx_hal_rcc.c ****       return HAL_TIMEOUT;
 244              		.loc 1 293 14
 245 0146 0323     		movs	r3, #3
 246 0148 6BE0     		b	.L3
 247              	.L13:
 289:Drivers/STM32H7xx_HAL_Driver/Src/stm32h7xx_hal_rcc.c ****   {
 248              		.loc 1 289 10
 249 014a 394B     		ldr	r3, .L18+4
 250 014c 1B68     		ldr	r3, [r3]
 251 014e 03F00063 		and	r3, r3, #134217728
 289:Drivers/STM32H7xx_HAL_Driver/Src/stm32h7xx_hal_rcc.c ****   {
 252              		.loc 1 289 44
 253 0152 002B     		cmp	r3, #0
 254 0154 F0D1     		bne	.L14
 294:Drivers/STM32H7xx_HAL_Driver/Src/stm32h7xx_hal_rcc.c ****     }
 295:Drivers/STM32H7xx_HAL_Driver/Src/stm32h7xx_hal_rcc.c ****   }
 296:Drivers/STM32H7xx_HAL_Driver/Src/stm32h7xx_hal_rcc.c **** 
 297:Drivers/STM32H7xx_HAL_Driver/Src/stm32h7xx_hal_rcc.c ****   /* Get Start Tick */
 298:Drivers/STM32H7xx_HAL_Driver/Src/stm32h7xx_hal_rcc.c ****   tickstart = HAL_GetTick();
 255              		.loc 1 298 15
 256 0156 FFF7FEFF 		bl	HAL_GetTick
 257 015a 7860     		str	r0, [r7, #4]
 299:Drivers/STM32H7xx_HAL_Driver/Src/stm32h7xx_hal_rcc.c **** 
 300:Drivers/STM32H7xx_HAL_Driver/Src/stm32h7xx_hal_rcc.c ****   /* Reset PLL3 bit */
 301:Drivers/STM32H7xx_HAL_Driver/Src/stm32h7xx_hal_rcc.c ****   CLEAR_BIT(RCC->CR, RCC_CR_PLL3ON);
 258              		.loc 1 301 3
 259 015c 344B     		ldr	r3, .L18+4
 260 015e 1B68     		ldr	r3, [r3]
ARM GAS  C:\Users\fffff\AppData\Local\Temp\ccLkBlD6.s 			page 11


 261 0160 334A     		ldr	r2, .L18+4
 262 0162 23F08053 		bic	r3, r3, #268435456
 263 0166 1360     		str	r3, [r2]
 302:Drivers/STM32H7xx_HAL_Driver/Src/stm32h7xx_hal_rcc.c **** 
 303:Drivers/STM32H7xx_HAL_Driver/Src/stm32h7xx_hal_rcc.c ****   /* Wait till PLL3 is disabled */
 304:Drivers/STM32H7xx_HAL_Driver/Src/stm32h7xx_hal_rcc.c ****   while (READ_BIT(RCC->CR, RCC_CR_PLL3RDY) != 0U)
 264              		.loc 1 304 9
 265 0168 08E0     		b	.L15
 266              	.L16:
 305:Drivers/STM32H7xx_HAL_Driver/Src/stm32h7xx_hal_rcc.c ****   {
 306:Drivers/STM32H7xx_HAL_Driver/Src/stm32h7xx_hal_rcc.c ****     if ((HAL_GetTick() - tickstart) > PLL_TIMEOUT_VALUE)
 267              		.loc 1 306 10
 268 016a FFF7FEFF 		bl	HAL_GetTick
 269 016e 0246     		mov	r2, r0
 270              		.loc 1 306 24 discriminator 1
 271 0170 7B68     		ldr	r3, [r7, #4]
 272 0172 D31A     		subs	r3, r2, r3
 273              		.loc 1 306 8 discriminator 1
 274 0174 022B     		cmp	r3, #2
 275 0176 01D9     		bls	.L15
 307:Drivers/STM32H7xx_HAL_Driver/Src/stm32h7xx_hal_rcc.c ****     {
 308:Drivers/STM32H7xx_HAL_Driver/Src/stm32h7xx_hal_rcc.c ****       return HAL_TIMEOUT;
 276              		.loc 1 308 14
 277 0178 0323     		movs	r3, #3
 278 017a 52E0     		b	.L3
 279              	.L15:
 304:Drivers/STM32H7xx_HAL_Driver/Src/stm32h7xx_hal_rcc.c ****   {
 280              		.loc 1 304 10
 281 017c 2C4B     		ldr	r3, .L18+4
 282 017e 1B68     		ldr	r3, [r3]
 283 0180 03F00053 		and	r3, r3, #536870912
 304:Drivers/STM32H7xx_HAL_Driver/Src/stm32h7xx_hal_rcc.c ****   {
 284              		.loc 1 304 44
 285 0184 002B     		cmp	r3, #0
 286 0186 F0D1     		bne	.L16
 309:Drivers/STM32H7xx_HAL_Driver/Src/stm32h7xx_hal_rcc.c ****     }
 310:Drivers/STM32H7xx_HAL_Driver/Src/stm32h7xx_hal_rcc.c ****   }
 311:Drivers/STM32H7xx_HAL_Driver/Src/stm32h7xx_hal_rcc.c **** 
 312:Drivers/STM32H7xx_HAL_Driver/Src/stm32h7xx_hal_rcc.c **** #if defined(RCC_D1CFGR_HPRE)
 313:Drivers/STM32H7xx_HAL_Driver/Src/stm32h7xx_hal_rcc.c ****   /* Reset D1CFGR register */
 314:Drivers/STM32H7xx_HAL_Driver/Src/stm32h7xx_hal_rcc.c ****   CLEAR_REG(RCC->D1CFGR);
 287              		.loc 1 314 3
 288 0188 294B     		ldr	r3, .L18+4
 289 018a 0022     		movs	r2, #0
 290 018c 9A61     		str	r2, [r3, #24]
 315:Drivers/STM32H7xx_HAL_Driver/Src/stm32h7xx_hal_rcc.c **** 
 316:Drivers/STM32H7xx_HAL_Driver/Src/stm32h7xx_hal_rcc.c ****   /* Reset D2CFGR register */
 317:Drivers/STM32H7xx_HAL_Driver/Src/stm32h7xx_hal_rcc.c ****   CLEAR_REG(RCC->D2CFGR);
 291              		.loc 1 317 3
 292 018e 284B     		ldr	r3, .L18+4
 293 0190 0022     		movs	r2, #0
 294 0192 DA61     		str	r2, [r3, #28]
 318:Drivers/STM32H7xx_HAL_Driver/Src/stm32h7xx_hal_rcc.c **** 
 319:Drivers/STM32H7xx_HAL_Driver/Src/stm32h7xx_hal_rcc.c ****   /* Reset D3CFGR register */
 320:Drivers/STM32H7xx_HAL_Driver/Src/stm32h7xx_hal_rcc.c ****   CLEAR_REG(RCC->D3CFGR);
 295              		.loc 1 320 3
 296 0194 264B     		ldr	r3, .L18+4
ARM GAS  C:\Users\fffff\AppData\Local\Temp\ccLkBlD6.s 			page 12


 297 0196 0022     		movs	r2, #0
 298 0198 1A62     		str	r2, [r3, #32]
 321:Drivers/STM32H7xx_HAL_Driver/Src/stm32h7xx_hal_rcc.c **** #else
 322:Drivers/STM32H7xx_HAL_Driver/Src/stm32h7xx_hal_rcc.c ****   /* Reset CDCFGR1 register */
 323:Drivers/STM32H7xx_HAL_Driver/Src/stm32h7xx_hal_rcc.c ****   CLEAR_REG(RCC->CDCFGR1);
 324:Drivers/STM32H7xx_HAL_Driver/Src/stm32h7xx_hal_rcc.c **** 
 325:Drivers/STM32H7xx_HAL_Driver/Src/stm32h7xx_hal_rcc.c ****   /* Reset CDCFGR2 register */
 326:Drivers/STM32H7xx_HAL_Driver/Src/stm32h7xx_hal_rcc.c ****   CLEAR_REG(RCC->CDCFGR2);
 327:Drivers/STM32H7xx_HAL_Driver/Src/stm32h7xx_hal_rcc.c **** 
 328:Drivers/STM32H7xx_HAL_Driver/Src/stm32h7xx_hal_rcc.c ****   /* Reset SRDCFGR register */
 329:Drivers/STM32H7xx_HAL_Driver/Src/stm32h7xx_hal_rcc.c ****   CLEAR_REG(RCC->SRDCFGR);
 330:Drivers/STM32H7xx_HAL_Driver/Src/stm32h7xx_hal_rcc.c **** #endif
 331:Drivers/STM32H7xx_HAL_Driver/Src/stm32h7xx_hal_rcc.c **** 
 332:Drivers/STM32H7xx_HAL_Driver/Src/stm32h7xx_hal_rcc.c ****   /* Reset PLLCKSELR register to default value */
 333:Drivers/STM32H7xx_HAL_Driver/Src/stm32h7xx_hal_rcc.c ****   RCC->PLLCKSELR = RCC_PLLCKSELR_DIVM1_5 | RCC_PLLCKSELR_DIVM2_5 | RCC_PLLCKSELR_DIVM3_5;
 299              		.loc 1 333 6
 300 019a 254B     		ldr	r3, .L18+4
 301              		.loc 1 333 18
 302 019c 2A4A     		ldr	r2, .L18+28
 303 019e 9A62     		str	r2, [r3, #40]
 334:Drivers/STM32H7xx_HAL_Driver/Src/stm32h7xx_hal_rcc.c **** 
 335:Drivers/STM32H7xx_HAL_Driver/Src/stm32h7xx_hal_rcc.c ****   /* Reset PLLCFGR register to default value */
 336:Drivers/STM32H7xx_HAL_Driver/Src/stm32h7xx_hal_rcc.c ****   WRITE_REG(RCC->PLLCFGR, 0x01FF0000U);
 304              		.loc 1 336 3
 305 01a0 234B     		ldr	r3, .L18+4
 306 01a2 2A4A     		ldr	r2, .L18+32
 307 01a4 DA62     		str	r2, [r3, #44]
 337:Drivers/STM32H7xx_HAL_Driver/Src/stm32h7xx_hal_rcc.c **** 
 338:Drivers/STM32H7xx_HAL_Driver/Src/stm32h7xx_hal_rcc.c ****   /* Reset PLL1DIVR register to default value */
 339:Drivers/STM32H7xx_HAL_Driver/Src/stm32h7xx_hal_rcc.c ****   WRITE_REG(RCC->PLL1DIVR, 0x01010280U);
 308              		.loc 1 339 3
 309 01a6 224B     		ldr	r3, .L18+4
 310 01a8 294A     		ldr	r2, .L18+36
 311 01aa 1A63     		str	r2, [r3, #48]
 340:Drivers/STM32H7xx_HAL_Driver/Src/stm32h7xx_hal_rcc.c **** 
 341:Drivers/STM32H7xx_HAL_Driver/Src/stm32h7xx_hal_rcc.c ****   /* Reset PLL1FRACR register */
 342:Drivers/STM32H7xx_HAL_Driver/Src/stm32h7xx_hal_rcc.c ****   CLEAR_REG(RCC->PLL1FRACR);
 312              		.loc 1 342 3
 313 01ac 204B     		ldr	r3, .L18+4
 314 01ae 0022     		movs	r2, #0
 315 01b0 5A63     		str	r2, [r3, #52]
 343:Drivers/STM32H7xx_HAL_Driver/Src/stm32h7xx_hal_rcc.c **** 
 344:Drivers/STM32H7xx_HAL_Driver/Src/stm32h7xx_hal_rcc.c ****   /* Reset PLL2DIVR register to default value */
 345:Drivers/STM32H7xx_HAL_Driver/Src/stm32h7xx_hal_rcc.c ****   WRITE_REG(RCC->PLL2DIVR, 0x01010280U);
 316              		.loc 1 345 3
 317 01b2 1F4B     		ldr	r3, .L18+4
 318 01b4 264A     		ldr	r2, .L18+36
 319 01b6 9A63     		str	r2, [r3, #56]
 346:Drivers/STM32H7xx_HAL_Driver/Src/stm32h7xx_hal_rcc.c **** 
 347:Drivers/STM32H7xx_HAL_Driver/Src/stm32h7xx_hal_rcc.c ****   /* Reset PLL2FRACR register */
 348:Drivers/STM32H7xx_HAL_Driver/Src/stm32h7xx_hal_rcc.c ****   CLEAR_REG(RCC->PLL2FRACR);
 320              		.loc 1 348 3
 321 01b8 1D4B     		ldr	r3, .L18+4
 322 01ba 0022     		movs	r2, #0
 323 01bc DA63     		str	r2, [r3, #60]
 349:Drivers/STM32H7xx_HAL_Driver/Src/stm32h7xx_hal_rcc.c **** 
 350:Drivers/STM32H7xx_HAL_Driver/Src/stm32h7xx_hal_rcc.c ****   /* Reset PLL3DIVR register to default value */
ARM GAS  C:\Users\fffff\AppData\Local\Temp\ccLkBlD6.s 			page 13


 351:Drivers/STM32H7xx_HAL_Driver/Src/stm32h7xx_hal_rcc.c ****   WRITE_REG(RCC->PLL3DIVR, 0x01010280U);
 324              		.loc 1 351 3
 325 01be 1C4B     		ldr	r3, .L18+4
 326 01c0 234A     		ldr	r2, .L18+36
 327 01c2 1A64     		str	r2, [r3, #64]
 352:Drivers/STM32H7xx_HAL_Driver/Src/stm32h7xx_hal_rcc.c **** 
 353:Drivers/STM32H7xx_HAL_Driver/Src/stm32h7xx_hal_rcc.c ****   /* Reset PLL3FRACR register */
 354:Drivers/STM32H7xx_HAL_Driver/Src/stm32h7xx_hal_rcc.c ****   CLEAR_REG(RCC->PLL3FRACR);
 328              		.loc 1 354 3
 329 01c4 1A4B     		ldr	r3, .L18+4
 330 01c6 0022     		movs	r2, #0
 331 01c8 5A64     		str	r2, [r3, #68]
 355:Drivers/STM32H7xx_HAL_Driver/Src/stm32h7xx_hal_rcc.c **** 
 356:Drivers/STM32H7xx_HAL_Driver/Src/stm32h7xx_hal_rcc.c **** #if defined(RCC_CR_HSEEXT)
 357:Drivers/STM32H7xx_HAL_Driver/Src/stm32h7xx_hal_rcc.c ****   /* Reset HSEEXT  */
 358:Drivers/STM32H7xx_HAL_Driver/Src/stm32h7xx_hal_rcc.c ****   CLEAR_BIT(RCC->CR, RCC_CR_HSEEXT);
 359:Drivers/STM32H7xx_HAL_Driver/Src/stm32h7xx_hal_rcc.c **** #endif /* RCC_CR_HSEEXT */
 360:Drivers/STM32H7xx_HAL_Driver/Src/stm32h7xx_hal_rcc.c **** 
 361:Drivers/STM32H7xx_HAL_Driver/Src/stm32h7xx_hal_rcc.c ****   /* Reset HSEBYP bit */
 362:Drivers/STM32H7xx_HAL_Driver/Src/stm32h7xx_hal_rcc.c ****   CLEAR_BIT(RCC->CR, RCC_CR_HSEBYP);
 332              		.loc 1 362 3
 333 01ca 194B     		ldr	r3, .L18+4
 334 01cc 1B68     		ldr	r3, [r3]
 335 01ce 184A     		ldr	r2, .L18+4
 336 01d0 23F48023 		bic	r3, r3, #262144
 337 01d4 1360     		str	r3, [r2]
 363:Drivers/STM32H7xx_HAL_Driver/Src/stm32h7xx_hal_rcc.c **** 
 364:Drivers/STM32H7xx_HAL_Driver/Src/stm32h7xx_hal_rcc.c ****   /* Disable all interrupts */
 365:Drivers/STM32H7xx_HAL_Driver/Src/stm32h7xx_hal_rcc.c ****   CLEAR_REG(RCC->CIER);
 338              		.loc 1 365 3
 339 01d6 164B     		ldr	r3, .L18+4
 340 01d8 0022     		movs	r2, #0
 341 01da 1A66     		str	r2, [r3, #96]
 366:Drivers/STM32H7xx_HAL_Driver/Src/stm32h7xx_hal_rcc.c **** 
 367:Drivers/STM32H7xx_HAL_Driver/Src/stm32h7xx_hal_rcc.c ****   /* Clear all interrupts flags */
 368:Drivers/STM32H7xx_HAL_Driver/Src/stm32h7xx_hal_rcc.c ****   WRITE_REG(RCC->CICR, 0xFFFFFFFFU);
 342              		.loc 1 368 3
 343 01dc 144B     		ldr	r3, .L18+4
 344 01de 4FF0FF32 		mov	r2, #-1
 345 01e2 9A66     		str	r2, [r3, #104]
 369:Drivers/STM32H7xx_HAL_Driver/Src/stm32h7xx_hal_rcc.c **** 
 370:Drivers/STM32H7xx_HAL_Driver/Src/stm32h7xx_hal_rcc.c ****   /* Reset all RSR flags */
 371:Drivers/STM32H7xx_HAL_Driver/Src/stm32h7xx_hal_rcc.c ****   SET_BIT(RCC->RSR, RCC_RSR_RMVF);
 346              		.loc 1 371 3
 347 01e4 124B     		ldr	r3, .L18+4
 348 01e6 D3F8D030 		ldr	r3, [r3, #208]
 349 01ea 114A     		ldr	r2, .L18+4
 350 01ec 43F48033 		orr	r3, r3, #65536
 351 01f0 C2F8D030 		str	r3, [r2, #208]
 372:Drivers/STM32H7xx_HAL_Driver/Src/stm32h7xx_hal_rcc.c **** 
 373:Drivers/STM32H7xx_HAL_Driver/Src/stm32h7xx_hal_rcc.c ****   /* Decreasing the number of wait states because of lower CPU frequency */
 374:Drivers/STM32H7xx_HAL_Driver/Src/stm32h7xx_hal_rcc.c ****   if (FLASH_LATENCY_DEFAULT  < __HAL_FLASH_GET_LATENCY())
 352              		.loc 1 374 32
 353 01f4 0D4B     		ldr	r3, .L18
 354 01f6 1B68     		ldr	r3, [r3]
 355              		.loc 1 374 30
 356 01f8 03F00803 		and	r3, r3, #8
ARM GAS  C:\Users\fffff\AppData\Local\Temp\ccLkBlD6.s 			page 14


 357              		.loc 1 374 6
 358 01fc 002B     		cmp	r3, #0
 359 01fe 0FD0     		beq	.L17
 375:Drivers/STM32H7xx_HAL_Driver/Src/stm32h7xx_hal_rcc.c ****   {
 376:Drivers/STM32H7xx_HAL_Driver/Src/stm32h7xx_hal_rcc.c ****     /* Program the new number of wait states to the LATENCY bits in the FLASH_ACR register */
 377:Drivers/STM32H7xx_HAL_Driver/Src/stm32h7xx_hal_rcc.c ****     __HAL_FLASH_SET_LATENCY(FLASH_LATENCY_DEFAULT);
 360              		.loc 1 377 5
 361 0200 0A4B     		ldr	r3, .L18
 362 0202 1B68     		ldr	r3, [r3]
 363 0204 23F00F03 		bic	r3, r3, #15
 364 0208 084A     		ldr	r2, .L18
 365 020a 43F00703 		orr	r3, r3, #7
 366 020e 1360     		str	r3, [r2]
 378:Drivers/STM32H7xx_HAL_Driver/Src/stm32h7xx_hal_rcc.c **** 
 379:Drivers/STM32H7xx_HAL_Driver/Src/stm32h7xx_hal_rcc.c ****     /* Check that the new number of wait states is taken into account to access the Flash
 380:Drivers/STM32H7xx_HAL_Driver/Src/stm32h7xx_hal_rcc.c ****     memory by reading the FLASH_ACR register */
 381:Drivers/STM32H7xx_HAL_Driver/Src/stm32h7xx_hal_rcc.c ****     if (__HAL_FLASH_GET_LATENCY() != FLASH_LATENCY_DEFAULT)
 367              		.loc 1 381 9
 368 0210 064B     		ldr	r3, .L18
 369 0212 1B68     		ldr	r3, [r3]
 370 0214 03F00F03 		and	r3, r3, #15
 371              		.loc 1 381 8
 372 0218 072B     		cmp	r3, #7
 373 021a 01D0     		beq	.L17
 382:Drivers/STM32H7xx_HAL_Driver/Src/stm32h7xx_hal_rcc.c ****     {
 383:Drivers/STM32H7xx_HAL_Driver/Src/stm32h7xx_hal_rcc.c ****       return HAL_ERROR;
 374              		.loc 1 383 14
 375 021c 0123     		movs	r3, #1
 376 021e 00E0     		b	.L3
 377              	.L17:
 384:Drivers/STM32H7xx_HAL_Driver/Src/stm32h7xx_hal_rcc.c ****     }
 385:Drivers/STM32H7xx_HAL_Driver/Src/stm32h7xx_hal_rcc.c **** 
 386:Drivers/STM32H7xx_HAL_Driver/Src/stm32h7xx_hal_rcc.c ****   }
 387:Drivers/STM32H7xx_HAL_Driver/Src/stm32h7xx_hal_rcc.c **** 
 388:Drivers/STM32H7xx_HAL_Driver/Src/stm32h7xx_hal_rcc.c ****   return HAL_OK;
 378              		.loc 1 388 10
 379 0220 0023     		movs	r3, #0
 380              	.L3:
 389:Drivers/STM32H7xx_HAL_Driver/Src/stm32h7xx_hal_rcc.c **** }
 381              		.loc 1 389 1
 382 0222 1846     		mov	r0, r3
 383 0224 0837     		adds	r7, r7, #8
 384              	.LCFI3:
 385              		.cfi_def_cfa_offset 8
 386 0226 BD46     		mov	sp, r7
 387              	.LCFI4:
 388              		.cfi_def_cfa_register 13
 389              		@ sp needed
 390 0228 80BD     		pop	{r7, pc}
 391              	.L19:
 392 022a 00BF     		.align	2
 393              	.L18:
 394 022c 00200052 		.word	1375739904
 395 0230 00440258 		.word	1476543488
 396 0234 00000000 		.word	SystemCoreClock
 397 0238 0090D003 		.word	64000000
 398 023c 00000000 		.word	SystemD2Clock
ARM GAS  C:\Users\fffff\AppData\Local\Temp\ccLkBlD6.s 			page 15


 399 0240 00000000 		.word	uwTickPrio
 400 0244 45EDF6FF 		.word	-594619
 401 0248 00020202 		.word	33686016
 402 024c 0000FF01 		.word	33488896
 403 0250 80020101 		.word	16843392
 404              		.cfi_endproc
 405              	.LFE144:
 407              		.section	.text.HAL_RCC_OscConfig,"ax",%progbits
 408              		.align	1
 409              		.weak	HAL_RCC_OscConfig
 410              		.syntax unified
 411              		.thumb
 412              		.thumb_func
 414              	HAL_RCC_OscConfig:
 415              	.LFB145:
 390:Drivers/STM32H7xx_HAL_Driver/Src/stm32h7xx_hal_rcc.c **** 
 391:Drivers/STM32H7xx_HAL_Driver/Src/stm32h7xx_hal_rcc.c **** /**
 392:Drivers/STM32H7xx_HAL_Driver/Src/stm32h7xx_hal_rcc.c ****   * @brief  Initializes the RCC Oscillators according to the specified parameters in the
 393:Drivers/STM32H7xx_HAL_Driver/Src/stm32h7xx_hal_rcc.c ****   *         RCC_OscInitTypeDef.
 394:Drivers/STM32H7xx_HAL_Driver/Src/stm32h7xx_hal_rcc.c ****   * @param  RCC_OscInitStruct: pointer to an RCC_OscInitTypeDef structure that
 395:Drivers/STM32H7xx_HAL_Driver/Src/stm32h7xx_hal_rcc.c ****   *         contains the configuration information for the RCC Oscillators.
 396:Drivers/STM32H7xx_HAL_Driver/Src/stm32h7xx_hal_rcc.c ****   * @note   The PLL is not disabled when used as system clock.
 397:Drivers/STM32H7xx_HAL_Driver/Src/stm32h7xx_hal_rcc.c ****   * @note   Transitions LSE Bypass to LSE On and LSE On to LSE Bypass are not
 398:Drivers/STM32H7xx_HAL_Driver/Src/stm32h7xx_hal_rcc.c ****   *         supported by this function. User should request a transition to LSE Off
 399:Drivers/STM32H7xx_HAL_Driver/Src/stm32h7xx_hal_rcc.c ****   *         first and then LSE On or LSE Bypass.
 400:Drivers/STM32H7xx_HAL_Driver/Src/stm32h7xx_hal_rcc.c ****   * @note   Transition HSE Bypass to HSE On and HSE On to HSE Bypass are not
 401:Drivers/STM32H7xx_HAL_Driver/Src/stm32h7xx_hal_rcc.c ****   *         supported by this function. User should request a transition to HSE Off
 402:Drivers/STM32H7xx_HAL_Driver/Src/stm32h7xx_hal_rcc.c ****   *         first and then HSE On or HSE Bypass.
 403:Drivers/STM32H7xx_HAL_Driver/Src/stm32h7xx_hal_rcc.c ****   * @retval HAL status
 404:Drivers/STM32H7xx_HAL_Driver/Src/stm32h7xx_hal_rcc.c ****   */
 405:Drivers/STM32H7xx_HAL_Driver/Src/stm32h7xx_hal_rcc.c **** __weak HAL_StatusTypeDef HAL_RCC_OscConfig(RCC_OscInitTypeDef  *RCC_OscInitStruct)
 406:Drivers/STM32H7xx_HAL_Driver/Src/stm32h7xx_hal_rcc.c **** {
 416              		.loc 1 406 1
 417              		.cfi_startproc
 418              		@ args = 0, pretend = 0, frame = 48
 419              		@ frame_needed = 1, uses_anonymous_args = 0
 420 0000 80B5     		push	{r7, lr}
 421              	.LCFI5:
 422              		.cfi_def_cfa_offset 8
 423              		.cfi_offset 7, -8
 424              		.cfi_offset 14, -4
 425 0002 8CB0     		sub	sp, sp, #48
 426              	.LCFI6:
 427              		.cfi_def_cfa_offset 56
 428 0004 00AF     		add	r7, sp, #0
 429              	.LCFI7:
 430              		.cfi_def_cfa_register 7
 431 0006 7860     		str	r0, [r7, #4]
 407:Drivers/STM32H7xx_HAL_Driver/Src/stm32h7xx_hal_rcc.c ****   uint32_t tickstart;
 408:Drivers/STM32H7xx_HAL_Driver/Src/stm32h7xx_hal_rcc.c ****   uint32_t temp1_pllckcfg, temp2_pllckcfg;
 409:Drivers/STM32H7xx_HAL_Driver/Src/stm32h7xx_hal_rcc.c **** 
 410:Drivers/STM32H7xx_HAL_Driver/Src/stm32h7xx_hal_rcc.c ****   /* Check Null pointer */
 411:Drivers/STM32H7xx_HAL_Driver/Src/stm32h7xx_hal_rcc.c ****   if (RCC_OscInitStruct == NULL)
 432              		.loc 1 411 6
 433 0008 7B68     		ldr	r3, [r7, #4]
 434 000a 002B     		cmp	r3, #0
 435 000c 01D1     		bne	.L21
ARM GAS  C:\Users\fffff\AppData\Local\Temp\ccLkBlD6.s 			page 16


 412:Drivers/STM32H7xx_HAL_Driver/Src/stm32h7xx_hal_rcc.c ****   {
 413:Drivers/STM32H7xx_HAL_Driver/Src/stm32h7xx_hal_rcc.c ****     return HAL_ERROR;
 436              		.loc 1 413 12
 437 000e 0123     		movs	r3, #1
 438 0010 C8E3     		b	.L22
 439              	.L21:
 414:Drivers/STM32H7xx_HAL_Driver/Src/stm32h7xx_hal_rcc.c ****   }
 415:Drivers/STM32H7xx_HAL_Driver/Src/stm32h7xx_hal_rcc.c **** 
 416:Drivers/STM32H7xx_HAL_Driver/Src/stm32h7xx_hal_rcc.c ****   /* Check the parameters */
 417:Drivers/STM32H7xx_HAL_Driver/Src/stm32h7xx_hal_rcc.c ****   assert_param(IS_RCC_OSCILLATORTYPE(RCC_OscInitStruct->OscillatorType));
 418:Drivers/STM32H7xx_HAL_Driver/Src/stm32h7xx_hal_rcc.c ****   /*------------------------------- HSE Configuration ------------------------*/
 419:Drivers/STM32H7xx_HAL_Driver/Src/stm32h7xx_hal_rcc.c ****   if (((RCC_OscInitStruct->OscillatorType) & RCC_OSCILLATORTYPE_HSE) == RCC_OSCILLATORTYPE_HSE)
 440              		.loc 1 419 26
 441 0012 7B68     		ldr	r3, [r7, #4]
 442 0014 1B68     		ldr	r3, [r3]
 443              		.loc 1 419 44
 444 0016 03F00103 		and	r3, r3, #1
 445              		.loc 1 419 6
 446 001a 002B     		cmp	r3, #0
 447 001c 00F08780 		beq	.L23
 448              	.LBB2:
 420:Drivers/STM32H7xx_HAL_Driver/Src/stm32h7xx_hal_rcc.c ****   {
 421:Drivers/STM32H7xx_HAL_Driver/Src/stm32h7xx_hal_rcc.c ****     /* Check the parameters */
 422:Drivers/STM32H7xx_HAL_Driver/Src/stm32h7xx_hal_rcc.c ****     assert_param(IS_RCC_HSE(RCC_OscInitStruct->HSEState));
 423:Drivers/STM32H7xx_HAL_Driver/Src/stm32h7xx_hal_rcc.c **** 
 424:Drivers/STM32H7xx_HAL_Driver/Src/stm32h7xx_hal_rcc.c ****     const uint32_t temp_sysclksrc = __HAL_RCC_GET_SYSCLK_SOURCE();
 449              		.loc 1 424 37
 450 0020 884B     		ldr	r3, .L93
 451 0022 1B69     		ldr	r3, [r3, #16]
 452              		.loc 1 424 20
 453 0024 03F03803 		and	r3, r3, #56
 454 0028 FB62     		str	r3, [r7, #44]
 425:Drivers/STM32H7xx_HAL_Driver/Src/stm32h7xx_hal_rcc.c ****     const uint32_t temp_pllckselr = RCC->PLLCKSELR;
 455              		.loc 1 425 40
 456 002a 864B     		ldr	r3, .L93
 457              		.loc 1 425 20
 458 002c 9B6A     		ldr	r3, [r3, #40]
 459 002e BB62     		str	r3, [r7, #40]
 426:Drivers/STM32H7xx_HAL_Driver/Src/stm32h7xx_hal_rcc.c ****     /* When the HSE is used as system clock or clock source for PLL in these cases HSE will not dis
 427:Drivers/STM32H7xx_HAL_Driver/Src/stm32h7xx_hal_rcc.c ****     if ((temp_sysclksrc == RCC_CFGR_SWS_HSE) || ((temp_sysclksrc == RCC_CFGR_SWS_PLL1) && ((temp_pl
 460              		.loc 1 427 8
 461 0030 FB6A     		ldr	r3, [r7, #44]
 462 0032 102B     		cmp	r3, #16
 463 0034 07D0     		beq	.L24
 464              		.loc 1 427 46 discriminator 1
 465 0036 FB6A     		ldr	r3, [r7, #44]
 466 0038 182B     		cmp	r3, #24
 467 003a 10D1     		bne	.L25
 468              		.loc 1 427 108 discriminator 2
 469 003c BB6A     		ldr	r3, [r7, #40]
 470 003e 03F00303 		and	r3, r3, #3
 471              		.loc 1 427 88 discriminator 2
 472 0042 022B     		cmp	r3, #2
 473 0044 0BD1     		bne	.L25
 474              	.L24:
 428:Drivers/STM32H7xx_HAL_Driver/Src/stm32h7xx_hal_rcc.c ****     {
 429:Drivers/STM32H7xx_HAL_Driver/Src/stm32h7xx_hal_rcc.c ****       if ((__HAL_RCC_GET_FLAG(RCC_FLAG_HSERDY) != 0U) && (RCC_OscInitStruct->HSEState == RCC_HSE_OF
ARM GAS  C:\Users\fffff\AppData\Local\Temp\ccLkBlD6.s 			page 17


 475              		.loc 1 429 12
 476 0046 7F4B     		ldr	r3, .L93
 477 0048 1B68     		ldr	r3, [r3]
 478 004a 03F40033 		and	r3, r3, #131072
 479              		.loc 1 429 10
 480 004e 002B     		cmp	r3, #0
 481 0050 6CD0     		beq	.L92
 482              		.loc 1 429 76 discriminator 1
 483 0052 7B68     		ldr	r3, [r7, #4]
 484 0054 5B68     		ldr	r3, [r3, #4]
 485              		.loc 1 429 55 discriminator 1
 486 0056 002B     		cmp	r3, #0
 487 0058 68D1     		bne	.L92
 430:Drivers/STM32H7xx_HAL_Driver/Src/stm32h7xx_hal_rcc.c ****       {
 431:Drivers/STM32H7xx_HAL_Driver/Src/stm32h7xx_hal_rcc.c ****         return HAL_ERROR;
 488              		.loc 1 431 16
 489 005a 0123     		movs	r3, #1
 490 005c A2E3     		b	.L22
 491              	.L25:
 432:Drivers/STM32H7xx_HAL_Driver/Src/stm32h7xx_hal_rcc.c ****       }
 433:Drivers/STM32H7xx_HAL_Driver/Src/stm32h7xx_hal_rcc.c ****     }
 434:Drivers/STM32H7xx_HAL_Driver/Src/stm32h7xx_hal_rcc.c ****     else
 435:Drivers/STM32H7xx_HAL_Driver/Src/stm32h7xx_hal_rcc.c ****     {
 436:Drivers/STM32H7xx_HAL_Driver/Src/stm32h7xx_hal_rcc.c ****       /* Set the new HSE configuration ---------------------------------------*/
 437:Drivers/STM32H7xx_HAL_Driver/Src/stm32h7xx_hal_rcc.c ****       __HAL_RCC_HSE_CONFIG(RCC_OscInitStruct->HSEState);
 492              		.loc 1 437 7
 493 005e 7B68     		ldr	r3, [r7, #4]
 494 0060 5B68     		ldr	r3, [r3, #4]
 495 0062 B3F5803F 		cmp	r3, #65536
 496 0066 06D1     		bne	.L27
 497              		.loc 1 437 7 is_stmt 0 discriminator 1
 498 0068 764B     		ldr	r3, .L93
 499 006a 1B68     		ldr	r3, [r3]
 500 006c 754A     		ldr	r2, .L93
 501 006e 43F48033 		orr	r3, r3, #65536
 502 0072 1360     		str	r3, [r2]
 503 0074 2EE0     		b	.L28
 504              	.L27:
 505              		.loc 1 437 7 discriminator 2
 506 0076 7B68     		ldr	r3, [r7, #4]
 507 0078 5B68     		ldr	r3, [r3, #4]
 508 007a 002B     		cmp	r3, #0
 509 007c 0CD1     		bne	.L29
 510              		.loc 1 437 7 discriminator 3
 511 007e 714B     		ldr	r3, .L93
 512 0080 1B68     		ldr	r3, [r3]
 513 0082 704A     		ldr	r2, .L93
 514 0084 23F48033 		bic	r3, r3, #65536
 515 0088 1360     		str	r3, [r2]
 516 008a 6E4B     		ldr	r3, .L93
 517 008c 1B68     		ldr	r3, [r3]
 518 008e 6D4A     		ldr	r2, .L93
 519 0090 23F48023 		bic	r3, r3, #262144
 520 0094 1360     		str	r3, [r2]
 521 0096 1DE0     		b	.L28
 522              	.L29:
 523              		.loc 1 437 7 discriminator 4
ARM GAS  C:\Users\fffff\AppData\Local\Temp\ccLkBlD6.s 			page 18


 524 0098 7B68     		ldr	r3, [r7, #4]
 525 009a 5B68     		ldr	r3, [r3, #4]
 526 009c B3F5A02F 		cmp	r3, #327680
 527 00a0 0CD1     		bne	.L30
 528              		.loc 1 437 7 discriminator 5
 529 00a2 684B     		ldr	r3, .L93
 530 00a4 1B68     		ldr	r3, [r3]
 531 00a6 674A     		ldr	r2, .L93
 532 00a8 43F48023 		orr	r3, r3, #262144
 533 00ac 1360     		str	r3, [r2]
 534 00ae 654B     		ldr	r3, .L93
 535 00b0 1B68     		ldr	r3, [r3]
 536 00b2 644A     		ldr	r2, .L93
 537 00b4 43F48033 		orr	r3, r3, #65536
 538 00b8 1360     		str	r3, [r2]
 539 00ba 0BE0     		b	.L28
 540              	.L30:
 541              		.loc 1 437 7 discriminator 6
 542 00bc 614B     		ldr	r3, .L93
 543 00be 1B68     		ldr	r3, [r3]
 544 00c0 604A     		ldr	r2, .L93
 545 00c2 23F48033 		bic	r3, r3, #65536
 546 00c6 1360     		str	r3, [r2]
 547 00c8 5E4B     		ldr	r3, .L93
 548 00ca 1B68     		ldr	r3, [r3]
 549 00cc 5D4A     		ldr	r2, .L93
 550 00ce 23F48023 		bic	r3, r3, #262144
 551 00d2 1360     		str	r3, [r2]
 552              	.L28:
 438:Drivers/STM32H7xx_HAL_Driver/Src/stm32h7xx_hal_rcc.c **** 
 439:Drivers/STM32H7xx_HAL_Driver/Src/stm32h7xx_hal_rcc.c ****       /* Check the HSE State */
 440:Drivers/STM32H7xx_HAL_Driver/Src/stm32h7xx_hal_rcc.c ****       if (RCC_OscInitStruct->HSEState != RCC_HSE_OFF)
 553              		.loc 1 440 28 is_stmt 1
 554 00d4 7B68     		ldr	r3, [r7, #4]
 555 00d6 5B68     		ldr	r3, [r3, #4]
 556              		.loc 1 440 10
 557 00d8 002B     		cmp	r3, #0
 558 00da 13D0     		beq	.L31
 441:Drivers/STM32H7xx_HAL_Driver/Src/stm32h7xx_hal_rcc.c ****       {
 442:Drivers/STM32H7xx_HAL_Driver/Src/stm32h7xx_hal_rcc.c ****         /* Get Start Tick*/
 443:Drivers/STM32H7xx_HAL_Driver/Src/stm32h7xx_hal_rcc.c ****         tickstart = HAL_GetTick();
 559              		.loc 1 443 21
 560 00dc FFF7FEFF 		bl	HAL_GetTick
 561 00e0 7862     		str	r0, [r7, #36]
 444:Drivers/STM32H7xx_HAL_Driver/Src/stm32h7xx_hal_rcc.c **** 
 445:Drivers/STM32H7xx_HAL_Driver/Src/stm32h7xx_hal_rcc.c ****         /* Wait till HSE is ready */
 446:Drivers/STM32H7xx_HAL_Driver/Src/stm32h7xx_hal_rcc.c ****         while (__HAL_RCC_GET_FLAG(RCC_FLAG_HSERDY) == 0U)
 562              		.loc 1 446 15
 563 00e2 08E0     		b	.L32
 564              	.L33:
 447:Drivers/STM32H7xx_HAL_Driver/Src/stm32h7xx_hal_rcc.c ****         {
 448:Drivers/STM32H7xx_HAL_Driver/Src/stm32h7xx_hal_rcc.c ****           if ((uint32_t)(HAL_GetTick() - tickstart) > HSE_TIMEOUT_VALUE)
 565              		.loc 1 448 26
 566 00e4 FFF7FEFF 		bl	HAL_GetTick
 567 00e8 0246     		mov	r2, r0
 568              		.loc 1 448 40 discriminator 1
 569 00ea 7B6A     		ldr	r3, [r7, #36]
ARM GAS  C:\Users\fffff\AppData\Local\Temp\ccLkBlD6.s 			page 19


 570 00ec D31A     		subs	r3, r2, r3
 571              		.loc 1 448 14 discriminator 1
 572 00ee 642B     		cmp	r3, #100
 573 00f0 01D9     		bls	.L32
 449:Drivers/STM32H7xx_HAL_Driver/Src/stm32h7xx_hal_rcc.c ****           {
 450:Drivers/STM32H7xx_HAL_Driver/Src/stm32h7xx_hal_rcc.c ****             return HAL_TIMEOUT;
 574              		.loc 1 450 20
 575 00f2 0323     		movs	r3, #3
 576 00f4 56E3     		b	.L22
 577              	.L32:
 446:Drivers/STM32H7xx_HAL_Driver/Src/stm32h7xx_hal_rcc.c ****         {
 578              		.loc 1 446 16
 579 00f6 534B     		ldr	r3, .L93
 580 00f8 1B68     		ldr	r3, [r3]
 581 00fa 03F40033 		and	r3, r3, #131072
 446:Drivers/STM32H7xx_HAL_Driver/Src/stm32h7xx_hal_rcc.c ****         {
 582              		.loc 1 446 52
 583 00fe 002B     		cmp	r3, #0
 584 0100 F0D0     		beq	.L33
 585 0102 14E0     		b	.L23
 586              	.L31:
 451:Drivers/STM32H7xx_HAL_Driver/Src/stm32h7xx_hal_rcc.c ****           }
 452:Drivers/STM32H7xx_HAL_Driver/Src/stm32h7xx_hal_rcc.c ****         }
 453:Drivers/STM32H7xx_HAL_Driver/Src/stm32h7xx_hal_rcc.c ****       }
 454:Drivers/STM32H7xx_HAL_Driver/Src/stm32h7xx_hal_rcc.c ****       else
 455:Drivers/STM32H7xx_HAL_Driver/Src/stm32h7xx_hal_rcc.c ****       {
 456:Drivers/STM32H7xx_HAL_Driver/Src/stm32h7xx_hal_rcc.c ****         /* Get Start Tick*/
 457:Drivers/STM32H7xx_HAL_Driver/Src/stm32h7xx_hal_rcc.c ****         tickstart = HAL_GetTick();
 587              		.loc 1 457 21
 588 0104 FFF7FEFF 		bl	HAL_GetTick
 589 0108 7862     		str	r0, [r7, #36]
 458:Drivers/STM32H7xx_HAL_Driver/Src/stm32h7xx_hal_rcc.c **** 
 459:Drivers/STM32H7xx_HAL_Driver/Src/stm32h7xx_hal_rcc.c ****         /* Wait till HSE is disabled */
 460:Drivers/STM32H7xx_HAL_Driver/Src/stm32h7xx_hal_rcc.c ****         while (__HAL_RCC_GET_FLAG(RCC_FLAG_HSERDY) != 0U)
 590              		.loc 1 460 15
 591 010a 08E0     		b	.L34
 592              	.L35:
 461:Drivers/STM32H7xx_HAL_Driver/Src/stm32h7xx_hal_rcc.c ****         {
 462:Drivers/STM32H7xx_HAL_Driver/Src/stm32h7xx_hal_rcc.c ****           if ((uint32_t)(HAL_GetTick() - tickstart) > HSE_TIMEOUT_VALUE)
 593              		.loc 1 462 26
 594 010c FFF7FEFF 		bl	HAL_GetTick
 595 0110 0246     		mov	r2, r0
 596              		.loc 1 462 40 discriminator 1
 597 0112 7B6A     		ldr	r3, [r7, #36]
 598 0114 D31A     		subs	r3, r2, r3
 599              		.loc 1 462 14 discriminator 1
 600 0116 642B     		cmp	r3, #100
 601 0118 01D9     		bls	.L34
 463:Drivers/STM32H7xx_HAL_Driver/Src/stm32h7xx_hal_rcc.c ****           {
 464:Drivers/STM32H7xx_HAL_Driver/Src/stm32h7xx_hal_rcc.c ****             return HAL_TIMEOUT;
 602              		.loc 1 464 20
 603 011a 0323     		movs	r3, #3
 604 011c 42E3     		b	.L22
 605              	.L34:
 460:Drivers/STM32H7xx_HAL_Driver/Src/stm32h7xx_hal_rcc.c ****         {
 606              		.loc 1 460 16
 607 011e 494B     		ldr	r3, .L93
ARM GAS  C:\Users\fffff\AppData\Local\Temp\ccLkBlD6.s 			page 20


 608 0120 1B68     		ldr	r3, [r3]
 609 0122 03F40033 		and	r3, r3, #131072
 460:Drivers/STM32H7xx_HAL_Driver/Src/stm32h7xx_hal_rcc.c ****         {
 610              		.loc 1 460 52
 611 0126 002B     		cmp	r3, #0
 612 0128 F0D1     		bne	.L35
 613 012a 00E0     		b	.L23
 614              	.L92:
 429:Drivers/STM32H7xx_HAL_Driver/Src/stm32h7xx_hal_rcc.c ****       {
 615              		.loc 1 429 10
 616 012c 00BF     		nop
 617              	.L23:
 618              	.LBE2:
 465:Drivers/STM32H7xx_HAL_Driver/Src/stm32h7xx_hal_rcc.c ****           }
 466:Drivers/STM32H7xx_HAL_Driver/Src/stm32h7xx_hal_rcc.c ****         }
 467:Drivers/STM32H7xx_HAL_Driver/Src/stm32h7xx_hal_rcc.c ****       }
 468:Drivers/STM32H7xx_HAL_Driver/Src/stm32h7xx_hal_rcc.c ****     }
 469:Drivers/STM32H7xx_HAL_Driver/Src/stm32h7xx_hal_rcc.c ****   }
 470:Drivers/STM32H7xx_HAL_Driver/Src/stm32h7xx_hal_rcc.c ****   /*----------------------------- HSI Configuration --------------------------*/
 471:Drivers/STM32H7xx_HAL_Driver/Src/stm32h7xx_hal_rcc.c ****   if (((RCC_OscInitStruct->OscillatorType) & RCC_OSCILLATORTYPE_HSI) == RCC_OSCILLATORTYPE_HSI)
 619              		.loc 1 471 26
 620 012e 7B68     		ldr	r3, [r7, #4]
 621 0130 1B68     		ldr	r3, [r3]
 622              		.loc 1 471 44
 623 0132 03F00203 		and	r3, r3, #2
 624              		.loc 1 471 6
 625 0136 002B     		cmp	r3, #0
 626 0138 00F08C80 		beq	.L36
 627              	.LBB3:
 472:Drivers/STM32H7xx_HAL_Driver/Src/stm32h7xx_hal_rcc.c ****   {
 473:Drivers/STM32H7xx_HAL_Driver/Src/stm32h7xx_hal_rcc.c ****     /* Check the parameters */
 474:Drivers/STM32H7xx_HAL_Driver/Src/stm32h7xx_hal_rcc.c ****     assert_param(IS_RCC_HSI(RCC_OscInitStruct->HSIState));
 475:Drivers/STM32H7xx_HAL_Driver/Src/stm32h7xx_hal_rcc.c ****     assert_param(IS_RCC_HSICALIBRATION_VALUE(RCC_OscInitStruct->HSICalibrationValue));
 476:Drivers/STM32H7xx_HAL_Driver/Src/stm32h7xx_hal_rcc.c **** 
 477:Drivers/STM32H7xx_HAL_Driver/Src/stm32h7xx_hal_rcc.c ****     /* When the HSI is used as system clock it will not be disabled */
 478:Drivers/STM32H7xx_HAL_Driver/Src/stm32h7xx_hal_rcc.c ****     const uint32_t temp_sysclksrc = __HAL_RCC_GET_SYSCLK_SOURCE();
 628              		.loc 1 478 37
 629 013c 414B     		ldr	r3, .L93
 630 013e 1B69     		ldr	r3, [r3, #16]
 631              		.loc 1 478 20
 632 0140 03F03803 		and	r3, r3, #56
 633 0144 3B62     		str	r3, [r7, #32]
 479:Drivers/STM32H7xx_HAL_Driver/Src/stm32h7xx_hal_rcc.c ****     const uint32_t temp_pllckselr = RCC->PLLCKSELR;
 634              		.loc 1 479 40
 635 0146 3F4B     		ldr	r3, .L93
 636              		.loc 1 479 20
 637 0148 9B6A     		ldr	r3, [r3, #40]
 638 014a FB61     		str	r3, [r7, #28]
 480:Drivers/STM32H7xx_HAL_Driver/Src/stm32h7xx_hal_rcc.c ****     if ((temp_sysclksrc == RCC_CFGR_SWS_HSI) || ((temp_sysclksrc == RCC_CFGR_SWS_PLL1) && ((temp_pl
 639              		.loc 1 480 8
 640 014c 3B6A     		ldr	r3, [r7, #32]
 641 014e 002B     		cmp	r3, #0
 642 0150 07D0     		beq	.L37
 643              		.loc 1 480 46 discriminator 1
 644 0152 3B6A     		ldr	r3, [r7, #32]
 645 0154 182B     		cmp	r3, #24
 646 0156 37D1     		bne	.L38
ARM GAS  C:\Users\fffff\AppData\Local\Temp\ccLkBlD6.s 			page 21


 647              		.loc 1 480 108 discriminator 2
 648 0158 FB69     		ldr	r3, [r7, #28]
 649 015a 03F00303 		and	r3, r3, #3
 650              		.loc 1 480 88 discriminator 2
 651 015e 002B     		cmp	r3, #0
 652 0160 32D1     		bne	.L38
 653              	.L37:
 481:Drivers/STM32H7xx_HAL_Driver/Src/stm32h7xx_hal_rcc.c ****     {
 482:Drivers/STM32H7xx_HAL_Driver/Src/stm32h7xx_hal_rcc.c ****       /* When HSI is used as system clock it will not be disabled */
 483:Drivers/STM32H7xx_HAL_Driver/Src/stm32h7xx_hal_rcc.c ****       if ((__HAL_RCC_GET_FLAG(RCC_FLAG_HSIRDY) != 0U) && (RCC_OscInitStruct->HSIState == RCC_HSI_OF
 654              		.loc 1 483 12
 655 0162 384B     		ldr	r3, .L93
 656 0164 1B68     		ldr	r3, [r3]
 657 0166 03F00403 		and	r3, r3, #4
 658              		.loc 1 483 10
 659 016a 002B     		cmp	r3, #0
 660 016c 05D0     		beq	.L39
 661              		.loc 1 483 76 discriminator 1
 662 016e 7B68     		ldr	r3, [r7, #4]
 663 0170 DB68     		ldr	r3, [r3, #12]
 664              		.loc 1 483 55 discriminator 1
 665 0172 002B     		cmp	r3, #0
 666 0174 01D1     		bne	.L39
 484:Drivers/STM32H7xx_HAL_Driver/Src/stm32h7xx_hal_rcc.c ****       {
 485:Drivers/STM32H7xx_HAL_Driver/Src/stm32h7xx_hal_rcc.c ****         return HAL_ERROR;
 667              		.loc 1 485 16
 668 0176 0123     		movs	r3, #1
 669 0178 14E3     		b	.L22
 670              	.L39:
 486:Drivers/STM32H7xx_HAL_Driver/Src/stm32h7xx_hal_rcc.c ****       }
 487:Drivers/STM32H7xx_HAL_Driver/Src/stm32h7xx_hal_rcc.c ****       /* Otherwise, only HSI division and calibration are allowed */
 488:Drivers/STM32H7xx_HAL_Driver/Src/stm32h7xx_hal_rcc.c ****       else
 489:Drivers/STM32H7xx_HAL_Driver/Src/stm32h7xx_hal_rcc.c ****       {
 490:Drivers/STM32H7xx_HAL_Driver/Src/stm32h7xx_hal_rcc.c ****         /* Enable the Internal High Speed oscillator (HSI, HSIDIV2, HSIDIV4, or HSIDIV8) */
 491:Drivers/STM32H7xx_HAL_Driver/Src/stm32h7xx_hal_rcc.c ****         __HAL_RCC_HSI_CONFIG(RCC_OscInitStruct->HSIState);
 671              		.loc 1 491 9
 672 017a 324B     		ldr	r3, .L93
 673 017c 1B68     		ldr	r3, [r3]
 674 017e 23F01902 		bic	r2, r3, #25
 675 0182 7B68     		ldr	r3, [r7, #4]
 676 0184 DB68     		ldr	r3, [r3, #12]
 677 0186 2F49     		ldr	r1, .L93
 678 0188 1343     		orrs	r3, r3, r2
 679 018a 0B60     		str	r3, [r1]
 492:Drivers/STM32H7xx_HAL_Driver/Src/stm32h7xx_hal_rcc.c **** 
 493:Drivers/STM32H7xx_HAL_Driver/Src/stm32h7xx_hal_rcc.c ****         /* Get Start Tick*/
 494:Drivers/STM32H7xx_HAL_Driver/Src/stm32h7xx_hal_rcc.c ****         tickstart = HAL_GetTick();
 680              		.loc 1 494 21
 681 018c FFF7FEFF 		bl	HAL_GetTick
 682 0190 7862     		str	r0, [r7, #36]
 495:Drivers/STM32H7xx_HAL_Driver/Src/stm32h7xx_hal_rcc.c **** 
 496:Drivers/STM32H7xx_HAL_Driver/Src/stm32h7xx_hal_rcc.c ****         /* Wait till HSI is ready */
 497:Drivers/STM32H7xx_HAL_Driver/Src/stm32h7xx_hal_rcc.c ****         while (__HAL_RCC_GET_FLAG(RCC_FLAG_HSIRDY) == 0U)
 683              		.loc 1 497 15
 684 0192 08E0     		b	.L40
 685              	.L41:
 498:Drivers/STM32H7xx_HAL_Driver/Src/stm32h7xx_hal_rcc.c ****         {
ARM GAS  C:\Users\fffff\AppData\Local\Temp\ccLkBlD6.s 			page 22


 499:Drivers/STM32H7xx_HAL_Driver/Src/stm32h7xx_hal_rcc.c ****           if ((uint32_t)(HAL_GetTick() - tickstart) > HSI_TIMEOUT_VALUE)
 686              		.loc 1 499 26
 687 0194 FFF7FEFF 		bl	HAL_GetTick
 688 0198 0246     		mov	r2, r0
 689              		.loc 1 499 40 discriminator 1
 690 019a 7B6A     		ldr	r3, [r7, #36]
 691 019c D31A     		subs	r3, r2, r3
 692              		.loc 1 499 14 discriminator 1
 693 019e 022B     		cmp	r3, #2
 694 01a0 01D9     		bls	.L40
 500:Drivers/STM32H7xx_HAL_Driver/Src/stm32h7xx_hal_rcc.c ****           {
 501:Drivers/STM32H7xx_HAL_Driver/Src/stm32h7xx_hal_rcc.c ****             return HAL_TIMEOUT;
 695              		.loc 1 501 20
 696 01a2 0323     		movs	r3, #3
 697 01a4 FEE2     		b	.L22
 698              	.L40:
 497:Drivers/STM32H7xx_HAL_Driver/Src/stm32h7xx_hal_rcc.c ****         {
 699              		.loc 1 497 16
 700 01a6 274B     		ldr	r3, .L93
 701 01a8 1B68     		ldr	r3, [r3]
 702 01aa 03F00403 		and	r3, r3, #4
 497:Drivers/STM32H7xx_HAL_Driver/Src/stm32h7xx_hal_rcc.c ****         {
 703              		.loc 1 497 52
 704 01ae 002B     		cmp	r3, #0
 705 01b0 F0D0     		beq	.L41
 502:Drivers/STM32H7xx_HAL_Driver/Src/stm32h7xx_hal_rcc.c ****           }
 503:Drivers/STM32H7xx_HAL_Driver/Src/stm32h7xx_hal_rcc.c ****         }
 504:Drivers/STM32H7xx_HAL_Driver/Src/stm32h7xx_hal_rcc.c ****         /* Adjusts the Internal High Speed oscillator (HSI) calibration value.*/
 505:Drivers/STM32H7xx_HAL_Driver/Src/stm32h7xx_hal_rcc.c ****         __HAL_RCC_HSI_CALIBRATIONVALUE_ADJUST(RCC_OscInitStruct->HSICalibrationValue);
 706              		.loc 1 505 9
 707 01b2 244B     		ldr	r3, .L93
 708 01b4 5B68     		ldr	r3, [r3, #4]
 709 01b6 23F0FE42 		bic	r2, r3, #2130706432
 710 01ba 7B68     		ldr	r3, [r7, #4]
 711 01bc 1B69     		ldr	r3, [r3, #16]
 712 01be 1B06     		lsls	r3, r3, #24
 713 01c0 2049     		ldr	r1, .L93
 714 01c2 1343     		orrs	r3, r3, r2
 715 01c4 4B60     		str	r3, [r1, #4]
 483:Drivers/STM32H7xx_HAL_Driver/Src/stm32h7xx_hal_rcc.c ****       {
 716              		.loc 1 483 10
 717 01c6 45E0     		b	.L36
 718              	.L38:
 506:Drivers/STM32H7xx_HAL_Driver/Src/stm32h7xx_hal_rcc.c ****       }
 507:Drivers/STM32H7xx_HAL_Driver/Src/stm32h7xx_hal_rcc.c ****     }
 508:Drivers/STM32H7xx_HAL_Driver/Src/stm32h7xx_hal_rcc.c **** 
 509:Drivers/STM32H7xx_HAL_Driver/Src/stm32h7xx_hal_rcc.c ****     else
 510:Drivers/STM32H7xx_HAL_Driver/Src/stm32h7xx_hal_rcc.c ****     {
 511:Drivers/STM32H7xx_HAL_Driver/Src/stm32h7xx_hal_rcc.c ****       /* Check the HSI State */
 512:Drivers/STM32H7xx_HAL_Driver/Src/stm32h7xx_hal_rcc.c ****       if ((RCC_OscInitStruct->HSIState) != RCC_HSI_OFF)
 719              		.loc 1 512 29
 720 01c8 7B68     		ldr	r3, [r7, #4]
 721 01ca DB68     		ldr	r3, [r3, #12]
 722              		.loc 1 512 10
 723 01cc 002B     		cmp	r3, #0
 724 01ce 26D0     		beq	.L42
 513:Drivers/STM32H7xx_HAL_Driver/Src/stm32h7xx_hal_rcc.c ****       {
ARM GAS  C:\Users\fffff\AppData\Local\Temp\ccLkBlD6.s 			page 23


 514:Drivers/STM32H7xx_HAL_Driver/Src/stm32h7xx_hal_rcc.c ****         /* Enable the Internal High Speed oscillator (HSI, HSIDIV2,HSIDIV4, or HSIDIV8) */
 515:Drivers/STM32H7xx_HAL_Driver/Src/stm32h7xx_hal_rcc.c ****         __HAL_RCC_HSI_CONFIG(RCC_OscInitStruct->HSIState);
 725              		.loc 1 515 9
 726 01d0 1C4B     		ldr	r3, .L93
 727 01d2 1B68     		ldr	r3, [r3]
 728 01d4 23F01902 		bic	r2, r3, #25
 729 01d8 7B68     		ldr	r3, [r7, #4]
 730 01da DB68     		ldr	r3, [r3, #12]
 731 01dc 1949     		ldr	r1, .L93
 732 01de 1343     		orrs	r3, r3, r2
 733 01e0 0B60     		str	r3, [r1]
 516:Drivers/STM32H7xx_HAL_Driver/Src/stm32h7xx_hal_rcc.c **** 
 517:Drivers/STM32H7xx_HAL_Driver/Src/stm32h7xx_hal_rcc.c ****         /* Get Start Tick*/
 518:Drivers/STM32H7xx_HAL_Driver/Src/stm32h7xx_hal_rcc.c ****         tickstart = HAL_GetTick();
 734              		.loc 1 518 21
 735 01e2 FFF7FEFF 		bl	HAL_GetTick
 736 01e6 7862     		str	r0, [r7, #36]
 519:Drivers/STM32H7xx_HAL_Driver/Src/stm32h7xx_hal_rcc.c **** 
 520:Drivers/STM32H7xx_HAL_Driver/Src/stm32h7xx_hal_rcc.c ****         /* Wait till HSI is ready */
 521:Drivers/STM32H7xx_HAL_Driver/Src/stm32h7xx_hal_rcc.c ****         while (__HAL_RCC_GET_FLAG(RCC_FLAG_HSIRDY) == 0U)
 737              		.loc 1 521 15
 738 01e8 08E0     		b	.L43
 739              	.L44:
 522:Drivers/STM32H7xx_HAL_Driver/Src/stm32h7xx_hal_rcc.c ****         {
 523:Drivers/STM32H7xx_HAL_Driver/Src/stm32h7xx_hal_rcc.c ****           if ((HAL_GetTick() - tickstart) > HSI_TIMEOUT_VALUE)
 740              		.loc 1 523 16
 741 01ea FFF7FEFF 		bl	HAL_GetTick
 742 01ee 0246     		mov	r2, r0
 743              		.loc 1 523 30 discriminator 1
 744 01f0 7B6A     		ldr	r3, [r7, #36]
 745 01f2 D31A     		subs	r3, r2, r3
 746              		.loc 1 523 14 discriminator 1
 747 01f4 022B     		cmp	r3, #2
 748 01f6 01D9     		bls	.L43
 524:Drivers/STM32H7xx_HAL_Driver/Src/stm32h7xx_hal_rcc.c ****           {
 525:Drivers/STM32H7xx_HAL_Driver/Src/stm32h7xx_hal_rcc.c ****             return HAL_TIMEOUT;
 749              		.loc 1 525 20
 750 01f8 0323     		movs	r3, #3
 751 01fa D3E2     		b	.L22
 752              	.L43:
 521:Drivers/STM32H7xx_HAL_Driver/Src/stm32h7xx_hal_rcc.c ****         {
 753              		.loc 1 521 16
 754 01fc 114B     		ldr	r3, .L93
 755 01fe 1B68     		ldr	r3, [r3]
 756 0200 03F00403 		and	r3, r3, #4
 521:Drivers/STM32H7xx_HAL_Driver/Src/stm32h7xx_hal_rcc.c ****         {
 757              		.loc 1 521 52
 758 0204 002B     		cmp	r3, #0
 759 0206 F0D0     		beq	.L44
 526:Drivers/STM32H7xx_HAL_Driver/Src/stm32h7xx_hal_rcc.c ****           }
 527:Drivers/STM32H7xx_HAL_Driver/Src/stm32h7xx_hal_rcc.c ****         }
 528:Drivers/STM32H7xx_HAL_Driver/Src/stm32h7xx_hal_rcc.c **** 
 529:Drivers/STM32H7xx_HAL_Driver/Src/stm32h7xx_hal_rcc.c ****         /* Adjusts the Internal High Speed oscillator (HSI) calibration value.*/
 530:Drivers/STM32H7xx_HAL_Driver/Src/stm32h7xx_hal_rcc.c ****         __HAL_RCC_HSI_CALIBRATIONVALUE_ADJUST(RCC_OscInitStruct->HSICalibrationValue);
 760              		.loc 1 530 9
 761 0208 0E4B     		ldr	r3, .L93
 762 020a 5B68     		ldr	r3, [r3, #4]
ARM GAS  C:\Users\fffff\AppData\Local\Temp\ccLkBlD6.s 			page 24


 763 020c 23F0FE42 		bic	r2, r3, #2130706432
 764 0210 7B68     		ldr	r3, [r7, #4]
 765 0212 1B69     		ldr	r3, [r3, #16]
 766 0214 1B06     		lsls	r3, r3, #24
 767 0216 0B49     		ldr	r1, .L93
 768 0218 1343     		orrs	r3, r3, r2
 769 021a 4B60     		str	r3, [r1, #4]
 770 021c 1AE0     		b	.L36
 771              	.L42:
 531:Drivers/STM32H7xx_HAL_Driver/Src/stm32h7xx_hal_rcc.c ****       }
 532:Drivers/STM32H7xx_HAL_Driver/Src/stm32h7xx_hal_rcc.c ****       else
 533:Drivers/STM32H7xx_HAL_Driver/Src/stm32h7xx_hal_rcc.c ****       {
 534:Drivers/STM32H7xx_HAL_Driver/Src/stm32h7xx_hal_rcc.c ****         /* Disable the Internal High Speed oscillator (HSI). */
 535:Drivers/STM32H7xx_HAL_Driver/Src/stm32h7xx_hal_rcc.c ****         __HAL_RCC_HSI_DISABLE();
 772              		.loc 1 535 9
 773 021e 094B     		ldr	r3, .L93
 774 0220 1B68     		ldr	r3, [r3]
 775 0222 084A     		ldr	r2, .L93
 776 0224 23F00103 		bic	r3, r3, #1
 777 0228 1360     		str	r3, [r2]
 536:Drivers/STM32H7xx_HAL_Driver/Src/stm32h7xx_hal_rcc.c **** 
 537:Drivers/STM32H7xx_HAL_Driver/Src/stm32h7xx_hal_rcc.c ****         /* Get Start Tick*/
 538:Drivers/STM32H7xx_HAL_Driver/Src/stm32h7xx_hal_rcc.c ****         tickstart = HAL_GetTick();
 778              		.loc 1 538 21
 779 022a FFF7FEFF 		bl	HAL_GetTick
 780 022e 7862     		str	r0, [r7, #36]
 539:Drivers/STM32H7xx_HAL_Driver/Src/stm32h7xx_hal_rcc.c **** 
 540:Drivers/STM32H7xx_HAL_Driver/Src/stm32h7xx_hal_rcc.c ****         /* Wait till HSI is disabled */
 541:Drivers/STM32H7xx_HAL_Driver/Src/stm32h7xx_hal_rcc.c ****         while (__HAL_RCC_GET_FLAG(RCC_FLAG_HSIRDY) != 0U)
 781              		.loc 1 541 15
 782 0230 0AE0     		b	.L45
 783              	.L46:
 542:Drivers/STM32H7xx_HAL_Driver/Src/stm32h7xx_hal_rcc.c ****         {
 543:Drivers/STM32H7xx_HAL_Driver/Src/stm32h7xx_hal_rcc.c ****           if ((HAL_GetTick() - tickstart) > HSI_TIMEOUT_VALUE)
 784              		.loc 1 543 16
 785 0232 FFF7FEFF 		bl	HAL_GetTick
 786 0236 0246     		mov	r2, r0
 787              		.loc 1 543 30 discriminator 1
 788 0238 7B6A     		ldr	r3, [r7, #36]
 789 023a D31A     		subs	r3, r2, r3
 790              		.loc 1 543 14 discriminator 1
 791 023c 022B     		cmp	r3, #2
 792 023e 03D9     		bls	.L45
 544:Drivers/STM32H7xx_HAL_Driver/Src/stm32h7xx_hal_rcc.c ****           {
 545:Drivers/STM32H7xx_HAL_Driver/Src/stm32h7xx_hal_rcc.c ****             return HAL_TIMEOUT;
 793              		.loc 1 545 20
 794 0240 0323     		movs	r3, #3
 795 0242 AFE2     		b	.L22
 796              	.L94:
 797              		.align	2
 798              	.L93:
 799 0244 00440258 		.word	1476543488
 800              	.L45:
 541:Drivers/STM32H7xx_HAL_Driver/Src/stm32h7xx_hal_rcc.c ****         {
 801              		.loc 1 541 16
 802 0248 964B     		ldr	r3, .L95
 803 024a 1B68     		ldr	r3, [r3]
ARM GAS  C:\Users\fffff\AppData\Local\Temp\ccLkBlD6.s 			page 25


 804 024c 03F00403 		and	r3, r3, #4
 541:Drivers/STM32H7xx_HAL_Driver/Src/stm32h7xx_hal_rcc.c ****         {
 805              		.loc 1 541 52
 806 0250 002B     		cmp	r3, #0
 807 0252 EED1     		bne	.L46
 808              	.L36:
 809              	.LBE3:
 546:Drivers/STM32H7xx_HAL_Driver/Src/stm32h7xx_hal_rcc.c ****           }
 547:Drivers/STM32H7xx_HAL_Driver/Src/stm32h7xx_hal_rcc.c ****         }
 548:Drivers/STM32H7xx_HAL_Driver/Src/stm32h7xx_hal_rcc.c ****       }
 549:Drivers/STM32H7xx_HAL_Driver/Src/stm32h7xx_hal_rcc.c ****     }
 550:Drivers/STM32H7xx_HAL_Driver/Src/stm32h7xx_hal_rcc.c ****   }
 551:Drivers/STM32H7xx_HAL_Driver/Src/stm32h7xx_hal_rcc.c ****   /*----------------------------- CSI Configuration --------------------------*/
 552:Drivers/STM32H7xx_HAL_Driver/Src/stm32h7xx_hal_rcc.c ****   if (((RCC_OscInitStruct->OscillatorType) & RCC_OSCILLATORTYPE_CSI) == RCC_OSCILLATORTYPE_CSI)
 810              		.loc 1 552 26
 811 0254 7B68     		ldr	r3, [r7, #4]
 812 0256 1B68     		ldr	r3, [r3]
 813              		.loc 1 552 44
 814 0258 03F01003 		and	r3, r3, #16
 815              		.loc 1 552 6
 816 025c 002B     		cmp	r3, #0
 817 025e 6AD0     		beq	.L47
 818              	.LBB4:
 553:Drivers/STM32H7xx_HAL_Driver/Src/stm32h7xx_hal_rcc.c ****   {
 554:Drivers/STM32H7xx_HAL_Driver/Src/stm32h7xx_hal_rcc.c ****     /* Check the parameters */
 555:Drivers/STM32H7xx_HAL_Driver/Src/stm32h7xx_hal_rcc.c ****     assert_param(IS_RCC_CSI(RCC_OscInitStruct->CSIState));
 556:Drivers/STM32H7xx_HAL_Driver/Src/stm32h7xx_hal_rcc.c ****     assert_param(IS_RCC_CSICALIBRATION_VALUE(RCC_OscInitStruct->CSICalibrationValue));
 557:Drivers/STM32H7xx_HAL_Driver/Src/stm32h7xx_hal_rcc.c **** 
 558:Drivers/STM32H7xx_HAL_Driver/Src/stm32h7xx_hal_rcc.c ****     /* When the CSI is used as system clock it will not disabled */
 559:Drivers/STM32H7xx_HAL_Driver/Src/stm32h7xx_hal_rcc.c ****     const uint32_t temp_sysclksrc = __HAL_RCC_GET_SYSCLK_SOURCE();
 819              		.loc 1 559 37
 820 0260 904B     		ldr	r3, .L95
 821 0262 1B69     		ldr	r3, [r3, #16]
 822              		.loc 1 559 20
 823 0264 03F03803 		and	r3, r3, #56
 824 0268 BB61     		str	r3, [r7, #24]
 560:Drivers/STM32H7xx_HAL_Driver/Src/stm32h7xx_hal_rcc.c ****     const uint32_t temp_pllckselr = RCC->PLLCKSELR;
 825              		.loc 1 560 40
 826 026a 8E4B     		ldr	r3, .L95
 827              		.loc 1 560 20
 828 026c 9B6A     		ldr	r3, [r3, #40]
 829 026e 7B61     		str	r3, [r7, #20]
 561:Drivers/STM32H7xx_HAL_Driver/Src/stm32h7xx_hal_rcc.c ****     if ((temp_sysclksrc == RCC_CFGR_SWS_CSI) || ((temp_sysclksrc == RCC_CFGR_SWS_PLL1) && ((temp_pl
 830              		.loc 1 561 8
 831 0270 BB69     		ldr	r3, [r7, #24]
 832 0272 082B     		cmp	r3, #8
 833 0274 07D0     		beq	.L48
 834              		.loc 1 561 46 discriminator 1
 835 0276 BB69     		ldr	r3, [r7, #24]
 836 0278 182B     		cmp	r3, #24
 837 027a 1BD1     		bne	.L49
 838              		.loc 1 561 108 discriminator 2
 839 027c 7B69     		ldr	r3, [r7, #20]
 840 027e 03F00303 		and	r3, r3, #3
 841              		.loc 1 561 88 discriminator 2
 842 0282 012B     		cmp	r3, #1
 843 0284 16D1     		bne	.L49
ARM GAS  C:\Users\fffff\AppData\Local\Temp\ccLkBlD6.s 			page 26


 844              	.L48:
 562:Drivers/STM32H7xx_HAL_Driver/Src/stm32h7xx_hal_rcc.c ****     {
 563:Drivers/STM32H7xx_HAL_Driver/Src/stm32h7xx_hal_rcc.c ****       /* When CSI is used as system clock it will not disabled */
 564:Drivers/STM32H7xx_HAL_Driver/Src/stm32h7xx_hal_rcc.c ****       if ((__HAL_RCC_GET_FLAG(RCC_FLAG_CSIRDY) != 0U) && (RCC_OscInitStruct->CSIState != RCC_CSI_ON
 845              		.loc 1 564 12
 846 0286 874B     		ldr	r3, .L95
 847 0288 1B68     		ldr	r3, [r3]
 848 028a 03F48073 		and	r3, r3, #256
 849              		.loc 1 564 10
 850 028e 002B     		cmp	r3, #0
 851 0290 05D0     		beq	.L50
 852              		.loc 1 564 76 discriminator 1
 853 0292 7B68     		ldr	r3, [r7, #4]
 854 0294 DB69     		ldr	r3, [r3, #28]
 855              		.loc 1 564 55 discriminator 1
 856 0296 802B     		cmp	r3, #128
 857 0298 01D0     		beq	.L50
 565:Drivers/STM32H7xx_HAL_Driver/Src/stm32h7xx_hal_rcc.c ****       {
 566:Drivers/STM32H7xx_HAL_Driver/Src/stm32h7xx_hal_rcc.c ****         return HAL_ERROR;
 858              		.loc 1 566 16
 859 029a 0123     		movs	r3, #1
 860 029c 82E2     		b	.L22
 861              	.L50:
 567:Drivers/STM32H7xx_HAL_Driver/Src/stm32h7xx_hal_rcc.c ****       }
 568:Drivers/STM32H7xx_HAL_Driver/Src/stm32h7xx_hal_rcc.c ****       /* Otherwise, just the calibration is allowed */
 569:Drivers/STM32H7xx_HAL_Driver/Src/stm32h7xx_hal_rcc.c ****       else
 570:Drivers/STM32H7xx_HAL_Driver/Src/stm32h7xx_hal_rcc.c ****       {
 571:Drivers/STM32H7xx_HAL_Driver/Src/stm32h7xx_hal_rcc.c ****         /* Adjusts the Internal High Speed oscillator (CSI) calibration value.*/
 572:Drivers/STM32H7xx_HAL_Driver/Src/stm32h7xx_hal_rcc.c ****         __HAL_RCC_CSI_CALIBRATIONVALUE_ADJUST(RCC_OscInitStruct->CSICalibrationValue);
 862              		.loc 1 572 9
 863 029e 814B     		ldr	r3, .L95
 864 02a0 DB68     		ldr	r3, [r3, #12]
 865 02a2 23F07C52 		bic	r2, r3, #1056964608
 866 02a6 7B68     		ldr	r3, [r7, #4]
 867 02a8 1B6A     		ldr	r3, [r3, #32]
 868 02aa 1B06     		lsls	r3, r3, #24
 869 02ac 7D49     		ldr	r1, .L95
 870 02ae 1343     		orrs	r3, r3, r2
 871 02b0 CB60     		str	r3, [r1, #12]
 564:Drivers/STM32H7xx_HAL_Driver/Src/stm32h7xx_hal_rcc.c ****       {
 872              		.loc 1 564 10
 873 02b2 40E0     		b	.L47
 874              	.L49:
 573:Drivers/STM32H7xx_HAL_Driver/Src/stm32h7xx_hal_rcc.c ****       }
 574:Drivers/STM32H7xx_HAL_Driver/Src/stm32h7xx_hal_rcc.c ****     }
 575:Drivers/STM32H7xx_HAL_Driver/Src/stm32h7xx_hal_rcc.c ****     else
 576:Drivers/STM32H7xx_HAL_Driver/Src/stm32h7xx_hal_rcc.c ****     {
 577:Drivers/STM32H7xx_HAL_Driver/Src/stm32h7xx_hal_rcc.c ****       /* Check the CSI State */
 578:Drivers/STM32H7xx_HAL_Driver/Src/stm32h7xx_hal_rcc.c ****       if ((RCC_OscInitStruct->CSIState) != RCC_CSI_OFF)
 875              		.loc 1 578 29
 876 02b4 7B68     		ldr	r3, [r7, #4]
 877 02b6 DB69     		ldr	r3, [r3, #28]
 878              		.loc 1 578 10
 879 02b8 002B     		cmp	r3, #0
 880 02ba 23D0     		beq	.L51
 579:Drivers/STM32H7xx_HAL_Driver/Src/stm32h7xx_hal_rcc.c ****       {
 580:Drivers/STM32H7xx_HAL_Driver/Src/stm32h7xx_hal_rcc.c ****         /* Enable the Internal High Speed oscillator (CSI). */
ARM GAS  C:\Users\fffff\AppData\Local\Temp\ccLkBlD6.s 			page 27


 581:Drivers/STM32H7xx_HAL_Driver/Src/stm32h7xx_hal_rcc.c ****         __HAL_RCC_CSI_ENABLE();
 881              		.loc 1 581 9
 882 02bc 794B     		ldr	r3, .L95
 883 02be 1B68     		ldr	r3, [r3]
 884 02c0 784A     		ldr	r2, .L95
 885 02c2 43F08003 		orr	r3, r3, #128
 886 02c6 1360     		str	r3, [r2]
 582:Drivers/STM32H7xx_HAL_Driver/Src/stm32h7xx_hal_rcc.c **** 
 583:Drivers/STM32H7xx_HAL_Driver/Src/stm32h7xx_hal_rcc.c ****         /* Get Start Tick*/
 584:Drivers/STM32H7xx_HAL_Driver/Src/stm32h7xx_hal_rcc.c ****         tickstart = HAL_GetTick();
 887              		.loc 1 584 21
 888 02c8 FFF7FEFF 		bl	HAL_GetTick
 889 02cc 7862     		str	r0, [r7, #36]
 585:Drivers/STM32H7xx_HAL_Driver/Src/stm32h7xx_hal_rcc.c **** 
 586:Drivers/STM32H7xx_HAL_Driver/Src/stm32h7xx_hal_rcc.c ****         /* Wait till CSI is ready */
 587:Drivers/STM32H7xx_HAL_Driver/Src/stm32h7xx_hal_rcc.c ****         while (__HAL_RCC_GET_FLAG(RCC_FLAG_CSIRDY) == 0U)
 890              		.loc 1 587 15
 891 02ce 08E0     		b	.L52
 892              	.L53:
 588:Drivers/STM32H7xx_HAL_Driver/Src/stm32h7xx_hal_rcc.c ****         {
 589:Drivers/STM32H7xx_HAL_Driver/Src/stm32h7xx_hal_rcc.c ****           if ((HAL_GetTick() - tickstart) > CSI_TIMEOUT_VALUE)
 893              		.loc 1 589 16
 894 02d0 FFF7FEFF 		bl	HAL_GetTick
 895 02d4 0246     		mov	r2, r0
 896              		.loc 1 589 30 discriminator 1
 897 02d6 7B6A     		ldr	r3, [r7, #36]
 898 02d8 D31A     		subs	r3, r2, r3
 899              		.loc 1 589 14 discriminator 1
 900 02da 022B     		cmp	r3, #2
 901 02dc 01D9     		bls	.L52
 590:Drivers/STM32H7xx_HAL_Driver/Src/stm32h7xx_hal_rcc.c ****           {
 591:Drivers/STM32H7xx_HAL_Driver/Src/stm32h7xx_hal_rcc.c ****             return HAL_TIMEOUT;
 902              		.loc 1 591 20
 903 02de 0323     		movs	r3, #3
 904 02e0 60E2     		b	.L22
 905              	.L52:
 587:Drivers/STM32H7xx_HAL_Driver/Src/stm32h7xx_hal_rcc.c ****         {
 906              		.loc 1 587 16
 907 02e2 704B     		ldr	r3, .L95
 908 02e4 1B68     		ldr	r3, [r3]
 909 02e6 03F48073 		and	r3, r3, #256
 587:Drivers/STM32H7xx_HAL_Driver/Src/stm32h7xx_hal_rcc.c ****         {
 910              		.loc 1 587 52
 911 02ea 002B     		cmp	r3, #0
 912 02ec F0D0     		beq	.L53
 592:Drivers/STM32H7xx_HAL_Driver/Src/stm32h7xx_hal_rcc.c ****           }
 593:Drivers/STM32H7xx_HAL_Driver/Src/stm32h7xx_hal_rcc.c ****         }
 594:Drivers/STM32H7xx_HAL_Driver/Src/stm32h7xx_hal_rcc.c **** 
 595:Drivers/STM32H7xx_HAL_Driver/Src/stm32h7xx_hal_rcc.c ****         /* Adjusts the Internal High Speed oscillator (CSI) calibration value.*/
 596:Drivers/STM32H7xx_HAL_Driver/Src/stm32h7xx_hal_rcc.c ****         __HAL_RCC_CSI_CALIBRATIONVALUE_ADJUST(RCC_OscInitStruct->CSICalibrationValue);
 913              		.loc 1 596 9
 914 02ee 6D4B     		ldr	r3, .L95
 915 02f0 DB68     		ldr	r3, [r3, #12]
 916 02f2 23F07C52 		bic	r2, r3, #1056964608
 917 02f6 7B68     		ldr	r3, [r7, #4]
 918 02f8 1B6A     		ldr	r3, [r3, #32]
 919 02fa 1B06     		lsls	r3, r3, #24
ARM GAS  C:\Users\fffff\AppData\Local\Temp\ccLkBlD6.s 			page 28


 920 02fc 6949     		ldr	r1, .L95
 921 02fe 1343     		orrs	r3, r3, r2
 922 0300 CB60     		str	r3, [r1, #12]
 923 0302 18E0     		b	.L47
 924              	.L51:
 597:Drivers/STM32H7xx_HAL_Driver/Src/stm32h7xx_hal_rcc.c ****       }
 598:Drivers/STM32H7xx_HAL_Driver/Src/stm32h7xx_hal_rcc.c ****       else
 599:Drivers/STM32H7xx_HAL_Driver/Src/stm32h7xx_hal_rcc.c ****       {
 600:Drivers/STM32H7xx_HAL_Driver/Src/stm32h7xx_hal_rcc.c ****         /* Disable the Internal High Speed oscillator (CSI). */
 601:Drivers/STM32H7xx_HAL_Driver/Src/stm32h7xx_hal_rcc.c ****         __HAL_RCC_CSI_DISABLE();
 925              		.loc 1 601 9
 926 0304 674B     		ldr	r3, .L95
 927 0306 1B68     		ldr	r3, [r3]
 928 0308 664A     		ldr	r2, .L95
 929 030a 23F08003 		bic	r3, r3, #128
 930 030e 1360     		str	r3, [r2]
 602:Drivers/STM32H7xx_HAL_Driver/Src/stm32h7xx_hal_rcc.c **** 
 603:Drivers/STM32H7xx_HAL_Driver/Src/stm32h7xx_hal_rcc.c ****         /* Get Start Tick*/
 604:Drivers/STM32H7xx_HAL_Driver/Src/stm32h7xx_hal_rcc.c ****         tickstart = HAL_GetTick();
 931              		.loc 1 604 21
 932 0310 FFF7FEFF 		bl	HAL_GetTick
 933 0314 7862     		str	r0, [r7, #36]
 605:Drivers/STM32H7xx_HAL_Driver/Src/stm32h7xx_hal_rcc.c **** 
 606:Drivers/STM32H7xx_HAL_Driver/Src/stm32h7xx_hal_rcc.c ****         /* Wait till CSI is disabled */
 607:Drivers/STM32H7xx_HAL_Driver/Src/stm32h7xx_hal_rcc.c ****         while (__HAL_RCC_GET_FLAG(RCC_FLAG_CSIRDY) != 0U)
 934              		.loc 1 607 15
 935 0316 08E0     		b	.L54
 936              	.L55:
 608:Drivers/STM32H7xx_HAL_Driver/Src/stm32h7xx_hal_rcc.c ****         {
 609:Drivers/STM32H7xx_HAL_Driver/Src/stm32h7xx_hal_rcc.c ****           if ((HAL_GetTick() - tickstart) > CSI_TIMEOUT_VALUE)
 937              		.loc 1 609 16
 938 0318 FFF7FEFF 		bl	HAL_GetTick
 939 031c 0246     		mov	r2, r0
 940              		.loc 1 609 30 discriminator 1
 941 031e 7B6A     		ldr	r3, [r7, #36]
 942 0320 D31A     		subs	r3, r2, r3
 943              		.loc 1 609 14 discriminator 1
 944 0322 022B     		cmp	r3, #2
 945 0324 01D9     		bls	.L54
 610:Drivers/STM32H7xx_HAL_Driver/Src/stm32h7xx_hal_rcc.c ****           {
 611:Drivers/STM32H7xx_HAL_Driver/Src/stm32h7xx_hal_rcc.c ****             return HAL_TIMEOUT;
 946              		.loc 1 611 20
 947 0326 0323     		movs	r3, #3
 948 0328 3CE2     		b	.L22
 949              	.L54:
 607:Drivers/STM32H7xx_HAL_Driver/Src/stm32h7xx_hal_rcc.c ****         {
 950              		.loc 1 607 16
 951 032a 5E4B     		ldr	r3, .L95
 952 032c 1B68     		ldr	r3, [r3]
 953 032e 03F48073 		and	r3, r3, #256
 607:Drivers/STM32H7xx_HAL_Driver/Src/stm32h7xx_hal_rcc.c ****         {
 954              		.loc 1 607 52
 955 0332 002B     		cmp	r3, #0
 956 0334 F0D1     		bne	.L55
 957              	.L47:
 958              	.LBE4:
 612:Drivers/STM32H7xx_HAL_Driver/Src/stm32h7xx_hal_rcc.c ****           }
ARM GAS  C:\Users\fffff\AppData\Local\Temp\ccLkBlD6.s 			page 29


 613:Drivers/STM32H7xx_HAL_Driver/Src/stm32h7xx_hal_rcc.c ****         }
 614:Drivers/STM32H7xx_HAL_Driver/Src/stm32h7xx_hal_rcc.c ****       }
 615:Drivers/STM32H7xx_HAL_Driver/Src/stm32h7xx_hal_rcc.c ****     }
 616:Drivers/STM32H7xx_HAL_Driver/Src/stm32h7xx_hal_rcc.c ****   }
 617:Drivers/STM32H7xx_HAL_Driver/Src/stm32h7xx_hal_rcc.c ****   /*------------------------------ LSI Configuration -------------------------*/
 618:Drivers/STM32H7xx_HAL_Driver/Src/stm32h7xx_hal_rcc.c ****   if (((RCC_OscInitStruct->OscillatorType) & RCC_OSCILLATORTYPE_LSI) == RCC_OSCILLATORTYPE_LSI)
 959              		.loc 1 618 26
 960 0336 7B68     		ldr	r3, [r7, #4]
 961 0338 1B68     		ldr	r3, [r3]
 962              		.loc 1 618 44
 963 033a 03F00803 		and	r3, r3, #8
 964              		.loc 1 618 6
 965 033e 002B     		cmp	r3, #0
 966 0340 36D0     		beq	.L56
 619:Drivers/STM32H7xx_HAL_Driver/Src/stm32h7xx_hal_rcc.c ****   {
 620:Drivers/STM32H7xx_HAL_Driver/Src/stm32h7xx_hal_rcc.c ****     /* Check the parameters */
 621:Drivers/STM32H7xx_HAL_Driver/Src/stm32h7xx_hal_rcc.c ****     assert_param(IS_RCC_LSI(RCC_OscInitStruct->LSIState));
 622:Drivers/STM32H7xx_HAL_Driver/Src/stm32h7xx_hal_rcc.c **** 
 623:Drivers/STM32H7xx_HAL_Driver/Src/stm32h7xx_hal_rcc.c ****     /* Check the LSI State */
 624:Drivers/STM32H7xx_HAL_Driver/Src/stm32h7xx_hal_rcc.c ****     if ((RCC_OscInitStruct->LSIState) != RCC_LSI_OFF)
 967              		.loc 1 624 27
 968 0342 7B68     		ldr	r3, [r7, #4]
 969 0344 5B69     		ldr	r3, [r3, #20]
 970              		.loc 1 624 8
 971 0346 002B     		cmp	r3, #0
 972 0348 19D0     		beq	.L57
 625:Drivers/STM32H7xx_HAL_Driver/Src/stm32h7xx_hal_rcc.c ****     {
 626:Drivers/STM32H7xx_HAL_Driver/Src/stm32h7xx_hal_rcc.c ****       /* Enable the Internal Low Speed oscillator (LSI). */
 627:Drivers/STM32H7xx_HAL_Driver/Src/stm32h7xx_hal_rcc.c ****       __HAL_RCC_LSI_ENABLE();
 973              		.loc 1 627 7
 974 034a 564B     		ldr	r3, .L95
 975 034c 5B6F     		ldr	r3, [r3, #116]
 976 034e 554A     		ldr	r2, .L95
 977 0350 43F00103 		orr	r3, r3, #1
 978 0354 5367     		str	r3, [r2, #116]
 628:Drivers/STM32H7xx_HAL_Driver/Src/stm32h7xx_hal_rcc.c **** 
 629:Drivers/STM32H7xx_HAL_Driver/Src/stm32h7xx_hal_rcc.c ****       /* Get Start Tick*/
 630:Drivers/STM32H7xx_HAL_Driver/Src/stm32h7xx_hal_rcc.c ****       tickstart = HAL_GetTick();
 979              		.loc 1 630 19
 980 0356 FFF7FEFF 		bl	HAL_GetTick
 981 035a 7862     		str	r0, [r7, #36]
 631:Drivers/STM32H7xx_HAL_Driver/Src/stm32h7xx_hal_rcc.c **** 
 632:Drivers/STM32H7xx_HAL_Driver/Src/stm32h7xx_hal_rcc.c ****       /* Wait till LSI is ready */
 633:Drivers/STM32H7xx_HAL_Driver/Src/stm32h7xx_hal_rcc.c ****       while (__HAL_RCC_GET_FLAG(RCC_FLAG_LSIRDY) == 0U)
 982              		.loc 1 633 13
 983 035c 08E0     		b	.L58
 984              	.L59:
 634:Drivers/STM32H7xx_HAL_Driver/Src/stm32h7xx_hal_rcc.c ****       {
 635:Drivers/STM32H7xx_HAL_Driver/Src/stm32h7xx_hal_rcc.c ****         if ((HAL_GetTick() - tickstart) > LSI_TIMEOUT_VALUE)
 985              		.loc 1 635 14
 986 035e FFF7FEFF 		bl	HAL_GetTick
 987 0362 0246     		mov	r2, r0
 988              		.loc 1 635 28 discriminator 1
 989 0364 7B6A     		ldr	r3, [r7, #36]
 990 0366 D31A     		subs	r3, r2, r3
 991              		.loc 1 635 12 discriminator 1
 992 0368 022B     		cmp	r3, #2
ARM GAS  C:\Users\fffff\AppData\Local\Temp\ccLkBlD6.s 			page 30


 993 036a 01D9     		bls	.L58
 636:Drivers/STM32H7xx_HAL_Driver/Src/stm32h7xx_hal_rcc.c ****         {
 637:Drivers/STM32H7xx_HAL_Driver/Src/stm32h7xx_hal_rcc.c ****           return HAL_TIMEOUT;
 994              		.loc 1 637 18
 995 036c 0323     		movs	r3, #3
 996 036e 19E2     		b	.L22
 997              	.L58:
 633:Drivers/STM32H7xx_HAL_Driver/Src/stm32h7xx_hal_rcc.c ****       {
 998              		.loc 1 633 14
 999 0370 4C4B     		ldr	r3, .L95
 1000 0372 5B6F     		ldr	r3, [r3, #116]
 1001 0374 03F00203 		and	r3, r3, #2
 633:Drivers/STM32H7xx_HAL_Driver/Src/stm32h7xx_hal_rcc.c ****       {
 1002              		.loc 1 633 50
 1003 0378 002B     		cmp	r3, #0
 1004 037a F0D0     		beq	.L59
 1005 037c 18E0     		b	.L56
 1006              	.L57:
 638:Drivers/STM32H7xx_HAL_Driver/Src/stm32h7xx_hal_rcc.c ****         }
 639:Drivers/STM32H7xx_HAL_Driver/Src/stm32h7xx_hal_rcc.c ****       }
 640:Drivers/STM32H7xx_HAL_Driver/Src/stm32h7xx_hal_rcc.c ****     }
 641:Drivers/STM32H7xx_HAL_Driver/Src/stm32h7xx_hal_rcc.c ****     else
 642:Drivers/STM32H7xx_HAL_Driver/Src/stm32h7xx_hal_rcc.c ****     {
 643:Drivers/STM32H7xx_HAL_Driver/Src/stm32h7xx_hal_rcc.c ****       /* Disable the Internal Low Speed oscillator (LSI). */
 644:Drivers/STM32H7xx_HAL_Driver/Src/stm32h7xx_hal_rcc.c ****       __HAL_RCC_LSI_DISABLE();
 1007              		.loc 1 644 7
 1008 037e 494B     		ldr	r3, .L95
 1009 0380 5B6F     		ldr	r3, [r3, #116]
 1010 0382 484A     		ldr	r2, .L95
 1011 0384 23F00103 		bic	r3, r3, #1
 1012 0388 5367     		str	r3, [r2, #116]
 645:Drivers/STM32H7xx_HAL_Driver/Src/stm32h7xx_hal_rcc.c **** 
 646:Drivers/STM32H7xx_HAL_Driver/Src/stm32h7xx_hal_rcc.c ****       /* Get Start Tick*/
 647:Drivers/STM32H7xx_HAL_Driver/Src/stm32h7xx_hal_rcc.c ****       tickstart = HAL_GetTick();
 1013              		.loc 1 647 19
 1014 038a FFF7FEFF 		bl	HAL_GetTick
 1015 038e 7862     		str	r0, [r7, #36]
 648:Drivers/STM32H7xx_HAL_Driver/Src/stm32h7xx_hal_rcc.c **** 
 649:Drivers/STM32H7xx_HAL_Driver/Src/stm32h7xx_hal_rcc.c ****       /* Wait till LSI is ready */
 650:Drivers/STM32H7xx_HAL_Driver/Src/stm32h7xx_hal_rcc.c ****       while (__HAL_RCC_GET_FLAG(RCC_FLAG_LSIRDY) != 0U)
 1016              		.loc 1 650 13
 1017 0390 08E0     		b	.L60
 1018              	.L61:
 651:Drivers/STM32H7xx_HAL_Driver/Src/stm32h7xx_hal_rcc.c ****       {
 652:Drivers/STM32H7xx_HAL_Driver/Src/stm32h7xx_hal_rcc.c ****         if ((HAL_GetTick() - tickstart) > LSI_TIMEOUT_VALUE)
 1019              		.loc 1 652 14
 1020 0392 FFF7FEFF 		bl	HAL_GetTick
 1021 0396 0246     		mov	r2, r0
 1022              		.loc 1 652 28 discriminator 1
 1023 0398 7B6A     		ldr	r3, [r7, #36]
 1024 039a D31A     		subs	r3, r2, r3
 1025              		.loc 1 652 12 discriminator 1
 1026 039c 022B     		cmp	r3, #2
 1027 039e 01D9     		bls	.L60
 653:Drivers/STM32H7xx_HAL_Driver/Src/stm32h7xx_hal_rcc.c ****         {
 654:Drivers/STM32H7xx_HAL_Driver/Src/stm32h7xx_hal_rcc.c ****           return HAL_TIMEOUT;
 1028              		.loc 1 654 18
ARM GAS  C:\Users\fffff\AppData\Local\Temp\ccLkBlD6.s 			page 31


 1029 03a0 0323     		movs	r3, #3
 1030 03a2 FFE1     		b	.L22
 1031              	.L60:
 650:Drivers/STM32H7xx_HAL_Driver/Src/stm32h7xx_hal_rcc.c ****       {
 1032              		.loc 1 650 14
 1033 03a4 3F4B     		ldr	r3, .L95
 1034 03a6 5B6F     		ldr	r3, [r3, #116]
 1035 03a8 03F00203 		and	r3, r3, #2
 650:Drivers/STM32H7xx_HAL_Driver/Src/stm32h7xx_hal_rcc.c ****       {
 1036              		.loc 1 650 50
 1037 03ac 002B     		cmp	r3, #0
 1038 03ae F0D1     		bne	.L61
 1039              	.L56:
 655:Drivers/STM32H7xx_HAL_Driver/Src/stm32h7xx_hal_rcc.c ****         }
 656:Drivers/STM32H7xx_HAL_Driver/Src/stm32h7xx_hal_rcc.c ****       }
 657:Drivers/STM32H7xx_HAL_Driver/Src/stm32h7xx_hal_rcc.c ****     }
 658:Drivers/STM32H7xx_HAL_Driver/Src/stm32h7xx_hal_rcc.c ****   }
 659:Drivers/STM32H7xx_HAL_Driver/Src/stm32h7xx_hal_rcc.c **** 
 660:Drivers/STM32H7xx_HAL_Driver/Src/stm32h7xx_hal_rcc.c ****   /*------------------------------ HSI48 Configuration -------------------------*/
 661:Drivers/STM32H7xx_HAL_Driver/Src/stm32h7xx_hal_rcc.c ****   if (((RCC_OscInitStruct->OscillatorType) & RCC_OSCILLATORTYPE_HSI48) == RCC_OSCILLATORTYPE_HSI48)
 1040              		.loc 1 661 26
 1041 03b0 7B68     		ldr	r3, [r7, #4]
 1042 03b2 1B68     		ldr	r3, [r3]
 1043              		.loc 1 661 44
 1044 03b4 03F02003 		and	r3, r3, #32
 1045              		.loc 1 661 6
 1046 03b8 002B     		cmp	r3, #0
 1047 03ba 36D0     		beq	.L62
 662:Drivers/STM32H7xx_HAL_Driver/Src/stm32h7xx_hal_rcc.c ****   {
 663:Drivers/STM32H7xx_HAL_Driver/Src/stm32h7xx_hal_rcc.c ****     /* Check the parameters */
 664:Drivers/STM32H7xx_HAL_Driver/Src/stm32h7xx_hal_rcc.c ****     assert_param(IS_RCC_HSI48(RCC_OscInitStruct->HSI48State));
 665:Drivers/STM32H7xx_HAL_Driver/Src/stm32h7xx_hal_rcc.c **** 
 666:Drivers/STM32H7xx_HAL_Driver/Src/stm32h7xx_hal_rcc.c ****     /* Check the HSI48 State */
 667:Drivers/STM32H7xx_HAL_Driver/Src/stm32h7xx_hal_rcc.c ****     if ((RCC_OscInitStruct->HSI48State) != RCC_HSI48_OFF)
 1048              		.loc 1 667 27
 1049 03bc 7B68     		ldr	r3, [r7, #4]
 1050 03be 9B69     		ldr	r3, [r3, #24]
 1051              		.loc 1 667 8
 1052 03c0 002B     		cmp	r3, #0
 1053 03c2 19D0     		beq	.L63
 668:Drivers/STM32H7xx_HAL_Driver/Src/stm32h7xx_hal_rcc.c ****     {
 669:Drivers/STM32H7xx_HAL_Driver/Src/stm32h7xx_hal_rcc.c ****       /* Enable the Internal Low Speed oscillator (HSI48). */
 670:Drivers/STM32H7xx_HAL_Driver/Src/stm32h7xx_hal_rcc.c ****       __HAL_RCC_HSI48_ENABLE();
 1054              		.loc 1 670 7
 1055 03c4 374B     		ldr	r3, .L95
 1056 03c6 1B68     		ldr	r3, [r3]
 1057 03c8 364A     		ldr	r2, .L95
 1058 03ca 43F48053 		orr	r3, r3, #4096
 1059 03ce 1360     		str	r3, [r2]
 671:Drivers/STM32H7xx_HAL_Driver/Src/stm32h7xx_hal_rcc.c **** 
 672:Drivers/STM32H7xx_HAL_Driver/Src/stm32h7xx_hal_rcc.c ****       /* Get time-out */
 673:Drivers/STM32H7xx_HAL_Driver/Src/stm32h7xx_hal_rcc.c ****       tickstart = HAL_GetTick();
 1060              		.loc 1 673 19
 1061 03d0 FFF7FEFF 		bl	HAL_GetTick
 1062 03d4 7862     		str	r0, [r7, #36]
 674:Drivers/STM32H7xx_HAL_Driver/Src/stm32h7xx_hal_rcc.c **** 
 675:Drivers/STM32H7xx_HAL_Driver/Src/stm32h7xx_hal_rcc.c ****       /* Wait till HSI48 is ready */
ARM GAS  C:\Users\fffff\AppData\Local\Temp\ccLkBlD6.s 			page 32


 676:Drivers/STM32H7xx_HAL_Driver/Src/stm32h7xx_hal_rcc.c ****       while (__HAL_RCC_GET_FLAG(RCC_FLAG_HSI48RDY) == 0U)
 1063              		.loc 1 676 13
 1064 03d6 08E0     		b	.L64
 1065              	.L65:
 677:Drivers/STM32H7xx_HAL_Driver/Src/stm32h7xx_hal_rcc.c ****       {
 678:Drivers/STM32H7xx_HAL_Driver/Src/stm32h7xx_hal_rcc.c ****         if ((HAL_GetTick() - tickstart) > HSI48_TIMEOUT_VALUE)
 1066              		.loc 1 678 14
 1067 03d8 FFF7FEFF 		bl	HAL_GetTick
 1068 03dc 0246     		mov	r2, r0
 1069              		.loc 1 678 28 discriminator 1
 1070 03de 7B6A     		ldr	r3, [r7, #36]
 1071 03e0 D31A     		subs	r3, r2, r3
 1072              		.loc 1 678 12 discriminator 1
 1073 03e2 022B     		cmp	r3, #2
 1074 03e4 01D9     		bls	.L64
 679:Drivers/STM32H7xx_HAL_Driver/Src/stm32h7xx_hal_rcc.c ****         {
 680:Drivers/STM32H7xx_HAL_Driver/Src/stm32h7xx_hal_rcc.c ****           return HAL_TIMEOUT;
 1075              		.loc 1 680 18
 1076 03e6 0323     		movs	r3, #3
 1077 03e8 DCE1     		b	.L22
 1078              	.L64:
 676:Drivers/STM32H7xx_HAL_Driver/Src/stm32h7xx_hal_rcc.c ****       {
 1079              		.loc 1 676 14
 1080 03ea 2E4B     		ldr	r3, .L95
 1081 03ec 1B68     		ldr	r3, [r3]
 1082 03ee 03F40053 		and	r3, r3, #8192
 676:Drivers/STM32H7xx_HAL_Driver/Src/stm32h7xx_hal_rcc.c ****       {
 1083              		.loc 1 676 52
 1084 03f2 002B     		cmp	r3, #0
 1085 03f4 F0D0     		beq	.L65
 1086 03f6 18E0     		b	.L62
 1087              	.L63:
 681:Drivers/STM32H7xx_HAL_Driver/Src/stm32h7xx_hal_rcc.c ****         }
 682:Drivers/STM32H7xx_HAL_Driver/Src/stm32h7xx_hal_rcc.c ****       }
 683:Drivers/STM32H7xx_HAL_Driver/Src/stm32h7xx_hal_rcc.c ****     }
 684:Drivers/STM32H7xx_HAL_Driver/Src/stm32h7xx_hal_rcc.c ****     else
 685:Drivers/STM32H7xx_HAL_Driver/Src/stm32h7xx_hal_rcc.c ****     {
 686:Drivers/STM32H7xx_HAL_Driver/Src/stm32h7xx_hal_rcc.c ****       /* Disable the Internal Low Speed oscillator (HSI48). */
 687:Drivers/STM32H7xx_HAL_Driver/Src/stm32h7xx_hal_rcc.c ****       __HAL_RCC_HSI48_DISABLE();
 1088              		.loc 1 687 7
 1089 03f8 2A4B     		ldr	r3, .L95
 1090 03fa 1B68     		ldr	r3, [r3]
 1091 03fc 294A     		ldr	r2, .L95
 1092 03fe 23F48053 		bic	r3, r3, #4096
 1093 0402 1360     		str	r3, [r2]
 688:Drivers/STM32H7xx_HAL_Driver/Src/stm32h7xx_hal_rcc.c **** 
 689:Drivers/STM32H7xx_HAL_Driver/Src/stm32h7xx_hal_rcc.c ****       /* Get time-out */
 690:Drivers/STM32H7xx_HAL_Driver/Src/stm32h7xx_hal_rcc.c ****       tickstart = HAL_GetTick();
 1094              		.loc 1 690 19
 1095 0404 FFF7FEFF 		bl	HAL_GetTick
 1096 0408 7862     		str	r0, [r7, #36]
 691:Drivers/STM32H7xx_HAL_Driver/Src/stm32h7xx_hal_rcc.c **** 
 692:Drivers/STM32H7xx_HAL_Driver/Src/stm32h7xx_hal_rcc.c ****       /* Wait till HSI48 is ready */
 693:Drivers/STM32H7xx_HAL_Driver/Src/stm32h7xx_hal_rcc.c ****       while (__HAL_RCC_GET_FLAG(RCC_FLAG_HSI48RDY) != 0U)
 1097              		.loc 1 693 13
 1098 040a 08E0     		b	.L66
 1099              	.L67:
ARM GAS  C:\Users\fffff\AppData\Local\Temp\ccLkBlD6.s 			page 33


 694:Drivers/STM32H7xx_HAL_Driver/Src/stm32h7xx_hal_rcc.c ****       {
 695:Drivers/STM32H7xx_HAL_Driver/Src/stm32h7xx_hal_rcc.c ****         if ((HAL_GetTick() - tickstart) > HSI48_TIMEOUT_VALUE)
 1100              		.loc 1 695 14
 1101 040c FFF7FEFF 		bl	HAL_GetTick
 1102 0410 0246     		mov	r2, r0
 1103              		.loc 1 695 28 discriminator 1
 1104 0412 7B6A     		ldr	r3, [r7, #36]
 1105 0414 D31A     		subs	r3, r2, r3
 1106              		.loc 1 695 12 discriminator 1
 1107 0416 022B     		cmp	r3, #2
 1108 0418 01D9     		bls	.L66
 696:Drivers/STM32H7xx_HAL_Driver/Src/stm32h7xx_hal_rcc.c ****         {
 697:Drivers/STM32H7xx_HAL_Driver/Src/stm32h7xx_hal_rcc.c ****           return HAL_TIMEOUT;
 1109              		.loc 1 697 18
 1110 041a 0323     		movs	r3, #3
 1111 041c C2E1     		b	.L22
 1112              	.L66:
 693:Drivers/STM32H7xx_HAL_Driver/Src/stm32h7xx_hal_rcc.c ****       {
 1113              		.loc 1 693 14
 1114 041e 214B     		ldr	r3, .L95
 1115 0420 1B68     		ldr	r3, [r3]
 1116 0422 03F40053 		and	r3, r3, #8192
 693:Drivers/STM32H7xx_HAL_Driver/Src/stm32h7xx_hal_rcc.c ****       {
 1117              		.loc 1 693 52
 1118 0426 002B     		cmp	r3, #0
 1119 0428 F0D1     		bne	.L67
 1120              	.L62:
 698:Drivers/STM32H7xx_HAL_Driver/Src/stm32h7xx_hal_rcc.c ****         }
 699:Drivers/STM32H7xx_HAL_Driver/Src/stm32h7xx_hal_rcc.c ****       }
 700:Drivers/STM32H7xx_HAL_Driver/Src/stm32h7xx_hal_rcc.c ****     }
 701:Drivers/STM32H7xx_HAL_Driver/Src/stm32h7xx_hal_rcc.c ****   }
 702:Drivers/STM32H7xx_HAL_Driver/Src/stm32h7xx_hal_rcc.c ****   /*------------------------------ LSE Configuration -------------------------*/
 703:Drivers/STM32H7xx_HAL_Driver/Src/stm32h7xx_hal_rcc.c ****   if (((RCC_OscInitStruct->OscillatorType) & RCC_OSCILLATORTYPE_LSE) == RCC_OSCILLATORTYPE_LSE)
 1121              		.loc 1 703 26
 1122 042a 7B68     		ldr	r3, [r7, #4]
 1123 042c 1B68     		ldr	r3, [r3]
 1124              		.loc 1 703 44
 1125 042e 03F00403 		and	r3, r3, #4
 1126              		.loc 1 703 6
 1127 0432 002B     		cmp	r3, #0
 1128 0434 00F08680 		beq	.L68
 704:Drivers/STM32H7xx_HAL_Driver/Src/stm32h7xx_hal_rcc.c ****   {
 705:Drivers/STM32H7xx_HAL_Driver/Src/stm32h7xx_hal_rcc.c ****     /* Check the parameters */
 706:Drivers/STM32H7xx_HAL_Driver/Src/stm32h7xx_hal_rcc.c ****     assert_param(IS_RCC_LSE(RCC_OscInitStruct->LSEState));
 707:Drivers/STM32H7xx_HAL_Driver/Src/stm32h7xx_hal_rcc.c **** 
 708:Drivers/STM32H7xx_HAL_Driver/Src/stm32h7xx_hal_rcc.c ****     /* Enable write access to Backup domain */
 709:Drivers/STM32H7xx_HAL_Driver/Src/stm32h7xx_hal_rcc.c ****     PWR->CR1 |= PWR_CR1_DBP;
 1129              		.loc 1 709 8
 1130 0438 1B4B     		ldr	r3, .L95+4
 1131 043a 1B68     		ldr	r3, [r3]
 1132 043c 1A4A     		ldr	r2, .L95+4
 1133              		.loc 1 709 14
 1134 043e 43F48073 		orr	r3, r3, #256
 1135 0442 1360     		str	r3, [r2]
 710:Drivers/STM32H7xx_HAL_Driver/Src/stm32h7xx_hal_rcc.c **** 
 711:Drivers/STM32H7xx_HAL_Driver/Src/stm32h7xx_hal_rcc.c ****     /* Wait for Backup domain Write protection disable */
 712:Drivers/STM32H7xx_HAL_Driver/Src/stm32h7xx_hal_rcc.c ****     tickstart = HAL_GetTick();
ARM GAS  C:\Users\fffff\AppData\Local\Temp\ccLkBlD6.s 			page 34


 1136              		.loc 1 712 17
 1137 0444 FFF7FEFF 		bl	HAL_GetTick
 1138 0448 7862     		str	r0, [r7, #36]
 713:Drivers/STM32H7xx_HAL_Driver/Src/stm32h7xx_hal_rcc.c **** 
 714:Drivers/STM32H7xx_HAL_Driver/Src/stm32h7xx_hal_rcc.c ****     while ((PWR->CR1 & PWR_CR1_DBP) == 0U)
 1139              		.loc 1 714 11
 1140 044a 08E0     		b	.L69
 1141              	.L70:
 715:Drivers/STM32H7xx_HAL_Driver/Src/stm32h7xx_hal_rcc.c ****     {
 716:Drivers/STM32H7xx_HAL_Driver/Src/stm32h7xx_hal_rcc.c ****       if ((HAL_GetTick() - tickstart) > RCC_DBP_TIMEOUT_VALUE)
 1142              		.loc 1 716 12
 1143 044c FFF7FEFF 		bl	HAL_GetTick
 1144 0450 0246     		mov	r2, r0
 1145              		.loc 1 716 26 discriminator 1
 1146 0452 7B6A     		ldr	r3, [r7, #36]
 1147 0454 D31A     		subs	r3, r2, r3
 1148              		.loc 1 716 10 discriminator 1
 1149 0456 642B     		cmp	r3, #100
 1150 0458 01D9     		bls	.L69
 717:Drivers/STM32H7xx_HAL_Driver/Src/stm32h7xx_hal_rcc.c ****       {
 718:Drivers/STM32H7xx_HAL_Driver/Src/stm32h7xx_hal_rcc.c ****         return HAL_TIMEOUT;
 1151              		.loc 1 718 16
 1152 045a 0323     		movs	r3, #3
 1153 045c A2E1     		b	.L22
 1154              	.L69:
 714:Drivers/STM32H7xx_HAL_Driver/Src/stm32h7xx_hal_rcc.c ****     {
 1155              		.loc 1 714 16
 1156 045e 124B     		ldr	r3, .L95+4
 1157 0460 1B68     		ldr	r3, [r3]
 714:Drivers/STM32H7xx_HAL_Driver/Src/stm32h7xx_hal_rcc.c ****     {
 1158              		.loc 1 714 22
 1159 0462 03F48073 		and	r3, r3, #256
 714:Drivers/STM32H7xx_HAL_Driver/Src/stm32h7xx_hal_rcc.c ****     {
 1160              		.loc 1 714 37
 1161 0466 002B     		cmp	r3, #0
 1162 0468 F0D0     		beq	.L70
 719:Drivers/STM32H7xx_HAL_Driver/Src/stm32h7xx_hal_rcc.c ****       }
 720:Drivers/STM32H7xx_HAL_Driver/Src/stm32h7xx_hal_rcc.c ****     }
 721:Drivers/STM32H7xx_HAL_Driver/Src/stm32h7xx_hal_rcc.c **** 
 722:Drivers/STM32H7xx_HAL_Driver/Src/stm32h7xx_hal_rcc.c ****     /* Set the new LSE configuration -----------------------------------------*/
 723:Drivers/STM32H7xx_HAL_Driver/Src/stm32h7xx_hal_rcc.c ****     __HAL_RCC_LSE_CONFIG(RCC_OscInitStruct->LSEState);
 1163              		.loc 1 723 5
 1164 046a 7B68     		ldr	r3, [r7, #4]
 1165 046c 9B68     		ldr	r3, [r3, #8]
 1166 046e 012B     		cmp	r3, #1
 1167 0470 06D1     		bne	.L71
 1168              		.loc 1 723 5 is_stmt 0 discriminator 1
 1169 0472 0C4B     		ldr	r3, .L95
 1170 0474 1B6F     		ldr	r3, [r3, #112]
 1171 0476 0B4A     		ldr	r2, .L95
 1172 0478 43F00103 		orr	r3, r3, #1
 1173 047c 1367     		str	r3, [r2, #112]
 1174 047e 32E0     		b	.L72
 1175              	.L71:
 1176              		.loc 1 723 5 discriminator 2
 1177 0480 7B68     		ldr	r3, [r7, #4]
 1178 0482 9B68     		ldr	r3, [r3, #8]
ARM GAS  C:\Users\fffff\AppData\Local\Temp\ccLkBlD6.s 			page 35


 1179 0484 002B     		cmp	r3, #0
 1180 0486 11D1     		bne	.L73
 1181              		.loc 1 723 5 discriminator 3
 1182 0488 064B     		ldr	r3, .L95
 1183 048a 1B6F     		ldr	r3, [r3, #112]
 1184 048c 054A     		ldr	r2, .L95
 1185 048e 23F00103 		bic	r3, r3, #1
 1186 0492 1367     		str	r3, [r2, #112]
 1187 0494 034B     		ldr	r3, .L95
 1188 0496 1B6F     		ldr	r3, [r3, #112]
 1189 0498 024A     		ldr	r2, .L95
 1190 049a 23F00403 		bic	r3, r3, #4
 1191 049e 1367     		str	r3, [r2, #112]
 1192 04a0 21E0     		b	.L72
 1193              	.L96:
 1194 04a2 00BF     		.align	2
 1195              	.L95:
 1196 04a4 00440258 		.word	1476543488
 1197 04a8 00480258 		.word	1476544512
 1198              	.L73:
 1199              		.loc 1 723 5 discriminator 4
 1200 04ac 7B68     		ldr	r3, [r7, #4]
 1201 04ae 9B68     		ldr	r3, [r3, #8]
 1202 04b0 052B     		cmp	r3, #5
 1203 04b2 0CD1     		bne	.L74
 1204              		.loc 1 723 5 discriminator 5
 1205 04b4 834B     		ldr	r3, .L97
 1206 04b6 1B6F     		ldr	r3, [r3, #112]
 1207 04b8 824A     		ldr	r2, .L97
 1208 04ba 43F00403 		orr	r3, r3, #4
 1209 04be 1367     		str	r3, [r2, #112]
 1210 04c0 804B     		ldr	r3, .L97
 1211 04c2 1B6F     		ldr	r3, [r3, #112]
 1212 04c4 7F4A     		ldr	r2, .L97
 1213 04c6 43F00103 		orr	r3, r3, #1
 1214 04ca 1367     		str	r3, [r2, #112]
 1215 04cc 0BE0     		b	.L72
 1216              	.L74:
 1217              		.loc 1 723 5 discriminator 6
 1218 04ce 7D4B     		ldr	r3, .L97
 1219 04d0 1B6F     		ldr	r3, [r3, #112]
 1220 04d2 7C4A     		ldr	r2, .L97
 1221 04d4 23F00103 		bic	r3, r3, #1
 1222 04d8 1367     		str	r3, [r2, #112]
 1223 04da 7A4B     		ldr	r3, .L97
 1224 04dc 1B6F     		ldr	r3, [r3, #112]
 1225 04de 794A     		ldr	r2, .L97
 1226 04e0 23F00403 		bic	r3, r3, #4
 1227 04e4 1367     		str	r3, [r2, #112]
 1228              	.L72:
 724:Drivers/STM32H7xx_HAL_Driver/Src/stm32h7xx_hal_rcc.c ****     /* Check the LSE State */
 725:Drivers/STM32H7xx_HAL_Driver/Src/stm32h7xx_hal_rcc.c ****     if ((RCC_OscInitStruct->LSEState) != RCC_LSE_OFF)
 1229              		.loc 1 725 27 is_stmt 1
 1230 04e6 7B68     		ldr	r3, [r7, #4]
 1231 04e8 9B68     		ldr	r3, [r3, #8]
 1232              		.loc 1 725 8
 1233 04ea 002B     		cmp	r3, #0
ARM GAS  C:\Users\fffff\AppData\Local\Temp\ccLkBlD6.s 			page 36


 1234 04ec 15D0     		beq	.L75
 726:Drivers/STM32H7xx_HAL_Driver/Src/stm32h7xx_hal_rcc.c ****     {
 727:Drivers/STM32H7xx_HAL_Driver/Src/stm32h7xx_hal_rcc.c ****       /* Get Start Tick*/
 728:Drivers/STM32H7xx_HAL_Driver/Src/stm32h7xx_hal_rcc.c ****       tickstart = HAL_GetTick();
 1235              		.loc 1 728 19
 1236 04ee FFF7FEFF 		bl	HAL_GetTick
 1237 04f2 7862     		str	r0, [r7, #36]
 729:Drivers/STM32H7xx_HAL_Driver/Src/stm32h7xx_hal_rcc.c **** 
 730:Drivers/STM32H7xx_HAL_Driver/Src/stm32h7xx_hal_rcc.c ****       /* Wait till LSE is ready */
 731:Drivers/STM32H7xx_HAL_Driver/Src/stm32h7xx_hal_rcc.c ****       while (__HAL_RCC_GET_FLAG(RCC_FLAG_LSERDY) == 0U)
 1238              		.loc 1 731 13
 1239 04f4 0AE0     		b	.L76
 1240              	.L77:
 732:Drivers/STM32H7xx_HAL_Driver/Src/stm32h7xx_hal_rcc.c ****       {
 733:Drivers/STM32H7xx_HAL_Driver/Src/stm32h7xx_hal_rcc.c ****         if ((HAL_GetTick() - tickstart) > RCC_LSE_TIMEOUT_VALUE)
 1241              		.loc 1 733 14
 1242 04f6 FFF7FEFF 		bl	HAL_GetTick
 1243 04fa 0246     		mov	r2, r0
 1244              		.loc 1 733 28 discriminator 1
 1245 04fc 7B6A     		ldr	r3, [r7, #36]
 1246 04fe D31A     		subs	r3, r2, r3
 1247              		.loc 1 733 12 discriminator 1
 1248 0500 41F28832 		movw	r2, #5000
 1249 0504 9342     		cmp	r3, r2
 1250 0506 01D9     		bls	.L76
 734:Drivers/STM32H7xx_HAL_Driver/Src/stm32h7xx_hal_rcc.c ****         {
 735:Drivers/STM32H7xx_HAL_Driver/Src/stm32h7xx_hal_rcc.c ****           return HAL_TIMEOUT;
 1251              		.loc 1 735 18
 1252 0508 0323     		movs	r3, #3
 1253 050a 4BE1     		b	.L22
 1254              	.L76:
 731:Drivers/STM32H7xx_HAL_Driver/Src/stm32h7xx_hal_rcc.c ****       {
 1255              		.loc 1 731 14
 1256 050c 6D4B     		ldr	r3, .L97
 1257 050e 1B6F     		ldr	r3, [r3, #112]
 1258 0510 03F00203 		and	r3, r3, #2
 731:Drivers/STM32H7xx_HAL_Driver/Src/stm32h7xx_hal_rcc.c ****       {
 1259              		.loc 1 731 50
 1260 0514 002B     		cmp	r3, #0
 1261 0516 EED0     		beq	.L77
 1262 0518 14E0     		b	.L68
 1263              	.L75:
 736:Drivers/STM32H7xx_HAL_Driver/Src/stm32h7xx_hal_rcc.c ****         }
 737:Drivers/STM32H7xx_HAL_Driver/Src/stm32h7xx_hal_rcc.c ****       }
 738:Drivers/STM32H7xx_HAL_Driver/Src/stm32h7xx_hal_rcc.c ****     }
 739:Drivers/STM32H7xx_HAL_Driver/Src/stm32h7xx_hal_rcc.c ****     else
 740:Drivers/STM32H7xx_HAL_Driver/Src/stm32h7xx_hal_rcc.c ****     {
 741:Drivers/STM32H7xx_HAL_Driver/Src/stm32h7xx_hal_rcc.c ****       /* Get Start Tick*/
 742:Drivers/STM32H7xx_HAL_Driver/Src/stm32h7xx_hal_rcc.c ****       tickstart = HAL_GetTick();
 1264              		.loc 1 742 19
 1265 051a FFF7FEFF 		bl	HAL_GetTick
 1266 051e 7862     		str	r0, [r7, #36]
 743:Drivers/STM32H7xx_HAL_Driver/Src/stm32h7xx_hal_rcc.c **** 
 744:Drivers/STM32H7xx_HAL_Driver/Src/stm32h7xx_hal_rcc.c ****       /* Wait till LSE is disabled */
 745:Drivers/STM32H7xx_HAL_Driver/Src/stm32h7xx_hal_rcc.c ****       while (__HAL_RCC_GET_FLAG(RCC_FLAG_LSERDY) != 0U)
 1267              		.loc 1 745 13
 1268 0520 0AE0     		b	.L78
ARM GAS  C:\Users\fffff\AppData\Local\Temp\ccLkBlD6.s 			page 37


 1269              	.L79:
 746:Drivers/STM32H7xx_HAL_Driver/Src/stm32h7xx_hal_rcc.c ****       {
 747:Drivers/STM32H7xx_HAL_Driver/Src/stm32h7xx_hal_rcc.c ****         if ((HAL_GetTick() - tickstart) > RCC_LSE_TIMEOUT_VALUE)
 1270              		.loc 1 747 14
 1271 0522 FFF7FEFF 		bl	HAL_GetTick
 1272 0526 0246     		mov	r2, r0
 1273              		.loc 1 747 28 discriminator 1
 1274 0528 7B6A     		ldr	r3, [r7, #36]
 1275 052a D31A     		subs	r3, r2, r3
 1276              		.loc 1 747 12 discriminator 1
 1277 052c 41F28832 		movw	r2, #5000
 1278 0530 9342     		cmp	r3, r2
 1279 0532 01D9     		bls	.L78
 748:Drivers/STM32H7xx_HAL_Driver/Src/stm32h7xx_hal_rcc.c ****         {
 749:Drivers/STM32H7xx_HAL_Driver/Src/stm32h7xx_hal_rcc.c ****           return HAL_TIMEOUT;
 1280              		.loc 1 749 18
 1281 0534 0323     		movs	r3, #3
 1282 0536 35E1     		b	.L22
 1283              	.L78:
 745:Drivers/STM32H7xx_HAL_Driver/Src/stm32h7xx_hal_rcc.c ****       {
 1284              		.loc 1 745 14
 1285 0538 624B     		ldr	r3, .L97
 1286 053a 1B6F     		ldr	r3, [r3, #112]
 1287 053c 03F00203 		and	r3, r3, #2
 745:Drivers/STM32H7xx_HAL_Driver/Src/stm32h7xx_hal_rcc.c ****       {
 1288              		.loc 1 745 50
 1289 0540 002B     		cmp	r3, #0
 1290 0542 EED1     		bne	.L79
 1291              	.L68:
 750:Drivers/STM32H7xx_HAL_Driver/Src/stm32h7xx_hal_rcc.c ****         }
 751:Drivers/STM32H7xx_HAL_Driver/Src/stm32h7xx_hal_rcc.c ****       }
 752:Drivers/STM32H7xx_HAL_Driver/Src/stm32h7xx_hal_rcc.c ****     }
 753:Drivers/STM32H7xx_HAL_Driver/Src/stm32h7xx_hal_rcc.c ****   }
 754:Drivers/STM32H7xx_HAL_Driver/Src/stm32h7xx_hal_rcc.c ****   /*-------------------------------- PLL Configuration -----------------------*/
 755:Drivers/STM32H7xx_HAL_Driver/Src/stm32h7xx_hal_rcc.c ****   /* Check the parameters */
 756:Drivers/STM32H7xx_HAL_Driver/Src/stm32h7xx_hal_rcc.c ****   assert_param(IS_RCC_PLL(RCC_OscInitStruct->PLL.PLLState));
 757:Drivers/STM32H7xx_HAL_Driver/Src/stm32h7xx_hal_rcc.c ****   if ((RCC_OscInitStruct->PLL.PLLState) != RCC_PLL_NONE)
 1292              		.loc 1 757 30
 1293 0544 7B68     		ldr	r3, [r7, #4]
 1294 0546 5B6A     		ldr	r3, [r3, #36]
 1295              		.loc 1 757 6
 1296 0548 002B     		cmp	r3, #0
 1297 054a 00F02A81 		beq	.L80
 758:Drivers/STM32H7xx_HAL_Driver/Src/stm32h7xx_hal_rcc.c ****   {
 759:Drivers/STM32H7xx_HAL_Driver/Src/stm32h7xx_hal_rcc.c ****     /* Check if the PLL is used as system clock or not */
 760:Drivers/STM32H7xx_HAL_Driver/Src/stm32h7xx_hal_rcc.c ****     if (__HAL_RCC_GET_SYSCLK_SOURCE() != RCC_CFGR_SWS_PLL1)
 1298              		.loc 1 760 9
 1299 054e 5D4B     		ldr	r3, .L97
 1300 0550 1B69     		ldr	r3, [r3, #16]
 1301 0552 03F03803 		and	r3, r3, #56
 1302              		.loc 1 760 8
 1303 0556 182B     		cmp	r3, #24
 1304 0558 00F0BA80 		beq	.L81
 761:Drivers/STM32H7xx_HAL_Driver/Src/stm32h7xx_hal_rcc.c ****     {
 762:Drivers/STM32H7xx_HAL_Driver/Src/stm32h7xx_hal_rcc.c ****       if ((RCC_OscInitStruct->PLL.PLLState) == RCC_PLL_ON)
 1305              		.loc 1 762 34
 1306 055c 7B68     		ldr	r3, [r7, #4]
ARM GAS  C:\Users\fffff\AppData\Local\Temp\ccLkBlD6.s 			page 38


 1307 055e 5B6A     		ldr	r3, [r3, #36]
 1308              		.loc 1 762 10
 1309 0560 022B     		cmp	r3, #2
 1310 0562 40F09580 		bne	.L82
 763:Drivers/STM32H7xx_HAL_Driver/Src/stm32h7xx_hal_rcc.c ****       {
 764:Drivers/STM32H7xx_HAL_Driver/Src/stm32h7xx_hal_rcc.c ****         /* Check the parameters */
 765:Drivers/STM32H7xx_HAL_Driver/Src/stm32h7xx_hal_rcc.c ****         assert_param(IS_RCC_PLLSOURCE(RCC_OscInitStruct->PLL.PLLSource));
 766:Drivers/STM32H7xx_HAL_Driver/Src/stm32h7xx_hal_rcc.c ****         assert_param(IS_RCC_PLLRGE_VALUE(RCC_OscInitStruct->PLL.PLLRGE));
 767:Drivers/STM32H7xx_HAL_Driver/Src/stm32h7xx_hal_rcc.c ****         assert_param(IS_RCC_PLLVCO_VALUE(RCC_OscInitStruct->PLL.PLLVCOSEL));
 768:Drivers/STM32H7xx_HAL_Driver/Src/stm32h7xx_hal_rcc.c ****         assert_param(IS_RCC_PLLM_VALUE(RCC_OscInitStruct->PLL.PLLM));
 769:Drivers/STM32H7xx_HAL_Driver/Src/stm32h7xx_hal_rcc.c ****         assert_param(IS_RCC_PLLN_VALUE(RCC_OscInitStruct->PLL.PLLN));
 770:Drivers/STM32H7xx_HAL_Driver/Src/stm32h7xx_hal_rcc.c ****         assert_param(IS_RCC_PLLP_VALUE(RCC_OscInitStruct->PLL.PLLP));
 771:Drivers/STM32H7xx_HAL_Driver/Src/stm32h7xx_hal_rcc.c ****         assert_param(IS_RCC_PLLQ_VALUE(RCC_OscInitStruct->PLL.PLLQ));
 772:Drivers/STM32H7xx_HAL_Driver/Src/stm32h7xx_hal_rcc.c ****         assert_param(IS_RCC_PLLR_VALUE(RCC_OscInitStruct->PLL.PLLR));
 773:Drivers/STM32H7xx_HAL_Driver/Src/stm32h7xx_hal_rcc.c ****         assert_param(IS_RCC_PLLFRACN_VALUE(RCC_OscInitStruct->PLL.PLLFRACN));
 774:Drivers/STM32H7xx_HAL_Driver/Src/stm32h7xx_hal_rcc.c **** 
 775:Drivers/STM32H7xx_HAL_Driver/Src/stm32h7xx_hal_rcc.c ****         /* Disable the main PLL. */
 776:Drivers/STM32H7xx_HAL_Driver/Src/stm32h7xx_hal_rcc.c ****         __HAL_RCC_PLL_DISABLE();
 1311              		.loc 1 776 9
 1312 0566 574B     		ldr	r3, .L97
 1313 0568 1B68     		ldr	r3, [r3]
 1314 056a 564A     		ldr	r2, .L97
 1315 056c 23F08073 		bic	r3, r3, #16777216
 1316 0570 1360     		str	r3, [r2]
 777:Drivers/STM32H7xx_HAL_Driver/Src/stm32h7xx_hal_rcc.c **** 
 778:Drivers/STM32H7xx_HAL_Driver/Src/stm32h7xx_hal_rcc.c ****         /* Get Start Tick*/
 779:Drivers/STM32H7xx_HAL_Driver/Src/stm32h7xx_hal_rcc.c ****         tickstart = HAL_GetTick();
 1317              		.loc 1 779 21
 1318 0572 FFF7FEFF 		bl	HAL_GetTick
 1319 0576 7862     		str	r0, [r7, #36]
 780:Drivers/STM32H7xx_HAL_Driver/Src/stm32h7xx_hal_rcc.c **** 
 781:Drivers/STM32H7xx_HAL_Driver/Src/stm32h7xx_hal_rcc.c ****         /* Wait till PLL is disabled */
 782:Drivers/STM32H7xx_HAL_Driver/Src/stm32h7xx_hal_rcc.c ****         while (__HAL_RCC_GET_FLAG(RCC_FLAG_PLLRDY) != 0U)
 1320              		.loc 1 782 15
 1321 0578 08E0     		b	.L83
 1322              	.L84:
 783:Drivers/STM32H7xx_HAL_Driver/Src/stm32h7xx_hal_rcc.c ****         {
 784:Drivers/STM32H7xx_HAL_Driver/Src/stm32h7xx_hal_rcc.c ****           if ((HAL_GetTick() - tickstart) > PLL_TIMEOUT_VALUE)
 1323              		.loc 1 784 16
 1324 057a FFF7FEFF 		bl	HAL_GetTick
 1325 057e 0246     		mov	r2, r0
 1326              		.loc 1 784 30 discriminator 1
 1327 0580 7B6A     		ldr	r3, [r7, #36]
 1328 0582 D31A     		subs	r3, r2, r3
 1329              		.loc 1 784 14 discriminator 1
 1330 0584 022B     		cmp	r3, #2
 1331 0586 01D9     		bls	.L83
 785:Drivers/STM32H7xx_HAL_Driver/Src/stm32h7xx_hal_rcc.c ****           {
 786:Drivers/STM32H7xx_HAL_Driver/Src/stm32h7xx_hal_rcc.c ****             return HAL_TIMEOUT;
 1332              		.loc 1 786 20
 1333 0588 0323     		movs	r3, #3
 1334 058a 0BE1     		b	.L22
 1335              	.L83:
 782:Drivers/STM32H7xx_HAL_Driver/Src/stm32h7xx_hal_rcc.c ****         {
 1336              		.loc 1 782 16
 1337 058c 4D4B     		ldr	r3, .L97
 1338 058e 1B68     		ldr	r3, [r3]
ARM GAS  C:\Users\fffff\AppData\Local\Temp\ccLkBlD6.s 			page 39


 1339 0590 03F00073 		and	r3, r3, #33554432
 782:Drivers/STM32H7xx_HAL_Driver/Src/stm32h7xx_hal_rcc.c ****         {
 1340              		.loc 1 782 52
 1341 0594 002B     		cmp	r3, #0
 1342 0596 F0D1     		bne	.L84
 787:Drivers/STM32H7xx_HAL_Driver/Src/stm32h7xx_hal_rcc.c ****           }
 788:Drivers/STM32H7xx_HAL_Driver/Src/stm32h7xx_hal_rcc.c ****         }
 789:Drivers/STM32H7xx_HAL_Driver/Src/stm32h7xx_hal_rcc.c **** 
 790:Drivers/STM32H7xx_HAL_Driver/Src/stm32h7xx_hal_rcc.c ****         /* Configure the main PLL clock source, multiplication and division factors. */
 791:Drivers/STM32H7xx_HAL_Driver/Src/stm32h7xx_hal_rcc.c ****         __HAL_RCC_PLL_CONFIG(RCC_OscInitStruct->PLL.PLLSource,
 1343              		.loc 1 791 9
 1344 0598 4A4B     		ldr	r3, .L97
 1345 059a 9A6A     		ldr	r2, [r3, #40]
 1346 059c 4A4B     		ldr	r3, .L97+4
 1347 059e 1340     		ands	r3, r3, r2
 1348 05a0 7A68     		ldr	r2, [r7, #4]
 1349 05a2 916A     		ldr	r1, [r2, #40]
 1350 05a4 7A68     		ldr	r2, [r7, #4]
 1351 05a6 D26A     		ldr	r2, [r2, #44]
 1352 05a8 1201     		lsls	r2, r2, #4
 1353 05aa 0A43     		orrs	r2, r2, r1
 1354 05ac 4549     		ldr	r1, .L97
 1355 05ae 1343     		orrs	r3, r3, r2
 1356 05b0 8B62     		str	r3, [r1, #40]
 1357 05b2 7B68     		ldr	r3, [r7, #4]
 1358 05b4 1B6B     		ldr	r3, [r3, #48]
 1359 05b6 013B     		subs	r3, r3, #1
 1360 05b8 C3F30802 		ubfx	r2, r3, #0, #9
 1361 05bc 7B68     		ldr	r3, [r7, #4]
 1362 05be 5B6B     		ldr	r3, [r3, #52]
 1363 05c0 013B     		subs	r3, r3, #1
 1364 05c2 5B02     		lsls	r3, r3, #9
 1365 05c4 9BB2     		uxth	r3, r3
 1366 05c6 1A43     		orrs	r2, r2, r3
 1367 05c8 7B68     		ldr	r3, [r7, #4]
 1368 05ca 9B6B     		ldr	r3, [r3, #56]
 1369 05cc 013B     		subs	r3, r3, #1
 1370 05ce 1B04     		lsls	r3, r3, #16
 1371 05d0 03F4FE03 		and	r3, r3, #8323072
 1372 05d4 1A43     		orrs	r2, r2, r3
 1373 05d6 7B68     		ldr	r3, [r7, #4]
 1374 05d8 DB6B     		ldr	r3, [r3, #60]
 1375 05da 013B     		subs	r3, r3, #1
 1376 05dc 1B06     		lsls	r3, r3, #24
 1377 05de 03F0FE43 		and	r3, r3, #2130706432
 1378 05e2 3849     		ldr	r1, .L97
 1379 05e4 1343     		orrs	r3, r3, r2
 1380 05e6 0B63     		str	r3, [r1, #48]
 792:Drivers/STM32H7xx_HAL_Driver/Src/stm32h7xx_hal_rcc.c ****                              RCC_OscInitStruct->PLL.PLLM,
 793:Drivers/STM32H7xx_HAL_Driver/Src/stm32h7xx_hal_rcc.c ****                              RCC_OscInitStruct->PLL.PLLN,
 794:Drivers/STM32H7xx_HAL_Driver/Src/stm32h7xx_hal_rcc.c ****                              RCC_OscInitStruct->PLL.PLLP,
 795:Drivers/STM32H7xx_HAL_Driver/Src/stm32h7xx_hal_rcc.c ****                              RCC_OscInitStruct->PLL.PLLQ,
 796:Drivers/STM32H7xx_HAL_Driver/Src/stm32h7xx_hal_rcc.c ****                              RCC_OscInitStruct->PLL.PLLR);
 797:Drivers/STM32H7xx_HAL_Driver/Src/stm32h7xx_hal_rcc.c **** 
 798:Drivers/STM32H7xx_HAL_Driver/Src/stm32h7xx_hal_rcc.c ****         /* Disable PLLFRACN . */
 799:Drivers/STM32H7xx_HAL_Driver/Src/stm32h7xx_hal_rcc.c ****         __HAL_RCC_PLLFRACN_DISABLE();
 1381              		.loc 1 799 9
ARM GAS  C:\Users\fffff\AppData\Local\Temp\ccLkBlD6.s 			page 40


 1382 05e8 364B     		ldr	r3, .L97
 1383 05ea DB6A     		ldr	r3, [r3, #44]
 1384 05ec 354A     		ldr	r2, .L97
 1385 05ee 23F00103 		bic	r3, r3, #1
 1386 05f2 D362     		str	r3, [r2, #44]
 800:Drivers/STM32H7xx_HAL_Driver/Src/stm32h7xx_hal_rcc.c **** 
 801:Drivers/STM32H7xx_HAL_Driver/Src/stm32h7xx_hal_rcc.c ****         /* Configure PLL PLL1FRACN */
 802:Drivers/STM32H7xx_HAL_Driver/Src/stm32h7xx_hal_rcc.c ****         __HAL_RCC_PLLFRACN_CONFIG(RCC_OscInitStruct->PLL.PLLFRACN);
 1387              		.loc 1 802 9
 1388 05f4 334B     		ldr	r3, .L97
 1389 05f6 5A6B     		ldr	r2, [r3, #52]
 1390 05f8 344B     		ldr	r3, .L97+8
 1391 05fa 1340     		ands	r3, r3, r2
 1392 05fc 7A68     		ldr	r2, [r7, #4]
 1393 05fe 926C     		ldr	r2, [r2, #72]
 1394 0600 D200     		lsls	r2, r2, #3
 1395 0602 3049     		ldr	r1, .L97
 1396 0604 1343     		orrs	r3, r3, r2
 1397 0606 4B63     		str	r3, [r1, #52]
 803:Drivers/STM32H7xx_HAL_Driver/Src/stm32h7xx_hal_rcc.c **** 
 804:Drivers/STM32H7xx_HAL_Driver/Src/stm32h7xx_hal_rcc.c ****         /* Select PLL1 input reference frequency range: VCI */
 805:Drivers/STM32H7xx_HAL_Driver/Src/stm32h7xx_hal_rcc.c ****         __HAL_RCC_PLL_VCIRANGE(RCC_OscInitStruct->PLL.PLLRGE) ;
 1398              		.loc 1 805 9
 1399 0608 2E4B     		ldr	r3, .L97
 1400 060a DB6A     		ldr	r3, [r3, #44]
 1401 060c 23F00C02 		bic	r2, r3, #12
 1402 0610 7B68     		ldr	r3, [r7, #4]
 1403 0612 1B6C     		ldr	r3, [r3, #64]
 1404 0614 2B49     		ldr	r1, .L97
 1405 0616 1343     		orrs	r3, r3, r2
 1406 0618 CB62     		str	r3, [r1, #44]
 806:Drivers/STM32H7xx_HAL_Driver/Src/stm32h7xx_hal_rcc.c **** 
 807:Drivers/STM32H7xx_HAL_Driver/Src/stm32h7xx_hal_rcc.c ****         /* Select PLL1 output frequency range : VCO */
 808:Drivers/STM32H7xx_HAL_Driver/Src/stm32h7xx_hal_rcc.c ****         __HAL_RCC_PLL_VCORANGE(RCC_OscInitStruct->PLL.PLLVCOSEL) ;
 1407              		.loc 1 808 9
 1408 061a 2A4B     		ldr	r3, .L97
 1409 061c DB6A     		ldr	r3, [r3, #44]
 1410 061e 23F00202 		bic	r2, r3, #2
 1411 0622 7B68     		ldr	r3, [r7, #4]
 1412 0624 5B6C     		ldr	r3, [r3, #68]
 1413 0626 2749     		ldr	r1, .L97
 1414 0628 1343     		orrs	r3, r3, r2
 1415 062a CB62     		str	r3, [r1, #44]
 809:Drivers/STM32H7xx_HAL_Driver/Src/stm32h7xx_hal_rcc.c **** 
 810:Drivers/STM32H7xx_HAL_Driver/Src/stm32h7xx_hal_rcc.c ****         /* Enable PLL System Clock output. */
 811:Drivers/STM32H7xx_HAL_Driver/Src/stm32h7xx_hal_rcc.c ****         __HAL_RCC_PLLCLKOUT_ENABLE(RCC_PLL1_DIVP);
 1416              		.loc 1 811 9
 1417 062c 254B     		ldr	r3, .L97
 1418 062e DB6A     		ldr	r3, [r3, #44]
 1419 0630 244A     		ldr	r2, .L97
 1420 0632 43F48033 		orr	r3, r3, #65536
 1421 0636 D362     		str	r3, [r2, #44]
 812:Drivers/STM32H7xx_HAL_Driver/Src/stm32h7xx_hal_rcc.c **** 
 813:Drivers/STM32H7xx_HAL_Driver/Src/stm32h7xx_hal_rcc.c ****         /* Enable PLL1Q Clock output. */
 814:Drivers/STM32H7xx_HAL_Driver/Src/stm32h7xx_hal_rcc.c ****         __HAL_RCC_PLLCLKOUT_ENABLE(RCC_PLL1_DIVQ);
 1422              		.loc 1 814 9
 1423 0638 224B     		ldr	r3, .L97
ARM GAS  C:\Users\fffff\AppData\Local\Temp\ccLkBlD6.s 			page 41


 1424 063a DB6A     		ldr	r3, [r3, #44]
 1425 063c 214A     		ldr	r2, .L97
 1426 063e 43F40033 		orr	r3, r3, #131072
 1427 0642 D362     		str	r3, [r2, #44]
 815:Drivers/STM32H7xx_HAL_Driver/Src/stm32h7xx_hal_rcc.c **** 
 816:Drivers/STM32H7xx_HAL_Driver/Src/stm32h7xx_hal_rcc.c ****         /* Enable PLL1R  Clock output. */
 817:Drivers/STM32H7xx_HAL_Driver/Src/stm32h7xx_hal_rcc.c ****         __HAL_RCC_PLLCLKOUT_ENABLE(RCC_PLL1_DIVR);
 1428              		.loc 1 817 9
 1429 0644 1F4B     		ldr	r3, .L97
 1430 0646 DB6A     		ldr	r3, [r3, #44]
 1431 0648 1E4A     		ldr	r2, .L97
 1432 064a 43F48023 		orr	r3, r3, #262144
 1433 064e D362     		str	r3, [r2, #44]
 818:Drivers/STM32H7xx_HAL_Driver/Src/stm32h7xx_hal_rcc.c **** 
 819:Drivers/STM32H7xx_HAL_Driver/Src/stm32h7xx_hal_rcc.c ****         /* Enable PLL1FRACN . */
 820:Drivers/STM32H7xx_HAL_Driver/Src/stm32h7xx_hal_rcc.c ****         __HAL_RCC_PLLFRACN_ENABLE();
 1434              		.loc 1 820 9
 1435 0650 1C4B     		ldr	r3, .L97
 1436 0652 DB6A     		ldr	r3, [r3, #44]
 1437 0654 1B4A     		ldr	r2, .L97
 1438 0656 43F00103 		orr	r3, r3, #1
 1439 065a D362     		str	r3, [r2, #44]
 821:Drivers/STM32H7xx_HAL_Driver/Src/stm32h7xx_hal_rcc.c **** 
 822:Drivers/STM32H7xx_HAL_Driver/Src/stm32h7xx_hal_rcc.c ****         /* Enable the main PLL. */
 823:Drivers/STM32H7xx_HAL_Driver/Src/stm32h7xx_hal_rcc.c ****         __HAL_RCC_PLL_ENABLE();
 1440              		.loc 1 823 9
 1441 065c 194B     		ldr	r3, .L97
 1442 065e 1B68     		ldr	r3, [r3]
 1443 0660 184A     		ldr	r2, .L97
 1444 0662 43F08073 		orr	r3, r3, #16777216
 1445 0666 1360     		str	r3, [r2]
 824:Drivers/STM32H7xx_HAL_Driver/Src/stm32h7xx_hal_rcc.c **** 
 825:Drivers/STM32H7xx_HAL_Driver/Src/stm32h7xx_hal_rcc.c ****         /* Get Start Tick*/
 826:Drivers/STM32H7xx_HAL_Driver/Src/stm32h7xx_hal_rcc.c ****         tickstart = HAL_GetTick();
 1446              		.loc 1 826 21
 1447 0668 FFF7FEFF 		bl	HAL_GetTick
 1448 066c 7862     		str	r0, [r7, #36]
 827:Drivers/STM32H7xx_HAL_Driver/Src/stm32h7xx_hal_rcc.c **** 
 828:Drivers/STM32H7xx_HAL_Driver/Src/stm32h7xx_hal_rcc.c ****         /* Wait till PLL is ready */
 829:Drivers/STM32H7xx_HAL_Driver/Src/stm32h7xx_hal_rcc.c ****         while (__HAL_RCC_GET_FLAG(RCC_FLAG_PLLRDY) == 0U)
 1449              		.loc 1 829 15
 1450 066e 08E0     		b	.L85
 1451              	.L86:
 830:Drivers/STM32H7xx_HAL_Driver/Src/stm32h7xx_hal_rcc.c ****         {
 831:Drivers/STM32H7xx_HAL_Driver/Src/stm32h7xx_hal_rcc.c ****           if ((HAL_GetTick() - tickstart) > PLL_TIMEOUT_VALUE)
 1452              		.loc 1 831 16
 1453 0670 FFF7FEFF 		bl	HAL_GetTick
 1454 0674 0246     		mov	r2, r0
 1455              		.loc 1 831 30 discriminator 1
 1456 0676 7B6A     		ldr	r3, [r7, #36]
 1457 0678 D31A     		subs	r3, r2, r3
 1458              		.loc 1 831 14 discriminator 1
 1459 067a 022B     		cmp	r3, #2
 1460 067c 01D9     		bls	.L85
 832:Drivers/STM32H7xx_HAL_Driver/Src/stm32h7xx_hal_rcc.c ****           {
 833:Drivers/STM32H7xx_HAL_Driver/Src/stm32h7xx_hal_rcc.c ****             return HAL_TIMEOUT;
 1461              		.loc 1 833 20
ARM GAS  C:\Users\fffff\AppData\Local\Temp\ccLkBlD6.s 			page 42


 1462 067e 0323     		movs	r3, #3
 1463 0680 90E0     		b	.L22
 1464              	.L85:
 829:Drivers/STM32H7xx_HAL_Driver/Src/stm32h7xx_hal_rcc.c ****         {
 1465              		.loc 1 829 16
 1466 0682 104B     		ldr	r3, .L97
 1467 0684 1B68     		ldr	r3, [r3]
 1468 0686 03F00073 		and	r3, r3, #33554432
 829:Drivers/STM32H7xx_HAL_Driver/Src/stm32h7xx_hal_rcc.c ****         {
 1469              		.loc 1 829 52
 1470 068a 002B     		cmp	r3, #0
 1471 068c F0D0     		beq	.L86
 1472 068e 88E0     		b	.L80
 1473              	.L82:
 834:Drivers/STM32H7xx_HAL_Driver/Src/stm32h7xx_hal_rcc.c ****           }
 835:Drivers/STM32H7xx_HAL_Driver/Src/stm32h7xx_hal_rcc.c ****         }
 836:Drivers/STM32H7xx_HAL_Driver/Src/stm32h7xx_hal_rcc.c ****       }
 837:Drivers/STM32H7xx_HAL_Driver/Src/stm32h7xx_hal_rcc.c ****       else
 838:Drivers/STM32H7xx_HAL_Driver/Src/stm32h7xx_hal_rcc.c ****       {
 839:Drivers/STM32H7xx_HAL_Driver/Src/stm32h7xx_hal_rcc.c ****         /* Disable the main PLL. */
 840:Drivers/STM32H7xx_HAL_Driver/Src/stm32h7xx_hal_rcc.c ****         __HAL_RCC_PLL_DISABLE();
 1474              		.loc 1 840 9
 1475 0690 0C4B     		ldr	r3, .L97
 1476 0692 1B68     		ldr	r3, [r3]
 1477 0694 0B4A     		ldr	r2, .L97
 1478 0696 23F08073 		bic	r3, r3, #16777216
 1479 069a 1360     		str	r3, [r2]
 841:Drivers/STM32H7xx_HAL_Driver/Src/stm32h7xx_hal_rcc.c **** 
 842:Drivers/STM32H7xx_HAL_Driver/Src/stm32h7xx_hal_rcc.c ****         /* Get Start Tick*/
 843:Drivers/STM32H7xx_HAL_Driver/Src/stm32h7xx_hal_rcc.c ****         tickstart = HAL_GetTick();
 1480              		.loc 1 843 21
 1481 069c FFF7FEFF 		bl	HAL_GetTick
 1482 06a0 7862     		str	r0, [r7, #36]
 844:Drivers/STM32H7xx_HAL_Driver/Src/stm32h7xx_hal_rcc.c **** 
 845:Drivers/STM32H7xx_HAL_Driver/Src/stm32h7xx_hal_rcc.c ****         /* Wait till PLL is disabled */
 846:Drivers/STM32H7xx_HAL_Driver/Src/stm32h7xx_hal_rcc.c ****         while (__HAL_RCC_GET_FLAG(RCC_FLAG_PLLRDY) != 0U)
 1483              		.loc 1 846 15
 1484 06a2 08E0     		b	.L87
 1485              	.L88:
 847:Drivers/STM32H7xx_HAL_Driver/Src/stm32h7xx_hal_rcc.c ****         {
 848:Drivers/STM32H7xx_HAL_Driver/Src/stm32h7xx_hal_rcc.c ****           if ((HAL_GetTick() - tickstart) > PLL_TIMEOUT_VALUE)
 1486              		.loc 1 848 16
 1487 06a4 FFF7FEFF 		bl	HAL_GetTick
 1488 06a8 0246     		mov	r2, r0
 1489              		.loc 1 848 30 discriminator 1
 1490 06aa 7B6A     		ldr	r3, [r7, #36]
 1491 06ac D31A     		subs	r3, r2, r3
 1492              		.loc 1 848 14 discriminator 1
 1493 06ae 022B     		cmp	r3, #2
 1494 06b0 01D9     		bls	.L87
 849:Drivers/STM32H7xx_HAL_Driver/Src/stm32h7xx_hal_rcc.c ****           {
 850:Drivers/STM32H7xx_HAL_Driver/Src/stm32h7xx_hal_rcc.c ****             return HAL_TIMEOUT;
 1495              		.loc 1 850 20
 1496 06b2 0323     		movs	r3, #3
 1497 06b4 76E0     		b	.L22
 1498              	.L87:
 846:Drivers/STM32H7xx_HAL_Driver/Src/stm32h7xx_hal_rcc.c ****         {
ARM GAS  C:\Users\fffff\AppData\Local\Temp\ccLkBlD6.s 			page 43


 1499              		.loc 1 846 16
 1500 06b6 034B     		ldr	r3, .L97
 1501 06b8 1B68     		ldr	r3, [r3]
 1502 06ba 03F00073 		and	r3, r3, #33554432
 846:Drivers/STM32H7xx_HAL_Driver/Src/stm32h7xx_hal_rcc.c ****         {
 1503              		.loc 1 846 52
 1504 06be 002B     		cmp	r3, #0
 1505 06c0 F0D1     		bne	.L88
 1506 06c2 6EE0     		b	.L80
 1507              	.L98:
 1508              		.align	2
 1509              	.L97:
 1510 06c4 00440258 		.word	1476543488
 1511 06c8 0CFCFFFF 		.word	-1012
 1512 06cc 0700FFFF 		.word	-65529
 1513              	.L81:
 851:Drivers/STM32H7xx_HAL_Driver/Src/stm32h7xx_hal_rcc.c ****           }
 852:Drivers/STM32H7xx_HAL_Driver/Src/stm32h7xx_hal_rcc.c ****         }
 853:Drivers/STM32H7xx_HAL_Driver/Src/stm32h7xx_hal_rcc.c ****       }
 854:Drivers/STM32H7xx_HAL_Driver/Src/stm32h7xx_hal_rcc.c ****     }
 855:Drivers/STM32H7xx_HAL_Driver/Src/stm32h7xx_hal_rcc.c ****     else
 856:Drivers/STM32H7xx_HAL_Driver/Src/stm32h7xx_hal_rcc.c ****     {
 857:Drivers/STM32H7xx_HAL_Driver/Src/stm32h7xx_hal_rcc.c ****       /* Do not return HAL_ERROR if request repeats the current configuration */
 858:Drivers/STM32H7xx_HAL_Driver/Src/stm32h7xx_hal_rcc.c ****       temp1_pllckcfg = RCC->PLLCKSELR;
 1514              		.loc 1 858 27
 1515 06d0 364B     		ldr	r3, .L99
 1516              		.loc 1 858 22
 1517 06d2 9B6A     		ldr	r3, [r3, #40]
 1518 06d4 3B61     		str	r3, [r7, #16]
 859:Drivers/STM32H7xx_HAL_Driver/Src/stm32h7xx_hal_rcc.c ****       temp2_pllckcfg = RCC->PLL1DIVR;
 1519              		.loc 1 859 27
 1520 06d6 354B     		ldr	r3, .L99
 1521              		.loc 1 859 22
 1522 06d8 1B6B     		ldr	r3, [r3, #48]
 1523 06da FB60     		str	r3, [r7, #12]
 860:Drivers/STM32H7xx_HAL_Driver/Src/stm32h7xx_hal_rcc.c ****       if (((RCC_OscInitStruct->PLL.PLLState) == RCC_PLL_OFF) ||
 1524              		.loc 1 860 35
 1525 06dc 7B68     		ldr	r3, [r7, #4]
 1526 06de 5B6A     		ldr	r3, [r3, #36]
 1527              		.loc 1 860 10
 1528 06e0 012B     		cmp	r3, #1
 1529 06e2 31D0     		beq	.L89
 861:Drivers/STM32H7xx_HAL_Driver/Src/stm32h7xx_hal_rcc.c ****           (READ_BIT(temp1_pllckcfg, RCC_PLLCKSELR_PLLSRC) != RCC_OscInitStruct->PLL.PLLSource) ||
 1530              		.loc 1 861 12
 1531 06e4 3B69     		ldr	r3, [r7, #16]
 1532 06e6 03F00302 		and	r2, r3, #3
 1533              		.loc 1 861 84
 1534 06ea 7B68     		ldr	r3, [r7, #4]
 1535 06ec 9B6A     		ldr	r3, [r3, #40]
 860:Drivers/STM32H7xx_HAL_Driver/Src/stm32h7xx_hal_rcc.c ****       if (((RCC_OscInitStruct->PLL.PLLState) == RCC_PLL_OFF) ||
 1536              		.loc 1 860 62 discriminator 1
 1537 06ee 9A42     		cmp	r2, r3
 1538 06f0 2AD1     		bne	.L89
 862:Drivers/STM32H7xx_HAL_Driver/Src/stm32h7xx_hal_rcc.c ****           ((READ_BIT(temp1_pllckcfg, RCC_PLLCKSELR_DIVM1) >> RCC_PLLCKSELR_DIVM1_Pos) != RCC_OscIni
 1539              		.loc 1 862 59
 1540 06f2 3B69     		ldr	r3, [r7, #16]
 1541 06f4 1B09     		lsrs	r3, r3, #4
ARM GAS  C:\Users\fffff\AppData\Local\Temp\ccLkBlD6.s 			page 44


 1542 06f6 03F03F02 		and	r2, r3, #63
 1543              		.loc 1 862 112
 1544 06fa 7B68     		ldr	r3, [r7, #4]
 1545 06fc DB6A     		ldr	r3, [r3, #44]
 861:Drivers/STM32H7xx_HAL_Driver/Src/stm32h7xx_hal_rcc.c ****           (READ_BIT(temp1_pllckcfg, RCC_PLLCKSELR_PLLSRC) != RCC_OscInitStruct->PLL.PLLSource) ||
 1546              		.loc 1 861 96
 1547 06fe 9A42     		cmp	r2, r3
 1548 0700 22D1     		bne	.L89
 863:Drivers/STM32H7xx_HAL_Driver/Src/stm32h7xx_hal_rcc.c ****           (READ_BIT(temp2_pllckcfg, RCC_PLL1DIVR_N1) != (RCC_OscInitStruct->PLL.PLLN - 1U)) ||
 1549              		.loc 1 863 12
 1550 0702 FB68     		ldr	r3, [r7, #12]
 1551 0704 C3F30802 		ubfx	r2, r3, #0, #9
 1552              		.loc 1 863 80
 1553 0708 7B68     		ldr	r3, [r7, #4]
 1554 070a 1B6B     		ldr	r3, [r3, #48]
 1555              		.loc 1 863 86
 1556 070c 013B     		subs	r3, r3, #1
 862:Drivers/STM32H7xx_HAL_Driver/Src/stm32h7xx_hal_rcc.c ****           ((READ_BIT(temp1_pllckcfg, RCC_PLLCKSELR_DIVM1) >> RCC_PLLCKSELR_DIVM1_Pos) != RCC_OscIni
 1557              		.loc 1 862 119
 1558 070e 9A42     		cmp	r2, r3
 1559 0710 1AD1     		bne	.L89
 864:Drivers/STM32H7xx_HAL_Driver/Src/stm32h7xx_hal_rcc.c ****           ((READ_BIT(temp2_pllckcfg, RCC_PLL1DIVR_P1) >> RCC_PLL1DIVR_P1_Pos) != (RCC_OscInitStruct
 1560              		.loc 1 864 55
 1561 0712 FB68     		ldr	r3, [r7, #12]
 1562 0714 5B0A     		lsrs	r3, r3, #9
 1563 0716 03F07F02 		and	r2, r3, #127
 1564              		.loc 1 864 105
 1565 071a 7B68     		ldr	r3, [r7, #4]
 1566 071c 5B6B     		ldr	r3, [r3, #52]
 1567              		.loc 1 864 111
 1568 071e 013B     		subs	r3, r3, #1
 863:Drivers/STM32H7xx_HAL_Driver/Src/stm32h7xx_hal_rcc.c ****           (READ_BIT(temp2_pllckcfg, RCC_PLL1DIVR_N1) != (RCC_OscInitStruct->PLL.PLLN - 1U)) ||
 1569              		.loc 1 863 93
 1570 0720 9A42     		cmp	r2, r3
 1571 0722 11D1     		bne	.L89
 865:Drivers/STM32H7xx_HAL_Driver/Src/stm32h7xx_hal_rcc.c ****           ((READ_BIT(temp2_pllckcfg, RCC_PLL1DIVR_Q1) >> RCC_PLL1DIVR_Q1_Pos) != (RCC_OscInitStruct
 1572              		.loc 1 865 55
 1573 0724 FB68     		ldr	r3, [r7, #12]
 1574 0726 1B0C     		lsrs	r3, r3, #16
 1575 0728 03F07F02 		and	r2, r3, #127
 1576              		.loc 1 865 105
 1577 072c 7B68     		ldr	r3, [r7, #4]
 1578 072e 9B6B     		ldr	r3, [r3, #56]
 1579              		.loc 1 865 111
 1580 0730 013B     		subs	r3, r3, #1
 864:Drivers/STM32H7xx_HAL_Driver/Src/stm32h7xx_hal_rcc.c ****           ((READ_BIT(temp2_pllckcfg, RCC_PLL1DIVR_P1) >> RCC_PLL1DIVR_P1_Pos) != (RCC_OscInitStruct
 1581              		.loc 1 864 118
 1582 0732 9A42     		cmp	r2, r3
 1583 0734 08D1     		bne	.L89
 866:Drivers/STM32H7xx_HAL_Driver/Src/stm32h7xx_hal_rcc.c ****           ((READ_BIT(temp2_pllckcfg, RCC_PLL1DIVR_R1) >> RCC_PLL1DIVR_R1_Pos) != (RCC_OscInitStruct
 1584              		.loc 1 866 55
 1585 0736 FB68     		ldr	r3, [r7, #12]
 1586 0738 1B0E     		lsrs	r3, r3, #24
 1587 073a 03F07F02 		and	r2, r3, #127
 1588              		.loc 1 866 105
 1589 073e 7B68     		ldr	r3, [r7, #4]
 1590 0740 DB6B     		ldr	r3, [r3, #60]
ARM GAS  C:\Users\fffff\AppData\Local\Temp\ccLkBlD6.s 			page 45


 1591              		.loc 1 866 111
 1592 0742 013B     		subs	r3, r3, #1
 865:Drivers/STM32H7xx_HAL_Driver/Src/stm32h7xx_hal_rcc.c ****           ((READ_BIT(temp2_pllckcfg, RCC_PLL1DIVR_Q1) >> RCC_PLL1DIVR_Q1_Pos) != (RCC_OscInitStruct
 1593              		.loc 1 865 118
 1594 0744 9A42     		cmp	r2, r3
 1595 0746 01D0     		beq	.L90
 1596              	.L89:
 867:Drivers/STM32H7xx_HAL_Driver/Src/stm32h7xx_hal_rcc.c ****       {
 868:Drivers/STM32H7xx_HAL_Driver/Src/stm32h7xx_hal_rcc.c ****         return HAL_ERROR;
 1597              		.loc 1 868 16
 1598 0748 0123     		movs	r3, #1
 1599 074a 2BE0     		b	.L22
 1600              	.L90:
 869:Drivers/STM32H7xx_HAL_Driver/Src/stm32h7xx_hal_rcc.c ****       }
 870:Drivers/STM32H7xx_HAL_Driver/Src/stm32h7xx_hal_rcc.c ****       else
 871:Drivers/STM32H7xx_HAL_Driver/Src/stm32h7xx_hal_rcc.c ****       {
 872:Drivers/STM32H7xx_HAL_Driver/Src/stm32h7xx_hal_rcc.c ****         /* Check if only fractional part needs to be updated  */
 873:Drivers/STM32H7xx_HAL_Driver/Src/stm32h7xx_hal_rcc.c ****         temp1_pllckcfg = ((RCC->PLL1FRACR & RCC_PLL1FRACR_FRACN1) >> RCC_PLL1FRACR_FRACN1_Pos);
 1601              		.loc 1 873 31
 1602 074c 174B     		ldr	r3, .L99
 1603 074e 5B6B     		ldr	r3, [r3, #52]
 1604              		.loc 1 873 67
 1605 0750 DB08     		lsrs	r3, r3, #3
 1606              		.loc 1 873 24
 1607 0752 C3F30C03 		ubfx	r3, r3, #0, #13
 1608 0756 3B61     		str	r3, [r7, #16]
 874:Drivers/STM32H7xx_HAL_Driver/Src/stm32h7xx_hal_rcc.c ****         if (RCC_OscInitStruct->PLL.PLLFRACN != temp1_pllckcfg)
 1609              		.loc 1 874 35
 1610 0758 7B68     		ldr	r3, [r7, #4]
 1611 075a 9B6C     		ldr	r3, [r3, #72]
 1612              		.loc 1 874 12
 1613 075c 3A69     		ldr	r2, [r7, #16]
 1614 075e 9A42     		cmp	r2, r3
 1615 0760 1FD0     		beq	.L80
 875:Drivers/STM32H7xx_HAL_Driver/Src/stm32h7xx_hal_rcc.c ****         {
 876:Drivers/STM32H7xx_HAL_Driver/Src/stm32h7xx_hal_rcc.c ****           assert_param(IS_RCC_PLLFRACN_VALUE(RCC_OscInitStruct->PLL.PLLFRACN));
 877:Drivers/STM32H7xx_HAL_Driver/Src/stm32h7xx_hal_rcc.c ****           /* Disable PLL1FRACEN */
 878:Drivers/STM32H7xx_HAL_Driver/Src/stm32h7xx_hal_rcc.c ****           __HAL_RCC_PLLFRACN_DISABLE();
 1616              		.loc 1 878 11
 1617 0762 124B     		ldr	r3, .L99
 1618 0764 DB6A     		ldr	r3, [r3, #44]
 1619 0766 114A     		ldr	r2, .L99
 1620 0768 23F00103 		bic	r3, r3, #1
 1621 076c D362     		str	r3, [r2, #44]
 879:Drivers/STM32H7xx_HAL_Driver/Src/stm32h7xx_hal_rcc.c ****           /* Get Start Tick*/
 880:Drivers/STM32H7xx_HAL_Driver/Src/stm32h7xx_hal_rcc.c ****           tickstart = HAL_GetTick();
 1622              		.loc 1 880 23
 1623 076e FFF7FEFF 		bl	HAL_GetTick
 1624 0772 7862     		str	r0, [r7, #36]
 881:Drivers/STM32H7xx_HAL_Driver/Src/stm32h7xx_hal_rcc.c ****           /* Wait at least 2 CK_REF (PLL input source divided by M) period to make sure next latche
 882:Drivers/STM32H7xx_HAL_Driver/Src/stm32h7xx_hal_rcc.c ****           while ((HAL_GetTick() - tickstart) < PLL_FRAC_TIMEOUT_VALUE)
 1625              		.loc 1 882 17
 1626 0774 00BF     		nop
 1627              	.L91:
 1628              		.loc 1 882 19 discriminator 1
 1629 0776 FFF7FEFF 		bl	HAL_GetTick
 1630 077a 0246     		mov	r2, r0
ARM GAS  C:\Users\fffff\AppData\Local\Temp\ccLkBlD6.s 			page 46


 1631              		.loc 1 882 46 discriminator 1
 1632 077c 7B6A     		ldr	r3, [r7, #36]
 1633 077e 9342     		cmp	r3, r2
 1634 0780 F9D0     		beq	.L91
 883:Drivers/STM32H7xx_HAL_Driver/Src/stm32h7xx_hal_rcc.c ****           {
 884:Drivers/STM32H7xx_HAL_Driver/Src/stm32h7xx_hal_rcc.c ****           }
 885:Drivers/STM32H7xx_HAL_Driver/Src/stm32h7xx_hal_rcc.c ****           /* Configure PLL1 PLL1FRACN */
 886:Drivers/STM32H7xx_HAL_Driver/Src/stm32h7xx_hal_rcc.c ****           __HAL_RCC_PLLFRACN_CONFIG(RCC_OscInitStruct->PLL.PLLFRACN);
 1635              		.loc 1 886 11
 1636 0782 0A4B     		ldr	r3, .L99
 1637 0784 5A6B     		ldr	r2, [r3, #52]
 1638 0786 0A4B     		ldr	r3, .L99+4
 1639 0788 1340     		ands	r3, r3, r2
 1640 078a 7A68     		ldr	r2, [r7, #4]
 1641 078c 926C     		ldr	r2, [r2, #72]
 1642 078e D200     		lsls	r2, r2, #3
 1643 0790 0649     		ldr	r1, .L99
 1644 0792 1343     		orrs	r3, r3, r2
 1645 0794 4B63     		str	r3, [r1, #52]
 887:Drivers/STM32H7xx_HAL_Driver/Src/stm32h7xx_hal_rcc.c ****           /* Enable PLL1FRACEN to latch new value. */
 888:Drivers/STM32H7xx_HAL_Driver/Src/stm32h7xx_hal_rcc.c ****           __HAL_RCC_PLLFRACN_ENABLE();
 1646              		.loc 1 888 11
 1647 0796 054B     		ldr	r3, .L99
 1648 0798 DB6A     		ldr	r3, [r3, #44]
 1649 079a 044A     		ldr	r2, .L99
 1650 079c 43F00103 		orr	r3, r3, #1
 1651 07a0 D362     		str	r3, [r2, #44]
 1652              	.L80:
 889:Drivers/STM32H7xx_HAL_Driver/Src/stm32h7xx_hal_rcc.c ****         }
 890:Drivers/STM32H7xx_HAL_Driver/Src/stm32h7xx_hal_rcc.c ****       }
 891:Drivers/STM32H7xx_HAL_Driver/Src/stm32h7xx_hal_rcc.c ****     }
 892:Drivers/STM32H7xx_HAL_Driver/Src/stm32h7xx_hal_rcc.c ****   }
 893:Drivers/STM32H7xx_HAL_Driver/Src/stm32h7xx_hal_rcc.c ****   return HAL_OK;
 1653              		.loc 1 893 10
 1654 07a2 0023     		movs	r3, #0
 1655              	.L22:
 894:Drivers/STM32H7xx_HAL_Driver/Src/stm32h7xx_hal_rcc.c **** }
 1656              		.loc 1 894 1
 1657 07a4 1846     		mov	r0, r3
 1658 07a6 3037     		adds	r7, r7, #48
 1659              	.LCFI8:
 1660              		.cfi_def_cfa_offset 8
 1661 07a8 BD46     		mov	sp, r7
 1662              	.LCFI9:
 1663              		.cfi_def_cfa_register 13
 1664              		@ sp needed
 1665 07aa 80BD     		pop	{r7, pc}
 1666              	.L100:
 1667              		.align	2
 1668              	.L99:
 1669 07ac 00440258 		.word	1476543488
 1670 07b0 0700FFFF 		.word	-65529
 1671              		.cfi_endproc
 1672              	.LFE145:
 1674              		.section	.text.HAL_RCC_ClockConfig,"ax",%progbits
 1675              		.align	1
 1676              		.global	HAL_RCC_ClockConfig
ARM GAS  C:\Users\fffff\AppData\Local\Temp\ccLkBlD6.s 			page 47


 1677              		.syntax unified
 1678              		.thumb
 1679              		.thumb_func
 1681              	HAL_RCC_ClockConfig:
 1682              	.LFB146:
 895:Drivers/STM32H7xx_HAL_Driver/Src/stm32h7xx_hal_rcc.c **** 
 896:Drivers/STM32H7xx_HAL_Driver/Src/stm32h7xx_hal_rcc.c **** /**
 897:Drivers/STM32H7xx_HAL_Driver/Src/stm32h7xx_hal_rcc.c ****   * @brief  Initializes the CPU, AHB and APB buses clocks according to the specified
 898:Drivers/STM32H7xx_HAL_Driver/Src/stm32h7xx_hal_rcc.c ****   *         parameters in the RCC_ClkInitStruct.
 899:Drivers/STM32H7xx_HAL_Driver/Src/stm32h7xx_hal_rcc.c ****   * @param  RCC_ClkInitStruct: pointer to an RCC_OscInitTypeDef structure that
 900:Drivers/STM32H7xx_HAL_Driver/Src/stm32h7xx_hal_rcc.c ****   *         contains the configuration information for the RCC peripheral.
 901:Drivers/STM32H7xx_HAL_Driver/Src/stm32h7xx_hal_rcc.c ****   * @param  FLatency: FLASH Latency, this parameter depend on device selected
 902:Drivers/STM32H7xx_HAL_Driver/Src/stm32h7xx_hal_rcc.c ****   *
 903:Drivers/STM32H7xx_HAL_Driver/Src/stm32h7xx_hal_rcc.c ****   * @note   The SystemCoreClock CMSIS variable is used to store System Core Clock Frequency
 904:Drivers/STM32H7xx_HAL_Driver/Src/stm32h7xx_hal_rcc.c ****   *         and updated by HAL_InitTick() function called within this function
 905:Drivers/STM32H7xx_HAL_Driver/Src/stm32h7xx_hal_rcc.c ****   *
 906:Drivers/STM32H7xx_HAL_Driver/Src/stm32h7xx_hal_rcc.c ****   * @note   The HSI is used (enabled by hardware) as system clock source after
 907:Drivers/STM32H7xx_HAL_Driver/Src/stm32h7xx_hal_rcc.c ****   *         start-up from Reset, wake-up from STOP and STANDBY mode, or in case
 908:Drivers/STM32H7xx_HAL_Driver/Src/stm32h7xx_hal_rcc.c ****   *         of failure of the HSE used directly or indirectly as system clock
 909:Drivers/STM32H7xx_HAL_Driver/Src/stm32h7xx_hal_rcc.c ****   *         (if the Clock Security System CSS is enabled).
 910:Drivers/STM32H7xx_HAL_Driver/Src/stm32h7xx_hal_rcc.c ****   *
 911:Drivers/STM32H7xx_HAL_Driver/Src/stm32h7xx_hal_rcc.c ****   * @note   A switch from one clock source to another occurs only if the target
 912:Drivers/STM32H7xx_HAL_Driver/Src/stm32h7xx_hal_rcc.c ****   *         clock source is ready (clock stable after start-up delay or PLL locked).
 913:Drivers/STM32H7xx_HAL_Driver/Src/stm32h7xx_hal_rcc.c ****   *         If a clock source which is not yet ready is selected, the switch will
 914:Drivers/STM32H7xx_HAL_Driver/Src/stm32h7xx_hal_rcc.c ****   *         occur when the clock source will be ready.
 915:Drivers/STM32H7xx_HAL_Driver/Src/stm32h7xx_hal_rcc.c ****   *         You can use HAL_RCC_GetClockConfig() function to know which clock is
 916:Drivers/STM32H7xx_HAL_Driver/Src/stm32h7xx_hal_rcc.c ****   *         currently used as system clock source.
 917:Drivers/STM32H7xx_HAL_Driver/Src/stm32h7xx_hal_rcc.c ****   * @note   Depending on the device voltage range, the software has to set correctly
 918:Drivers/STM32H7xx_HAL_Driver/Src/stm32h7xx_hal_rcc.c ****   *         D1CPRE[3:0] bits to ensure that  Domain1 core clock not exceed the maximum allowed freq
 919:Drivers/STM32H7xx_HAL_Driver/Src/stm32h7xx_hal_rcc.c ****   *         (for more details refer to section above "Initialization/de-initialization functions")
 920:Drivers/STM32H7xx_HAL_Driver/Src/stm32h7xx_hal_rcc.c ****   * @retval None
 921:Drivers/STM32H7xx_HAL_Driver/Src/stm32h7xx_hal_rcc.c ****   */
 922:Drivers/STM32H7xx_HAL_Driver/Src/stm32h7xx_hal_rcc.c **** HAL_StatusTypeDef HAL_RCC_ClockConfig(const RCC_ClkInitTypeDef  *RCC_ClkInitStruct, uint32_t FLaten
 923:Drivers/STM32H7xx_HAL_Driver/Src/stm32h7xx_hal_rcc.c **** {
 1683              		.loc 1 923 1
 1684              		.cfi_startproc
 1685              		@ args = 0, pretend = 0, frame = 24
 1686              		@ frame_needed = 1, uses_anonymous_args = 0
 1687 0000 80B5     		push	{r7, lr}
 1688              	.LCFI10:
 1689              		.cfi_def_cfa_offset 8
 1690              		.cfi_offset 7, -8
 1691              		.cfi_offset 14, -4
 1692 0002 86B0     		sub	sp, sp, #24
 1693              	.LCFI11:
 1694              		.cfi_def_cfa_offset 32
 1695 0004 00AF     		add	r7, sp, #0
 1696              	.LCFI12:
 1697              		.cfi_def_cfa_register 7
 1698 0006 7860     		str	r0, [r7, #4]
 1699 0008 3960     		str	r1, [r7]
 924:Drivers/STM32H7xx_HAL_Driver/Src/stm32h7xx_hal_rcc.c ****   HAL_StatusTypeDef halstatus;
 925:Drivers/STM32H7xx_HAL_Driver/Src/stm32h7xx_hal_rcc.c ****   uint32_t tickstart;
 926:Drivers/STM32H7xx_HAL_Driver/Src/stm32h7xx_hal_rcc.c ****   uint32_t common_system_clock;
 927:Drivers/STM32H7xx_HAL_Driver/Src/stm32h7xx_hal_rcc.c **** 
 928:Drivers/STM32H7xx_HAL_Driver/Src/stm32h7xx_hal_rcc.c ****   /* Check Null pointer */
 929:Drivers/STM32H7xx_HAL_Driver/Src/stm32h7xx_hal_rcc.c ****   if (RCC_ClkInitStruct == NULL)
ARM GAS  C:\Users\fffff\AppData\Local\Temp\ccLkBlD6.s 			page 48


 1700              		.loc 1 929 6
 1701 000a 7B68     		ldr	r3, [r7, #4]
 1702 000c 002B     		cmp	r3, #0
 1703 000e 01D1     		bne	.L102
 930:Drivers/STM32H7xx_HAL_Driver/Src/stm32h7xx_hal_rcc.c ****   {
 931:Drivers/STM32H7xx_HAL_Driver/Src/stm32h7xx_hal_rcc.c ****     return HAL_ERROR;
 1704              		.loc 1 931 12
 1705 0010 0123     		movs	r3, #1
 1706 0012 9CE1     		b	.L103
 1707              	.L102:
 932:Drivers/STM32H7xx_HAL_Driver/Src/stm32h7xx_hal_rcc.c ****   }
 933:Drivers/STM32H7xx_HAL_Driver/Src/stm32h7xx_hal_rcc.c **** 
 934:Drivers/STM32H7xx_HAL_Driver/Src/stm32h7xx_hal_rcc.c ****   /* Check the parameters */
 935:Drivers/STM32H7xx_HAL_Driver/Src/stm32h7xx_hal_rcc.c ****   assert_param(IS_RCC_CLOCKTYPE(RCC_ClkInitStruct->ClockType));
 936:Drivers/STM32H7xx_HAL_Driver/Src/stm32h7xx_hal_rcc.c ****   assert_param(IS_FLASH_LATENCY(FLatency));
 937:Drivers/STM32H7xx_HAL_Driver/Src/stm32h7xx_hal_rcc.c **** 
 938:Drivers/STM32H7xx_HAL_Driver/Src/stm32h7xx_hal_rcc.c ****   /* To correctly read data from FLASH memory, the number of wait states (LATENCY)
 939:Drivers/STM32H7xx_HAL_Driver/Src/stm32h7xx_hal_rcc.c ****     must be correctly programmed according to the frequency of the CPU clock
 940:Drivers/STM32H7xx_HAL_Driver/Src/stm32h7xx_hal_rcc.c ****     (HCLK) and the supply voltage of the device. */
 941:Drivers/STM32H7xx_HAL_Driver/Src/stm32h7xx_hal_rcc.c **** 
 942:Drivers/STM32H7xx_HAL_Driver/Src/stm32h7xx_hal_rcc.c ****   /* Increasing the CPU frequency */
 943:Drivers/STM32H7xx_HAL_Driver/Src/stm32h7xx_hal_rcc.c ****   if (FLatency > __HAL_FLASH_GET_LATENCY())
 1708              		.loc 1 943 18
 1709 0014 8A4B     		ldr	r3, .L123
 1710 0016 1B68     		ldr	r3, [r3]
 1711 0018 03F00F03 		and	r3, r3, #15
 1712              		.loc 1 943 6
 1713 001c 3A68     		ldr	r2, [r7]
 1714 001e 9A42     		cmp	r2, r3
 1715 0020 10D9     		bls	.L104
 944:Drivers/STM32H7xx_HAL_Driver/Src/stm32h7xx_hal_rcc.c ****   {
 945:Drivers/STM32H7xx_HAL_Driver/Src/stm32h7xx_hal_rcc.c ****     /* Program the new number of wait states to the LATENCY bits in the FLASH_ACR register */
 946:Drivers/STM32H7xx_HAL_Driver/Src/stm32h7xx_hal_rcc.c ****     __HAL_FLASH_SET_LATENCY(FLatency);
 1716              		.loc 1 946 5
 1717 0022 874B     		ldr	r3, .L123
 1718 0024 1B68     		ldr	r3, [r3]
 1719 0026 23F00F02 		bic	r2, r3, #15
 1720 002a 8549     		ldr	r1, .L123
 1721 002c 3B68     		ldr	r3, [r7]
 1722 002e 1343     		orrs	r3, r3, r2
 1723 0030 0B60     		str	r3, [r1]
 947:Drivers/STM32H7xx_HAL_Driver/Src/stm32h7xx_hal_rcc.c **** 
 948:Drivers/STM32H7xx_HAL_Driver/Src/stm32h7xx_hal_rcc.c ****     /* Check that the new number of wait states is taken into account to access the Flash
 949:Drivers/STM32H7xx_HAL_Driver/Src/stm32h7xx_hal_rcc.c ****     memory by reading the FLASH_ACR register */
 950:Drivers/STM32H7xx_HAL_Driver/Src/stm32h7xx_hal_rcc.c ****     if (__HAL_FLASH_GET_LATENCY() != FLatency)
 1724              		.loc 1 950 9
 1725 0032 834B     		ldr	r3, .L123
 1726 0034 1B68     		ldr	r3, [r3]
 1727 0036 03F00F03 		and	r3, r3, #15
 1728              		.loc 1 950 8
 1729 003a 3A68     		ldr	r2, [r7]
 1730 003c 9A42     		cmp	r2, r3
 1731 003e 01D0     		beq	.L104
 951:Drivers/STM32H7xx_HAL_Driver/Src/stm32h7xx_hal_rcc.c ****     {
 952:Drivers/STM32H7xx_HAL_Driver/Src/stm32h7xx_hal_rcc.c ****       return HAL_ERROR;
 1732              		.loc 1 952 14
 1733 0040 0123     		movs	r3, #1
ARM GAS  C:\Users\fffff\AppData\Local\Temp\ccLkBlD6.s 			page 49


 1734 0042 84E1     		b	.L103
 1735              	.L104:
 953:Drivers/STM32H7xx_HAL_Driver/Src/stm32h7xx_hal_rcc.c ****     }
 954:Drivers/STM32H7xx_HAL_Driver/Src/stm32h7xx_hal_rcc.c **** 
 955:Drivers/STM32H7xx_HAL_Driver/Src/stm32h7xx_hal_rcc.c ****   }
 956:Drivers/STM32H7xx_HAL_Driver/Src/stm32h7xx_hal_rcc.c **** 
 957:Drivers/STM32H7xx_HAL_Driver/Src/stm32h7xx_hal_rcc.c ****   /* Increasing the BUS frequency divider */
 958:Drivers/STM32H7xx_HAL_Driver/Src/stm32h7xx_hal_rcc.c ****   /*-------------------------- D1PCLK1/CDPCLK1 Configuration ---------------------------*/
 959:Drivers/STM32H7xx_HAL_Driver/Src/stm32h7xx_hal_rcc.c ****   if (((RCC_ClkInitStruct->ClockType) & RCC_CLOCKTYPE_D1PCLK1) == RCC_CLOCKTYPE_D1PCLK1)
 1736              		.loc 1 959 26
 1737 0044 7B68     		ldr	r3, [r7, #4]
 1738 0046 1B68     		ldr	r3, [r3]
 1739              		.loc 1 959 39
 1740 0048 03F00403 		and	r3, r3, #4
 1741              		.loc 1 959 6
 1742 004c 002B     		cmp	r3, #0
 1743 004e 10D0     		beq	.L105
 960:Drivers/STM32H7xx_HAL_Driver/Src/stm32h7xx_hal_rcc.c ****   {
 961:Drivers/STM32H7xx_HAL_Driver/Src/stm32h7xx_hal_rcc.c **** #if defined (RCC_D1CFGR_D1PPRE)
 962:Drivers/STM32H7xx_HAL_Driver/Src/stm32h7xx_hal_rcc.c ****     if ((RCC_ClkInitStruct->APB3CLKDivider) > (RCC->D1CFGR & RCC_D1CFGR_D1PPRE))
 1744              		.loc 1 962 27
 1745 0050 7B68     		ldr	r3, [r7, #4]
 1746 0052 1A69     		ldr	r2, [r3, #16]
 1747              		.loc 1 962 51
 1748 0054 7B4B     		ldr	r3, .L123+4
 1749 0056 9B69     		ldr	r3, [r3, #24]
 1750              		.loc 1 962 60
 1751 0058 03F07003 		and	r3, r3, #112
 1752              		.loc 1 962 8
 1753 005c 9A42     		cmp	r2, r3
 1754 005e 08D9     		bls	.L105
 963:Drivers/STM32H7xx_HAL_Driver/Src/stm32h7xx_hal_rcc.c ****     {
 964:Drivers/STM32H7xx_HAL_Driver/Src/stm32h7xx_hal_rcc.c ****       assert_param(IS_RCC_D1PCLK1(RCC_ClkInitStruct->APB3CLKDivider));
 965:Drivers/STM32H7xx_HAL_Driver/Src/stm32h7xx_hal_rcc.c ****       MODIFY_REG(RCC->D1CFGR, RCC_D1CFGR_D1PPRE, RCC_ClkInitStruct->APB3CLKDivider);
 1755              		.loc 1 965 7
 1756 0060 784B     		ldr	r3, .L123+4
 1757 0062 9B69     		ldr	r3, [r3, #24]
 1758 0064 23F07002 		bic	r2, r3, #112
 1759 0068 7B68     		ldr	r3, [r7, #4]
 1760 006a 1B69     		ldr	r3, [r3, #16]
 1761 006c 7549     		ldr	r1, .L123+4
 1762 006e 1343     		orrs	r3, r3, r2
 1763 0070 8B61     		str	r3, [r1, #24]
 1764              	.L105:
 966:Drivers/STM32H7xx_HAL_Driver/Src/stm32h7xx_hal_rcc.c ****     }
 967:Drivers/STM32H7xx_HAL_Driver/Src/stm32h7xx_hal_rcc.c **** #else
 968:Drivers/STM32H7xx_HAL_Driver/Src/stm32h7xx_hal_rcc.c ****     if ((RCC_ClkInitStruct->APB3CLKDivider) > (RCC->CDCFGR1 & RCC_CDCFGR1_CDPPRE))
 969:Drivers/STM32H7xx_HAL_Driver/Src/stm32h7xx_hal_rcc.c ****     {
 970:Drivers/STM32H7xx_HAL_Driver/Src/stm32h7xx_hal_rcc.c ****       assert_param(IS_RCC_CDPCLK1(RCC_ClkInitStruct->APB3CLKDivider));
 971:Drivers/STM32H7xx_HAL_Driver/Src/stm32h7xx_hal_rcc.c ****       MODIFY_REG(RCC->CDCFGR1, RCC_CDCFGR1_CDPPRE, RCC_ClkInitStruct->APB3CLKDivider);
 972:Drivers/STM32H7xx_HAL_Driver/Src/stm32h7xx_hal_rcc.c ****     }
 973:Drivers/STM32H7xx_HAL_Driver/Src/stm32h7xx_hal_rcc.c **** #endif
 974:Drivers/STM32H7xx_HAL_Driver/Src/stm32h7xx_hal_rcc.c ****   }
 975:Drivers/STM32H7xx_HAL_Driver/Src/stm32h7xx_hal_rcc.c **** 
 976:Drivers/STM32H7xx_HAL_Driver/Src/stm32h7xx_hal_rcc.c ****   /*-------------------------- PCLK1 Configuration ---------------------------*/
 977:Drivers/STM32H7xx_HAL_Driver/Src/stm32h7xx_hal_rcc.c ****   if (((RCC_ClkInitStruct->ClockType) & RCC_CLOCKTYPE_PCLK1) == RCC_CLOCKTYPE_PCLK1)
 1765              		.loc 1 977 26
ARM GAS  C:\Users\fffff\AppData\Local\Temp\ccLkBlD6.s 			page 50


 1766 0072 7B68     		ldr	r3, [r7, #4]
 1767 0074 1B68     		ldr	r3, [r3]
 1768              		.loc 1 977 39
 1769 0076 03F00803 		and	r3, r3, #8
 1770              		.loc 1 977 6
 1771 007a 002B     		cmp	r3, #0
 1772 007c 10D0     		beq	.L106
 978:Drivers/STM32H7xx_HAL_Driver/Src/stm32h7xx_hal_rcc.c ****   {
 979:Drivers/STM32H7xx_HAL_Driver/Src/stm32h7xx_hal_rcc.c **** #if defined (RCC_D2CFGR_D2PPRE1)
 980:Drivers/STM32H7xx_HAL_Driver/Src/stm32h7xx_hal_rcc.c ****     if ((RCC_ClkInitStruct->APB1CLKDivider) > (RCC->D2CFGR & RCC_D2CFGR_D2PPRE1))
 1773              		.loc 1 980 27
 1774 007e 7B68     		ldr	r3, [r7, #4]
 1775 0080 5A69     		ldr	r2, [r3, #20]
 1776              		.loc 1 980 51
 1777 0082 704B     		ldr	r3, .L123+4
 1778 0084 DB69     		ldr	r3, [r3, #28]
 1779              		.loc 1 980 60
 1780 0086 03F07003 		and	r3, r3, #112
 1781              		.loc 1 980 8
 1782 008a 9A42     		cmp	r2, r3
 1783 008c 08D9     		bls	.L106
 981:Drivers/STM32H7xx_HAL_Driver/Src/stm32h7xx_hal_rcc.c ****     {
 982:Drivers/STM32H7xx_HAL_Driver/Src/stm32h7xx_hal_rcc.c ****       assert_param(IS_RCC_PCLK1(RCC_ClkInitStruct->APB1CLKDivider));
 983:Drivers/STM32H7xx_HAL_Driver/Src/stm32h7xx_hal_rcc.c ****       MODIFY_REG(RCC->D2CFGR, RCC_D2CFGR_D2PPRE1, (RCC_ClkInitStruct->APB1CLKDivider));
 1784              		.loc 1 983 7
 1785 008e 6D4B     		ldr	r3, .L123+4
 1786 0090 DB69     		ldr	r3, [r3, #28]
 1787 0092 23F07002 		bic	r2, r3, #112
 1788 0096 7B68     		ldr	r3, [r7, #4]
 1789 0098 5B69     		ldr	r3, [r3, #20]
 1790 009a 6A49     		ldr	r1, .L123+4
 1791 009c 1343     		orrs	r3, r3, r2
 1792 009e CB61     		str	r3, [r1, #28]
 1793              	.L106:
 984:Drivers/STM32H7xx_HAL_Driver/Src/stm32h7xx_hal_rcc.c ****     }
 985:Drivers/STM32H7xx_HAL_Driver/Src/stm32h7xx_hal_rcc.c **** #else
 986:Drivers/STM32H7xx_HAL_Driver/Src/stm32h7xx_hal_rcc.c ****     if ((RCC_ClkInitStruct->APB1CLKDivider) > (RCC->CDCFGR2 & RCC_CDCFGR2_CDPPRE1))
 987:Drivers/STM32H7xx_HAL_Driver/Src/stm32h7xx_hal_rcc.c ****     {
 988:Drivers/STM32H7xx_HAL_Driver/Src/stm32h7xx_hal_rcc.c ****       assert_param(IS_RCC_PCLK1(RCC_ClkInitStruct->APB1CLKDivider));
 989:Drivers/STM32H7xx_HAL_Driver/Src/stm32h7xx_hal_rcc.c ****       MODIFY_REG(RCC->CDCFGR2, RCC_CDCFGR2_CDPPRE1, (RCC_ClkInitStruct->APB1CLKDivider));
 990:Drivers/STM32H7xx_HAL_Driver/Src/stm32h7xx_hal_rcc.c ****     }
 991:Drivers/STM32H7xx_HAL_Driver/Src/stm32h7xx_hal_rcc.c **** #endif
 992:Drivers/STM32H7xx_HAL_Driver/Src/stm32h7xx_hal_rcc.c ****   }
 993:Drivers/STM32H7xx_HAL_Driver/Src/stm32h7xx_hal_rcc.c ****   /*-------------------------- PCLK2 Configuration ---------------------------*/
 994:Drivers/STM32H7xx_HAL_Driver/Src/stm32h7xx_hal_rcc.c ****   if (((RCC_ClkInitStruct->ClockType) & RCC_CLOCKTYPE_PCLK2) == RCC_CLOCKTYPE_PCLK2)
 1794              		.loc 1 994 26
 1795 00a0 7B68     		ldr	r3, [r7, #4]
 1796 00a2 1B68     		ldr	r3, [r3]
 1797              		.loc 1 994 39
 1798 00a4 03F01003 		and	r3, r3, #16
 1799              		.loc 1 994 6
 1800 00a8 002B     		cmp	r3, #0
 1801 00aa 10D0     		beq	.L107
 995:Drivers/STM32H7xx_HAL_Driver/Src/stm32h7xx_hal_rcc.c ****   {
 996:Drivers/STM32H7xx_HAL_Driver/Src/stm32h7xx_hal_rcc.c **** #if defined(RCC_D2CFGR_D2PPRE2)
 997:Drivers/STM32H7xx_HAL_Driver/Src/stm32h7xx_hal_rcc.c ****     if ((RCC_ClkInitStruct->APB2CLKDivider) > (RCC->D2CFGR & RCC_D2CFGR_D2PPRE2))
 1802              		.loc 1 997 27
ARM GAS  C:\Users\fffff\AppData\Local\Temp\ccLkBlD6.s 			page 51


 1803 00ac 7B68     		ldr	r3, [r7, #4]
 1804 00ae 9A69     		ldr	r2, [r3, #24]
 1805              		.loc 1 997 51
 1806 00b0 644B     		ldr	r3, .L123+4
 1807 00b2 DB69     		ldr	r3, [r3, #28]
 1808              		.loc 1 997 60
 1809 00b4 03F4E063 		and	r3, r3, #1792
 1810              		.loc 1 997 8
 1811 00b8 9A42     		cmp	r2, r3
 1812 00ba 08D9     		bls	.L107
 998:Drivers/STM32H7xx_HAL_Driver/Src/stm32h7xx_hal_rcc.c ****     {
 999:Drivers/STM32H7xx_HAL_Driver/Src/stm32h7xx_hal_rcc.c ****       assert_param(IS_RCC_PCLK2(RCC_ClkInitStruct->APB2CLKDivider));
1000:Drivers/STM32H7xx_HAL_Driver/Src/stm32h7xx_hal_rcc.c ****       MODIFY_REG(RCC->D2CFGR, RCC_D2CFGR_D2PPRE2, (RCC_ClkInitStruct->APB2CLKDivider));
 1813              		.loc 1 1000 7
 1814 00bc 614B     		ldr	r3, .L123+4
 1815 00be DB69     		ldr	r3, [r3, #28]
 1816 00c0 23F4E062 		bic	r2, r3, #1792
 1817 00c4 7B68     		ldr	r3, [r7, #4]
 1818 00c6 9B69     		ldr	r3, [r3, #24]
 1819 00c8 5E49     		ldr	r1, .L123+4
 1820 00ca 1343     		orrs	r3, r3, r2
 1821 00cc CB61     		str	r3, [r1, #28]
 1822              	.L107:
1001:Drivers/STM32H7xx_HAL_Driver/Src/stm32h7xx_hal_rcc.c ****     }
1002:Drivers/STM32H7xx_HAL_Driver/Src/stm32h7xx_hal_rcc.c **** #else
1003:Drivers/STM32H7xx_HAL_Driver/Src/stm32h7xx_hal_rcc.c ****     if ((RCC_ClkInitStruct->APB2CLKDivider) > (RCC->CDCFGR2 & RCC_CDCFGR2_CDPPRE2))
1004:Drivers/STM32H7xx_HAL_Driver/Src/stm32h7xx_hal_rcc.c ****     {
1005:Drivers/STM32H7xx_HAL_Driver/Src/stm32h7xx_hal_rcc.c ****       assert_param(IS_RCC_PCLK2(RCC_ClkInitStruct->APB2CLKDivider));
1006:Drivers/STM32H7xx_HAL_Driver/Src/stm32h7xx_hal_rcc.c ****       MODIFY_REG(RCC->CDCFGR2, RCC_CDCFGR2_CDPPRE2, (RCC_ClkInitStruct->APB2CLKDivider));
1007:Drivers/STM32H7xx_HAL_Driver/Src/stm32h7xx_hal_rcc.c ****     }
1008:Drivers/STM32H7xx_HAL_Driver/Src/stm32h7xx_hal_rcc.c **** #endif
1009:Drivers/STM32H7xx_HAL_Driver/Src/stm32h7xx_hal_rcc.c ****   }
1010:Drivers/STM32H7xx_HAL_Driver/Src/stm32h7xx_hal_rcc.c **** 
1011:Drivers/STM32H7xx_HAL_Driver/Src/stm32h7xx_hal_rcc.c ****   /*-------------------------- D3PCLK1 Configuration ---------------------------*/
1012:Drivers/STM32H7xx_HAL_Driver/Src/stm32h7xx_hal_rcc.c ****   if (((RCC_ClkInitStruct->ClockType) & RCC_CLOCKTYPE_D3PCLK1) == RCC_CLOCKTYPE_D3PCLK1)
 1823              		.loc 1 1012 26
 1824 00ce 7B68     		ldr	r3, [r7, #4]
 1825 00d0 1B68     		ldr	r3, [r3]
 1826              		.loc 1 1012 39
 1827 00d2 03F02003 		and	r3, r3, #32
 1828              		.loc 1 1012 6
 1829 00d6 002B     		cmp	r3, #0
 1830 00d8 10D0     		beq	.L108
1013:Drivers/STM32H7xx_HAL_Driver/Src/stm32h7xx_hal_rcc.c ****   {
1014:Drivers/STM32H7xx_HAL_Driver/Src/stm32h7xx_hal_rcc.c **** #if defined(RCC_D3CFGR_D3PPRE)
1015:Drivers/STM32H7xx_HAL_Driver/Src/stm32h7xx_hal_rcc.c ****     if ((RCC_ClkInitStruct->APB4CLKDivider) > (RCC->D3CFGR & RCC_D3CFGR_D3PPRE))
 1831              		.loc 1 1015 27
 1832 00da 7B68     		ldr	r3, [r7, #4]
 1833 00dc DA69     		ldr	r2, [r3, #28]
 1834              		.loc 1 1015 51
 1835 00de 594B     		ldr	r3, .L123+4
 1836 00e0 1B6A     		ldr	r3, [r3, #32]
 1837              		.loc 1 1015 60
 1838 00e2 03F07003 		and	r3, r3, #112
 1839              		.loc 1 1015 8
 1840 00e6 9A42     		cmp	r2, r3
 1841 00e8 08D9     		bls	.L108
ARM GAS  C:\Users\fffff\AppData\Local\Temp\ccLkBlD6.s 			page 52


1016:Drivers/STM32H7xx_HAL_Driver/Src/stm32h7xx_hal_rcc.c ****     {
1017:Drivers/STM32H7xx_HAL_Driver/Src/stm32h7xx_hal_rcc.c ****       assert_param(IS_RCC_D3PCLK1(RCC_ClkInitStruct->APB4CLKDivider));
1018:Drivers/STM32H7xx_HAL_Driver/Src/stm32h7xx_hal_rcc.c ****       MODIFY_REG(RCC->D3CFGR, RCC_D3CFGR_D3PPRE, (RCC_ClkInitStruct->APB4CLKDivider));
 1842              		.loc 1 1018 7
 1843 00ea 564B     		ldr	r3, .L123+4
 1844 00ec 1B6A     		ldr	r3, [r3, #32]
 1845 00ee 23F07002 		bic	r2, r3, #112
 1846 00f2 7B68     		ldr	r3, [r7, #4]
 1847 00f4 DB69     		ldr	r3, [r3, #28]
 1848 00f6 5349     		ldr	r1, .L123+4
 1849 00f8 1343     		orrs	r3, r3, r2
 1850 00fa 0B62     		str	r3, [r1, #32]
 1851              	.L108:
1019:Drivers/STM32H7xx_HAL_Driver/Src/stm32h7xx_hal_rcc.c ****     }
1020:Drivers/STM32H7xx_HAL_Driver/Src/stm32h7xx_hal_rcc.c **** #else
1021:Drivers/STM32H7xx_HAL_Driver/Src/stm32h7xx_hal_rcc.c ****     if ((RCC_ClkInitStruct->APB4CLKDivider) > (RCC->SRDCFGR & RCC_SRDCFGR_SRDPPRE))
1022:Drivers/STM32H7xx_HAL_Driver/Src/stm32h7xx_hal_rcc.c ****     {
1023:Drivers/STM32H7xx_HAL_Driver/Src/stm32h7xx_hal_rcc.c ****       assert_param(IS_RCC_D3PCLK1(RCC_ClkInitStruct->APB4CLKDivider));
1024:Drivers/STM32H7xx_HAL_Driver/Src/stm32h7xx_hal_rcc.c ****       MODIFY_REG(RCC->SRDCFGR, RCC_SRDCFGR_SRDPPRE, (RCC_ClkInitStruct->APB4CLKDivider));
1025:Drivers/STM32H7xx_HAL_Driver/Src/stm32h7xx_hal_rcc.c ****     }
1026:Drivers/STM32H7xx_HAL_Driver/Src/stm32h7xx_hal_rcc.c **** #endif
1027:Drivers/STM32H7xx_HAL_Driver/Src/stm32h7xx_hal_rcc.c ****   }
1028:Drivers/STM32H7xx_HAL_Driver/Src/stm32h7xx_hal_rcc.c **** 
1029:Drivers/STM32H7xx_HAL_Driver/Src/stm32h7xx_hal_rcc.c ****   /*-------------------------- HCLK Configuration --------------------------*/
1030:Drivers/STM32H7xx_HAL_Driver/Src/stm32h7xx_hal_rcc.c ****   if (((RCC_ClkInitStruct->ClockType) & RCC_CLOCKTYPE_HCLK) == RCC_CLOCKTYPE_HCLK)
 1852              		.loc 1 1030 26
 1853 00fc 7B68     		ldr	r3, [r7, #4]
 1854 00fe 1B68     		ldr	r3, [r3]
 1855              		.loc 1 1030 39
 1856 0100 03F00203 		and	r3, r3, #2
 1857              		.loc 1 1030 6
 1858 0104 002B     		cmp	r3, #0
 1859 0106 10D0     		beq	.L109
1031:Drivers/STM32H7xx_HAL_Driver/Src/stm32h7xx_hal_rcc.c ****   {
1032:Drivers/STM32H7xx_HAL_Driver/Src/stm32h7xx_hal_rcc.c **** #if defined (RCC_D1CFGR_HPRE)
1033:Drivers/STM32H7xx_HAL_Driver/Src/stm32h7xx_hal_rcc.c ****     if ((RCC_ClkInitStruct->AHBCLKDivider) > (RCC->D1CFGR & RCC_D1CFGR_HPRE))
 1860              		.loc 1 1033 27
 1861 0108 7B68     		ldr	r3, [r7, #4]
 1862 010a DA68     		ldr	r2, [r3, #12]
 1863              		.loc 1 1033 50
 1864 010c 4D4B     		ldr	r3, .L123+4
 1865 010e 9B69     		ldr	r3, [r3, #24]
 1866              		.loc 1 1033 59
 1867 0110 03F00F03 		and	r3, r3, #15
 1868              		.loc 1 1033 8
 1869 0114 9A42     		cmp	r2, r3
 1870 0116 08D9     		bls	.L109
1034:Drivers/STM32H7xx_HAL_Driver/Src/stm32h7xx_hal_rcc.c ****     {
1035:Drivers/STM32H7xx_HAL_Driver/Src/stm32h7xx_hal_rcc.c ****       /* Set the new HCLK clock divider */
1036:Drivers/STM32H7xx_HAL_Driver/Src/stm32h7xx_hal_rcc.c ****       assert_param(IS_RCC_HCLK(RCC_ClkInitStruct->AHBCLKDivider));
1037:Drivers/STM32H7xx_HAL_Driver/Src/stm32h7xx_hal_rcc.c ****       MODIFY_REG(RCC->D1CFGR, RCC_D1CFGR_HPRE, RCC_ClkInitStruct->AHBCLKDivider);
 1871              		.loc 1 1037 7
 1872 0118 4A4B     		ldr	r3, .L123+4
 1873 011a 9B69     		ldr	r3, [r3, #24]
 1874 011c 23F00F02 		bic	r2, r3, #15
 1875 0120 7B68     		ldr	r3, [r7, #4]
 1876 0122 DB68     		ldr	r3, [r3, #12]
ARM GAS  C:\Users\fffff\AppData\Local\Temp\ccLkBlD6.s 			page 53


 1877 0124 4749     		ldr	r1, .L123+4
 1878 0126 1343     		orrs	r3, r3, r2
 1879 0128 8B61     		str	r3, [r1, #24]
 1880              	.L109:
1038:Drivers/STM32H7xx_HAL_Driver/Src/stm32h7xx_hal_rcc.c ****     }
1039:Drivers/STM32H7xx_HAL_Driver/Src/stm32h7xx_hal_rcc.c **** #else
1040:Drivers/STM32H7xx_HAL_Driver/Src/stm32h7xx_hal_rcc.c ****     if ((RCC_ClkInitStruct->AHBCLKDivider) > (RCC->CDCFGR1 & RCC_CDCFGR1_HPRE))
1041:Drivers/STM32H7xx_HAL_Driver/Src/stm32h7xx_hal_rcc.c ****     {
1042:Drivers/STM32H7xx_HAL_Driver/Src/stm32h7xx_hal_rcc.c ****       /* Set the new HCLK clock divider */
1043:Drivers/STM32H7xx_HAL_Driver/Src/stm32h7xx_hal_rcc.c ****       assert_param(IS_RCC_HCLK(RCC_ClkInitStruct->AHBCLKDivider));
1044:Drivers/STM32H7xx_HAL_Driver/Src/stm32h7xx_hal_rcc.c ****       MODIFY_REG(RCC->CDCFGR1, RCC_CDCFGR1_HPRE, RCC_ClkInitStruct->AHBCLKDivider);
1045:Drivers/STM32H7xx_HAL_Driver/Src/stm32h7xx_hal_rcc.c ****     }
1046:Drivers/STM32H7xx_HAL_Driver/Src/stm32h7xx_hal_rcc.c **** #endif
1047:Drivers/STM32H7xx_HAL_Driver/Src/stm32h7xx_hal_rcc.c ****   }
1048:Drivers/STM32H7xx_HAL_Driver/Src/stm32h7xx_hal_rcc.c **** 
1049:Drivers/STM32H7xx_HAL_Driver/Src/stm32h7xx_hal_rcc.c ****   /*------------------------- SYSCLK Configuration -------------------------*/
1050:Drivers/STM32H7xx_HAL_Driver/Src/stm32h7xx_hal_rcc.c ****   if (((RCC_ClkInitStruct->ClockType) & RCC_CLOCKTYPE_SYSCLK) == RCC_CLOCKTYPE_SYSCLK)
 1881              		.loc 1 1050 26
 1882 012a 7B68     		ldr	r3, [r7, #4]
 1883 012c 1B68     		ldr	r3, [r3]
 1884              		.loc 1 1050 39
 1885 012e 03F00103 		and	r3, r3, #1
 1886              		.loc 1 1050 6
 1887 0132 002B     		cmp	r3, #0
 1888 0134 55D0     		beq	.L110
1051:Drivers/STM32H7xx_HAL_Driver/Src/stm32h7xx_hal_rcc.c ****   {
1052:Drivers/STM32H7xx_HAL_Driver/Src/stm32h7xx_hal_rcc.c ****     assert_param(IS_RCC_SYSCLK(RCC_ClkInitStruct->SYSCLKDivider));
1053:Drivers/STM32H7xx_HAL_Driver/Src/stm32h7xx_hal_rcc.c ****     assert_param(IS_RCC_SYSCLKSOURCE(RCC_ClkInitStruct->SYSCLKSource));
1054:Drivers/STM32H7xx_HAL_Driver/Src/stm32h7xx_hal_rcc.c **** #if defined(RCC_D1CFGR_D1CPRE)
1055:Drivers/STM32H7xx_HAL_Driver/Src/stm32h7xx_hal_rcc.c ****     MODIFY_REG(RCC->D1CFGR, RCC_D1CFGR_D1CPRE, RCC_ClkInitStruct->SYSCLKDivider);
 1889              		.loc 1 1055 5
 1890 0136 434B     		ldr	r3, .L123+4
 1891 0138 9B69     		ldr	r3, [r3, #24]
 1892 013a 23F47062 		bic	r2, r3, #3840
 1893 013e 7B68     		ldr	r3, [r7, #4]
 1894 0140 9B68     		ldr	r3, [r3, #8]
 1895 0142 4049     		ldr	r1, .L123+4
 1896 0144 1343     		orrs	r3, r3, r2
 1897 0146 8B61     		str	r3, [r1, #24]
1056:Drivers/STM32H7xx_HAL_Driver/Src/stm32h7xx_hal_rcc.c **** #else
1057:Drivers/STM32H7xx_HAL_Driver/Src/stm32h7xx_hal_rcc.c ****     MODIFY_REG(RCC->CDCFGR1, RCC_CDCFGR1_CDCPRE, RCC_ClkInitStruct->SYSCLKDivider);
1058:Drivers/STM32H7xx_HAL_Driver/Src/stm32h7xx_hal_rcc.c **** #endif
1059:Drivers/STM32H7xx_HAL_Driver/Src/stm32h7xx_hal_rcc.c ****     /* HSE is selected as System Clock Source */
1060:Drivers/STM32H7xx_HAL_Driver/Src/stm32h7xx_hal_rcc.c ****     if (RCC_ClkInitStruct->SYSCLKSource == RCC_SYSCLKSOURCE_HSE)
 1898              		.loc 1 1060 26
 1899 0148 7B68     		ldr	r3, [r7, #4]
 1900 014a 5B68     		ldr	r3, [r3, #4]
 1901              		.loc 1 1060 8
 1902 014c 022B     		cmp	r3, #2
 1903 014e 07D1     		bne	.L111
1061:Drivers/STM32H7xx_HAL_Driver/Src/stm32h7xx_hal_rcc.c ****     {
1062:Drivers/STM32H7xx_HAL_Driver/Src/stm32h7xx_hal_rcc.c ****       /* Check the HSE ready flag */
1063:Drivers/STM32H7xx_HAL_Driver/Src/stm32h7xx_hal_rcc.c ****       if (__HAL_RCC_GET_FLAG(RCC_FLAG_HSERDY) == 0U)
 1904              		.loc 1 1063 11
 1905 0150 3C4B     		ldr	r3, .L123+4
 1906 0152 1B68     		ldr	r3, [r3]
 1907 0154 03F40033 		and	r3, r3, #131072
ARM GAS  C:\Users\fffff\AppData\Local\Temp\ccLkBlD6.s 			page 54


 1908              		.loc 1 1063 10
 1909 0158 002B     		cmp	r3, #0
 1910 015a 21D1     		bne	.L112
1064:Drivers/STM32H7xx_HAL_Driver/Src/stm32h7xx_hal_rcc.c ****       {
1065:Drivers/STM32H7xx_HAL_Driver/Src/stm32h7xx_hal_rcc.c ****         return HAL_ERROR;
 1911              		.loc 1 1065 16
 1912 015c 0123     		movs	r3, #1
 1913 015e F6E0     		b	.L103
 1914              	.L111:
1066:Drivers/STM32H7xx_HAL_Driver/Src/stm32h7xx_hal_rcc.c ****       }
1067:Drivers/STM32H7xx_HAL_Driver/Src/stm32h7xx_hal_rcc.c ****     }
1068:Drivers/STM32H7xx_HAL_Driver/Src/stm32h7xx_hal_rcc.c ****     /* PLL is selected as System Clock Source */
1069:Drivers/STM32H7xx_HAL_Driver/Src/stm32h7xx_hal_rcc.c ****     else if (RCC_ClkInitStruct->SYSCLKSource == RCC_SYSCLKSOURCE_PLLCLK)
 1915              		.loc 1 1069 31
 1916 0160 7B68     		ldr	r3, [r7, #4]
 1917 0162 5B68     		ldr	r3, [r3, #4]
 1918              		.loc 1 1069 13
 1919 0164 032B     		cmp	r3, #3
 1920 0166 07D1     		bne	.L113
1070:Drivers/STM32H7xx_HAL_Driver/Src/stm32h7xx_hal_rcc.c ****     {
1071:Drivers/STM32H7xx_HAL_Driver/Src/stm32h7xx_hal_rcc.c ****       /* Check the PLL ready flag */
1072:Drivers/STM32H7xx_HAL_Driver/Src/stm32h7xx_hal_rcc.c ****       if (__HAL_RCC_GET_FLAG(RCC_FLAG_PLLRDY) == 0U)
 1921              		.loc 1 1072 11
 1922 0168 364B     		ldr	r3, .L123+4
 1923 016a 1B68     		ldr	r3, [r3]
 1924 016c 03F00073 		and	r3, r3, #33554432
 1925              		.loc 1 1072 10
 1926 0170 002B     		cmp	r3, #0
 1927 0172 15D1     		bne	.L112
1073:Drivers/STM32H7xx_HAL_Driver/Src/stm32h7xx_hal_rcc.c ****       {
1074:Drivers/STM32H7xx_HAL_Driver/Src/stm32h7xx_hal_rcc.c ****         return HAL_ERROR;
 1928              		.loc 1 1074 16
 1929 0174 0123     		movs	r3, #1
 1930 0176 EAE0     		b	.L103
 1931              	.L113:
1075:Drivers/STM32H7xx_HAL_Driver/Src/stm32h7xx_hal_rcc.c ****       }
1076:Drivers/STM32H7xx_HAL_Driver/Src/stm32h7xx_hal_rcc.c ****     }
1077:Drivers/STM32H7xx_HAL_Driver/Src/stm32h7xx_hal_rcc.c ****     /* CSI is selected as System Clock Source */
1078:Drivers/STM32H7xx_HAL_Driver/Src/stm32h7xx_hal_rcc.c ****     else if (RCC_ClkInitStruct->SYSCLKSource == RCC_SYSCLKSOURCE_CSI)
 1932              		.loc 1 1078 31
 1933 0178 7B68     		ldr	r3, [r7, #4]
 1934 017a 5B68     		ldr	r3, [r3, #4]
 1935              		.loc 1 1078 13
 1936 017c 012B     		cmp	r3, #1
 1937 017e 07D1     		bne	.L114
1079:Drivers/STM32H7xx_HAL_Driver/Src/stm32h7xx_hal_rcc.c ****     {
1080:Drivers/STM32H7xx_HAL_Driver/Src/stm32h7xx_hal_rcc.c ****       /* Check the PLL ready flag */
1081:Drivers/STM32H7xx_HAL_Driver/Src/stm32h7xx_hal_rcc.c ****       if (__HAL_RCC_GET_FLAG(RCC_FLAG_CSIRDY) == 0U)
 1938              		.loc 1 1081 11
 1939 0180 304B     		ldr	r3, .L123+4
 1940 0182 1B68     		ldr	r3, [r3]
 1941 0184 03F48073 		and	r3, r3, #256
 1942              		.loc 1 1081 10
 1943 0188 002B     		cmp	r3, #0
 1944 018a 09D1     		bne	.L112
1082:Drivers/STM32H7xx_HAL_Driver/Src/stm32h7xx_hal_rcc.c ****       {
1083:Drivers/STM32H7xx_HAL_Driver/Src/stm32h7xx_hal_rcc.c ****         return HAL_ERROR;
ARM GAS  C:\Users\fffff\AppData\Local\Temp\ccLkBlD6.s 			page 55


 1945              		.loc 1 1083 16
 1946 018c 0123     		movs	r3, #1
 1947 018e DEE0     		b	.L103
 1948              	.L114:
1084:Drivers/STM32H7xx_HAL_Driver/Src/stm32h7xx_hal_rcc.c ****       }
1085:Drivers/STM32H7xx_HAL_Driver/Src/stm32h7xx_hal_rcc.c ****     }
1086:Drivers/STM32H7xx_HAL_Driver/Src/stm32h7xx_hal_rcc.c ****     /* HSI is selected as System Clock Source */
1087:Drivers/STM32H7xx_HAL_Driver/Src/stm32h7xx_hal_rcc.c ****     else
1088:Drivers/STM32H7xx_HAL_Driver/Src/stm32h7xx_hal_rcc.c ****     {
1089:Drivers/STM32H7xx_HAL_Driver/Src/stm32h7xx_hal_rcc.c ****       /* Check the HSI ready flag */
1090:Drivers/STM32H7xx_HAL_Driver/Src/stm32h7xx_hal_rcc.c ****       if (__HAL_RCC_GET_FLAG(RCC_FLAG_HSIRDY) == 0U)
 1949              		.loc 1 1090 11
 1950 0190 2C4B     		ldr	r3, .L123+4
 1951 0192 1B68     		ldr	r3, [r3]
 1952 0194 03F00403 		and	r3, r3, #4
 1953              		.loc 1 1090 10
 1954 0198 002B     		cmp	r3, #0
 1955 019a 01D1     		bne	.L112
1091:Drivers/STM32H7xx_HAL_Driver/Src/stm32h7xx_hal_rcc.c ****       {
1092:Drivers/STM32H7xx_HAL_Driver/Src/stm32h7xx_hal_rcc.c ****         return HAL_ERROR;
 1956              		.loc 1 1092 16
 1957 019c 0123     		movs	r3, #1
 1958 019e D6E0     		b	.L103
 1959              	.L112:
1093:Drivers/STM32H7xx_HAL_Driver/Src/stm32h7xx_hal_rcc.c ****       }
1094:Drivers/STM32H7xx_HAL_Driver/Src/stm32h7xx_hal_rcc.c ****     }
1095:Drivers/STM32H7xx_HAL_Driver/Src/stm32h7xx_hal_rcc.c ****     MODIFY_REG(RCC->CFGR, RCC_CFGR_SW, RCC_ClkInitStruct->SYSCLKSource);
 1960              		.loc 1 1095 5
 1961 01a0 284B     		ldr	r3, .L123+4
 1962 01a2 1B69     		ldr	r3, [r3, #16]
 1963 01a4 23F00702 		bic	r2, r3, #7
 1964 01a8 7B68     		ldr	r3, [r7, #4]
 1965 01aa 5B68     		ldr	r3, [r3, #4]
 1966 01ac 2549     		ldr	r1, .L123+4
 1967 01ae 1343     		orrs	r3, r3, r2
 1968 01b0 0B61     		str	r3, [r1, #16]
1096:Drivers/STM32H7xx_HAL_Driver/Src/stm32h7xx_hal_rcc.c **** 
1097:Drivers/STM32H7xx_HAL_Driver/Src/stm32h7xx_hal_rcc.c ****     /* Get Start Tick*/
1098:Drivers/STM32H7xx_HAL_Driver/Src/stm32h7xx_hal_rcc.c ****     tickstart = HAL_GetTick();
 1969              		.loc 1 1098 17
 1970 01b2 FFF7FEFF 		bl	HAL_GetTick
 1971 01b6 7861     		str	r0, [r7, #20]
1099:Drivers/STM32H7xx_HAL_Driver/Src/stm32h7xx_hal_rcc.c **** 
1100:Drivers/STM32H7xx_HAL_Driver/Src/stm32h7xx_hal_rcc.c ****     while (__HAL_RCC_GET_SYSCLK_SOURCE() != (RCC_ClkInitStruct->SYSCLKSource << RCC_CFGR_SWS_Pos))
 1972              		.loc 1 1100 11
 1973 01b8 0AE0     		b	.L115
 1974              	.L116:
1101:Drivers/STM32H7xx_HAL_Driver/Src/stm32h7xx_hal_rcc.c ****     {
1102:Drivers/STM32H7xx_HAL_Driver/Src/stm32h7xx_hal_rcc.c ****       if ((HAL_GetTick() - tickstart) > CLOCKSWITCH_TIMEOUT_VALUE)
 1975              		.loc 1 1102 12
 1976 01ba FFF7FEFF 		bl	HAL_GetTick
 1977 01be 0246     		mov	r2, r0
 1978              		.loc 1 1102 26 discriminator 1
 1979 01c0 7B69     		ldr	r3, [r7, #20]
 1980 01c2 D31A     		subs	r3, r2, r3
 1981              		.loc 1 1102 10 discriminator 1
 1982 01c4 41F28832 		movw	r2, #5000
ARM GAS  C:\Users\fffff\AppData\Local\Temp\ccLkBlD6.s 			page 56


 1983 01c8 9342     		cmp	r3, r2
 1984 01ca 01D9     		bls	.L115
1103:Drivers/STM32H7xx_HAL_Driver/Src/stm32h7xx_hal_rcc.c ****       {
1104:Drivers/STM32H7xx_HAL_Driver/Src/stm32h7xx_hal_rcc.c ****         return HAL_TIMEOUT;
 1985              		.loc 1 1104 16
 1986 01cc 0323     		movs	r3, #3
 1987 01ce BEE0     		b	.L103
 1988              	.L115:
1100:Drivers/STM32H7xx_HAL_Driver/Src/stm32h7xx_hal_rcc.c ****     {
 1989              		.loc 1 1100 12
 1990 01d0 1C4B     		ldr	r3, .L123+4
 1991 01d2 1B69     		ldr	r3, [r3, #16]
 1992 01d4 03F03802 		and	r2, r3, #56
1100:Drivers/STM32H7xx_HAL_Driver/Src/stm32h7xx_hal_rcc.c ****     {
 1993              		.loc 1 1100 63
 1994 01d8 7B68     		ldr	r3, [r7, #4]
 1995 01da 5B68     		ldr	r3, [r3, #4]
1100:Drivers/STM32H7xx_HAL_Driver/Src/stm32h7xx_hal_rcc.c ****     {
 1996              		.loc 1 1100 78
 1997 01dc DB00     		lsls	r3, r3, #3
1100:Drivers/STM32H7xx_HAL_Driver/Src/stm32h7xx_hal_rcc.c ****     {
 1998              		.loc 1 1100 42
 1999 01de 9A42     		cmp	r2, r3
 2000 01e0 EBD1     		bne	.L116
 2001              	.L110:
1105:Drivers/STM32H7xx_HAL_Driver/Src/stm32h7xx_hal_rcc.c ****       }
1106:Drivers/STM32H7xx_HAL_Driver/Src/stm32h7xx_hal_rcc.c ****     }
1107:Drivers/STM32H7xx_HAL_Driver/Src/stm32h7xx_hal_rcc.c **** 
1108:Drivers/STM32H7xx_HAL_Driver/Src/stm32h7xx_hal_rcc.c ****   }
1109:Drivers/STM32H7xx_HAL_Driver/Src/stm32h7xx_hal_rcc.c **** 
1110:Drivers/STM32H7xx_HAL_Driver/Src/stm32h7xx_hal_rcc.c ****   /* Decreasing the BUS frequency divider */
1111:Drivers/STM32H7xx_HAL_Driver/Src/stm32h7xx_hal_rcc.c ****   /*-------------------------- HCLK Configuration --------------------------*/
1112:Drivers/STM32H7xx_HAL_Driver/Src/stm32h7xx_hal_rcc.c ****   if (((RCC_ClkInitStruct->ClockType) & RCC_CLOCKTYPE_HCLK) == RCC_CLOCKTYPE_HCLK)
 2002              		.loc 1 1112 26
 2003 01e2 7B68     		ldr	r3, [r7, #4]
 2004 01e4 1B68     		ldr	r3, [r3]
 2005              		.loc 1 1112 39
 2006 01e6 03F00203 		and	r3, r3, #2
 2007              		.loc 1 1112 6
 2008 01ea 002B     		cmp	r3, #0
 2009 01ec 10D0     		beq	.L117
1113:Drivers/STM32H7xx_HAL_Driver/Src/stm32h7xx_hal_rcc.c ****   {
1114:Drivers/STM32H7xx_HAL_Driver/Src/stm32h7xx_hal_rcc.c **** #if defined(RCC_D1CFGR_HPRE)
1115:Drivers/STM32H7xx_HAL_Driver/Src/stm32h7xx_hal_rcc.c ****     if ((RCC_ClkInitStruct->AHBCLKDivider) < (RCC->D1CFGR & RCC_D1CFGR_HPRE))
 2010              		.loc 1 1115 27
 2011 01ee 7B68     		ldr	r3, [r7, #4]
 2012 01f0 DA68     		ldr	r2, [r3, #12]
 2013              		.loc 1 1115 50
 2014 01f2 144B     		ldr	r3, .L123+4
 2015 01f4 9B69     		ldr	r3, [r3, #24]
 2016              		.loc 1 1115 59
 2017 01f6 03F00F03 		and	r3, r3, #15
 2018              		.loc 1 1115 8
 2019 01fa 9A42     		cmp	r2, r3
 2020 01fc 08D2     		bcs	.L117
1116:Drivers/STM32H7xx_HAL_Driver/Src/stm32h7xx_hal_rcc.c ****     {
1117:Drivers/STM32H7xx_HAL_Driver/Src/stm32h7xx_hal_rcc.c ****       /* Set the new HCLK clock divider */
ARM GAS  C:\Users\fffff\AppData\Local\Temp\ccLkBlD6.s 			page 57


1118:Drivers/STM32H7xx_HAL_Driver/Src/stm32h7xx_hal_rcc.c ****       assert_param(IS_RCC_HCLK(RCC_ClkInitStruct->AHBCLKDivider));
1119:Drivers/STM32H7xx_HAL_Driver/Src/stm32h7xx_hal_rcc.c ****       MODIFY_REG(RCC->D1CFGR, RCC_D1CFGR_HPRE, RCC_ClkInitStruct->AHBCLKDivider);
 2021              		.loc 1 1119 7
 2022 01fe 114B     		ldr	r3, .L123+4
 2023 0200 9B69     		ldr	r3, [r3, #24]
 2024 0202 23F00F02 		bic	r2, r3, #15
 2025 0206 7B68     		ldr	r3, [r7, #4]
 2026 0208 DB68     		ldr	r3, [r3, #12]
 2027 020a 0E49     		ldr	r1, .L123+4
 2028 020c 1343     		orrs	r3, r3, r2
 2029 020e 8B61     		str	r3, [r1, #24]
 2030              	.L117:
1120:Drivers/STM32H7xx_HAL_Driver/Src/stm32h7xx_hal_rcc.c ****     }
1121:Drivers/STM32H7xx_HAL_Driver/Src/stm32h7xx_hal_rcc.c **** #else
1122:Drivers/STM32H7xx_HAL_Driver/Src/stm32h7xx_hal_rcc.c ****     if ((RCC_ClkInitStruct->AHBCLKDivider) < (RCC->CDCFGR1 & RCC_CDCFGR1_HPRE))
1123:Drivers/STM32H7xx_HAL_Driver/Src/stm32h7xx_hal_rcc.c ****     {
1124:Drivers/STM32H7xx_HAL_Driver/Src/stm32h7xx_hal_rcc.c ****       /* Set the new HCLK clock divider */
1125:Drivers/STM32H7xx_HAL_Driver/Src/stm32h7xx_hal_rcc.c ****       assert_param(IS_RCC_HCLK(RCC_ClkInitStruct->AHBCLKDivider));
1126:Drivers/STM32H7xx_HAL_Driver/Src/stm32h7xx_hal_rcc.c ****       MODIFY_REG(RCC->CDCFGR1, RCC_CDCFGR1_HPRE, RCC_ClkInitStruct->AHBCLKDivider);
1127:Drivers/STM32H7xx_HAL_Driver/Src/stm32h7xx_hal_rcc.c ****     }
1128:Drivers/STM32H7xx_HAL_Driver/Src/stm32h7xx_hal_rcc.c **** #endif
1129:Drivers/STM32H7xx_HAL_Driver/Src/stm32h7xx_hal_rcc.c ****   }
1130:Drivers/STM32H7xx_HAL_Driver/Src/stm32h7xx_hal_rcc.c **** 
1131:Drivers/STM32H7xx_HAL_Driver/Src/stm32h7xx_hal_rcc.c ****   /* Decreasing the number of wait states because of lower CPU frequency */
1132:Drivers/STM32H7xx_HAL_Driver/Src/stm32h7xx_hal_rcc.c ****   if (FLatency < __HAL_FLASH_GET_LATENCY())
 2031              		.loc 1 1132 18
 2032 0210 0B4B     		ldr	r3, .L123
 2033 0212 1B68     		ldr	r3, [r3]
 2034 0214 03F00F03 		and	r3, r3, #15
 2035              		.loc 1 1132 6
 2036 0218 3A68     		ldr	r2, [r7]
 2037 021a 9A42     		cmp	r2, r3
 2038 021c 14D2     		bcs	.L118
1133:Drivers/STM32H7xx_HAL_Driver/Src/stm32h7xx_hal_rcc.c ****   {
1134:Drivers/STM32H7xx_HAL_Driver/Src/stm32h7xx_hal_rcc.c ****     /* Program the new number of wait states to the LATENCY bits in the FLASH_ACR register */
1135:Drivers/STM32H7xx_HAL_Driver/Src/stm32h7xx_hal_rcc.c ****     __HAL_FLASH_SET_LATENCY(FLatency);
 2039              		.loc 1 1135 5
 2040 021e 084B     		ldr	r3, .L123
 2041 0220 1B68     		ldr	r3, [r3]
 2042 0222 23F00F02 		bic	r2, r3, #15
 2043 0226 0649     		ldr	r1, .L123
 2044 0228 3B68     		ldr	r3, [r7]
 2045 022a 1343     		orrs	r3, r3, r2
 2046 022c 0B60     		str	r3, [r1]
1136:Drivers/STM32H7xx_HAL_Driver/Src/stm32h7xx_hal_rcc.c **** 
1137:Drivers/STM32H7xx_HAL_Driver/Src/stm32h7xx_hal_rcc.c ****     /* Check that the new number of wait states is taken into account to access the Flash
1138:Drivers/STM32H7xx_HAL_Driver/Src/stm32h7xx_hal_rcc.c ****     memory by reading the FLASH_ACR register */
1139:Drivers/STM32H7xx_HAL_Driver/Src/stm32h7xx_hal_rcc.c ****     if (__HAL_FLASH_GET_LATENCY() != FLatency)
 2047              		.loc 1 1139 9
 2048 022e 044B     		ldr	r3, .L123
 2049 0230 1B68     		ldr	r3, [r3]
 2050 0232 03F00F03 		and	r3, r3, #15
 2051              		.loc 1 1139 8
 2052 0236 3A68     		ldr	r2, [r7]
 2053 0238 9A42     		cmp	r2, r3
 2054 023a 05D0     		beq	.L118
1140:Drivers/STM32H7xx_HAL_Driver/Src/stm32h7xx_hal_rcc.c ****     {
ARM GAS  C:\Users\fffff\AppData\Local\Temp\ccLkBlD6.s 			page 58


1141:Drivers/STM32H7xx_HAL_Driver/Src/stm32h7xx_hal_rcc.c ****       return HAL_ERROR;
 2055              		.loc 1 1141 14
 2056 023c 0123     		movs	r3, #1
 2057 023e 86E0     		b	.L103
 2058              	.L124:
 2059              		.align	2
 2060              	.L123:
 2061 0240 00200052 		.word	1375739904
 2062 0244 00440258 		.word	1476543488
 2063              	.L118:
1142:Drivers/STM32H7xx_HAL_Driver/Src/stm32h7xx_hal_rcc.c ****     }
1143:Drivers/STM32H7xx_HAL_Driver/Src/stm32h7xx_hal_rcc.c ****   }
1144:Drivers/STM32H7xx_HAL_Driver/Src/stm32h7xx_hal_rcc.c **** 
1145:Drivers/STM32H7xx_HAL_Driver/Src/stm32h7xx_hal_rcc.c ****   /*-------------------------- D1PCLK1/CDPCLK Configuration ---------------------------*/
1146:Drivers/STM32H7xx_HAL_Driver/Src/stm32h7xx_hal_rcc.c ****   if (((RCC_ClkInitStruct->ClockType) & RCC_CLOCKTYPE_D1PCLK1) == RCC_CLOCKTYPE_D1PCLK1)
 2064              		.loc 1 1146 26
 2065 0248 7B68     		ldr	r3, [r7, #4]
 2066 024a 1B68     		ldr	r3, [r3]
 2067              		.loc 1 1146 39
 2068 024c 03F00403 		and	r3, r3, #4
 2069              		.loc 1 1146 6
 2070 0250 002B     		cmp	r3, #0
 2071 0252 10D0     		beq	.L119
1147:Drivers/STM32H7xx_HAL_Driver/Src/stm32h7xx_hal_rcc.c ****   {
1148:Drivers/STM32H7xx_HAL_Driver/Src/stm32h7xx_hal_rcc.c **** #if defined(RCC_D1CFGR_D1PPRE)
1149:Drivers/STM32H7xx_HAL_Driver/Src/stm32h7xx_hal_rcc.c ****     if ((RCC_ClkInitStruct->APB3CLKDivider) < (RCC->D1CFGR & RCC_D1CFGR_D1PPRE))
 2072              		.loc 1 1149 27
 2073 0254 7B68     		ldr	r3, [r7, #4]
 2074 0256 1A69     		ldr	r2, [r3, #16]
 2075              		.loc 1 1149 51
 2076 0258 3F4B     		ldr	r3, .L125
 2077 025a 9B69     		ldr	r3, [r3, #24]
 2078              		.loc 1 1149 60
 2079 025c 03F07003 		and	r3, r3, #112
 2080              		.loc 1 1149 8
 2081 0260 9A42     		cmp	r2, r3
 2082 0262 08D2     		bcs	.L119
1150:Drivers/STM32H7xx_HAL_Driver/Src/stm32h7xx_hal_rcc.c ****     {
1151:Drivers/STM32H7xx_HAL_Driver/Src/stm32h7xx_hal_rcc.c ****       assert_param(IS_RCC_D1PCLK1(RCC_ClkInitStruct->APB3CLKDivider));
1152:Drivers/STM32H7xx_HAL_Driver/Src/stm32h7xx_hal_rcc.c ****       MODIFY_REG(RCC->D1CFGR, RCC_D1CFGR_D1PPRE, RCC_ClkInitStruct->APB3CLKDivider);
 2083              		.loc 1 1152 7
 2084 0264 3C4B     		ldr	r3, .L125
 2085 0266 9B69     		ldr	r3, [r3, #24]
 2086 0268 23F07002 		bic	r2, r3, #112
 2087 026c 7B68     		ldr	r3, [r7, #4]
 2088 026e 1B69     		ldr	r3, [r3, #16]
 2089 0270 3949     		ldr	r1, .L125
 2090 0272 1343     		orrs	r3, r3, r2
 2091 0274 8B61     		str	r3, [r1, #24]
 2092              	.L119:
1153:Drivers/STM32H7xx_HAL_Driver/Src/stm32h7xx_hal_rcc.c ****     }
1154:Drivers/STM32H7xx_HAL_Driver/Src/stm32h7xx_hal_rcc.c **** #else
1155:Drivers/STM32H7xx_HAL_Driver/Src/stm32h7xx_hal_rcc.c ****     if ((RCC_ClkInitStruct->APB3CLKDivider) < (RCC->CDCFGR1 & RCC_CDCFGR1_CDPPRE))
1156:Drivers/STM32H7xx_HAL_Driver/Src/stm32h7xx_hal_rcc.c ****     {
1157:Drivers/STM32H7xx_HAL_Driver/Src/stm32h7xx_hal_rcc.c ****       assert_param(IS_RCC_CDPCLK1(RCC_ClkInitStruct->APB3CLKDivider));
1158:Drivers/STM32H7xx_HAL_Driver/Src/stm32h7xx_hal_rcc.c ****       MODIFY_REG(RCC->CDCFGR1, RCC_CDCFGR1_CDPPRE, RCC_ClkInitStruct->APB3CLKDivider);
1159:Drivers/STM32H7xx_HAL_Driver/Src/stm32h7xx_hal_rcc.c ****     }
ARM GAS  C:\Users\fffff\AppData\Local\Temp\ccLkBlD6.s 			page 59


1160:Drivers/STM32H7xx_HAL_Driver/Src/stm32h7xx_hal_rcc.c **** #endif
1161:Drivers/STM32H7xx_HAL_Driver/Src/stm32h7xx_hal_rcc.c ****   }
1162:Drivers/STM32H7xx_HAL_Driver/Src/stm32h7xx_hal_rcc.c **** 
1163:Drivers/STM32H7xx_HAL_Driver/Src/stm32h7xx_hal_rcc.c ****   /*-------------------------- PCLK1 Configuration ---------------------------*/
1164:Drivers/STM32H7xx_HAL_Driver/Src/stm32h7xx_hal_rcc.c ****   if (((RCC_ClkInitStruct->ClockType) & RCC_CLOCKTYPE_PCLK1) == RCC_CLOCKTYPE_PCLK1)
 2093              		.loc 1 1164 26
 2094 0276 7B68     		ldr	r3, [r7, #4]
 2095 0278 1B68     		ldr	r3, [r3]
 2096              		.loc 1 1164 39
 2097 027a 03F00803 		and	r3, r3, #8
 2098              		.loc 1 1164 6
 2099 027e 002B     		cmp	r3, #0
 2100 0280 10D0     		beq	.L120
1165:Drivers/STM32H7xx_HAL_Driver/Src/stm32h7xx_hal_rcc.c ****   {
1166:Drivers/STM32H7xx_HAL_Driver/Src/stm32h7xx_hal_rcc.c **** #if defined(RCC_D2CFGR_D2PPRE1)
1167:Drivers/STM32H7xx_HAL_Driver/Src/stm32h7xx_hal_rcc.c ****     if ((RCC_ClkInitStruct->APB1CLKDivider) < (RCC->D2CFGR & RCC_D2CFGR_D2PPRE1))
 2101              		.loc 1 1167 27
 2102 0282 7B68     		ldr	r3, [r7, #4]
 2103 0284 5A69     		ldr	r2, [r3, #20]
 2104              		.loc 1 1167 51
 2105 0286 344B     		ldr	r3, .L125
 2106 0288 DB69     		ldr	r3, [r3, #28]
 2107              		.loc 1 1167 60
 2108 028a 03F07003 		and	r3, r3, #112
 2109              		.loc 1 1167 8
 2110 028e 9A42     		cmp	r2, r3
 2111 0290 08D2     		bcs	.L120
1168:Drivers/STM32H7xx_HAL_Driver/Src/stm32h7xx_hal_rcc.c ****     {
1169:Drivers/STM32H7xx_HAL_Driver/Src/stm32h7xx_hal_rcc.c ****       assert_param(IS_RCC_PCLK1(RCC_ClkInitStruct->APB1CLKDivider));
1170:Drivers/STM32H7xx_HAL_Driver/Src/stm32h7xx_hal_rcc.c ****       MODIFY_REG(RCC->D2CFGR, RCC_D2CFGR_D2PPRE1, (RCC_ClkInitStruct->APB1CLKDivider));
 2112              		.loc 1 1170 7
 2113 0292 314B     		ldr	r3, .L125
 2114 0294 DB69     		ldr	r3, [r3, #28]
 2115 0296 23F07002 		bic	r2, r3, #112
 2116 029a 7B68     		ldr	r3, [r7, #4]
 2117 029c 5B69     		ldr	r3, [r3, #20]
 2118 029e 2E49     		ldr	r1, .L125
 2119 02a0 1343     		orrs	r3, r3, r2
 2120 02a2 CB61     		str	r3, [r1, #28]
 2121              	.L120:
1171:Drivers/STM32H7xx_HAL_Driver/Src/stm32h7xx_hal_rcc.c ****     }
1172:Drivers/STM32H7xx_HAL_Driver/Src/stm32h7xx_hal_rcc.c **** #else
1173:Drivers/STM32H7xx_HAL_Driver/Src/stm32h7xx_hal_rcc.c ****     if ((RCC_ClkInitStruct->APB1CLKDivider) < (RCC->CDCFGR2 & RCC_CDCFGR2_CDPPRE1))
1174:Drivers/STM32H7xx_HAL_Driver/Src/stm32h7xx_hal_rcc.c ****     {
1175:Drivers/STM32H7xx_HAL_Driver/Src/stm32h7xx_hal_rcc.c ****       assert_param(IS_RCC_PCLK1(RCC_ClkInitStruct->APB1CLKDivider));
1176:Drivers/STM32H7xx_HAL_Driver/Src/stm32h7xx_hal_rcc.c ****       MODIFY_REG(RCC->CDCFGR2, RCC_CDCFGR2_CDPPRE1, (RCC_ClkInitStruct->APB1CLKDivider));
1177:Drivers/STM32H7xx_HAL_Driver/Src/stm32h7xx_hal_rcc.c ****     }
1178:Drivers/STM32H7xx_HAL_Driver/Src/stm32h7xx_hal_rcc.c **** #endif
1179:Drivers/STM32H7xx_HAL_Driver/Src/stm32h7xx_hal_rcc.c ****   }
1180:Drivers/STM32H7xx_HAL_Driver/Src/stm32h7xx_hal_rcc.c **** 
1181:Drivers/STM32H7xx_HAL_Driver/Src/stm32h7xx_hal_rcc.c ****   /*-------------------------- PCLK2 Configuration ---------------------------*/
1182:Drivers/STM32H7xx_HAL_Driver/Src/stm32h7xx_hal_rcc.c ****   if (((RCC_ClkInitStruct->ClockType) & RCC_CLOCKTYPE_PCLK2) == RCC_CLOCKTYPE_PCLK2)
 2122              		.loc 1 1182 26
 2123 02a4 7B68     		ldr	r3, [r7, #4]
 2124 02a6 1B68     		ldr	r3, [r3]
 2125              		.loc 1 1182 39
 2126 02a8 03F01003 		and	r3, r3, #16
ARM GAS  C:\Users\fffff\AppData\Local\Temp\ccLkBlD6.s 			page 60


 2127              		.loc 1 1182 6
 2128 02ac 002B     		cmp	r3, #0
 2129 02ae 10D0     		beq	.L121
1183:Drivers/STM32H7xx_HAL_Driver/Src/stm32h7xx_hal_rcc.c ****   {
1184:Drivers/STM32H7xx_HAL_Driver/Src/stm32h7xx_hal_rcc.c **** #if defined (RCC_D2CFGR_D2PPRE2)
1185:Drivers/STM32H7xx_HAL_Driver/Src/stm32h7xx_hal_rcc.c ****     if ((RCC_ClkInitStruct->APB2CLKDivider) < (RCC->D2CFGR & RCC_D2CFGR_D2PPRE2))
 2130              		.loc 1 1185 27
 2131 02b0 7B68     		ldr	r3, [r7, #4]
 2132 02b2 9A69     		ldr	r2, [r3, #24]
 2133              		.loc 1 1185 51
 2134 02b4 284B     		ldr	r3, .L125
 2135 02b6 DB69     		ldr	r3, [r3, #28]
 2136              		.loc 1 1185 60
 2137 02b8 03F4E063 		and	r3, r3, #1792
 2138              		.loc 1 1185 8
 2139 02bc 9A42     		cmp	r2, r3
 2140 02be 08D2     		bcs	.L121
1186:Drivers/STM32H7xx_HAL_Driver/Src/stm32h7xx_hal_rcc.c ****     {
1187:Drivers/STM32H7xx_HAL_Driver/Src/stm32h7xx_hal_rcc.c ****       assert_param(IS_RCC_PCLK2(RCC_ClkInitStruct->APB2CLKDivider));
1188:Drivers/STM32H7xx_HAL_Driver/Src/stm32h7xx_hal_rcc.c ****       MODIFY_REG(RCC->D2CFGR, RCC_D2CFGR_D2PPRE2, (RCC_ClkInitStruct->APB2CLKDivider));
 2141              		.loc 1 1188 7
 2142 02c0 254B     		ldr	r3, .L125
 2143 02c2 DB69     		ldr	r3, [r3, #28]
 2144 02c4 23F4E062 		bic	r2, r3, #1792
 2145 02c8 7B68     		ldr	r3, [r7, #4]
 2146 02ca 9B69     		ldr	r3, [r3, #24]
 2147 02cc 2249     		ldr	r1, .L125
 2148 02ce 1343     		orrs	r3, r3, r2
 2149 02d0 CB61     		str	r3, [r1, #28]
 2150              	.L121:
1189:Drivers/STM32H7xx_HAL_Driver/Src/stm32h7xx_hal_rcc.c ****     }
1190:Drivers/STM32H7xx_HAL_Driver/Src/stm32h7xx_hal_rcc.c **** #else
1191:Drivers/STM32H7xx_HAL_Driver/Src/stm32h7xx_hal_rcc.c ****     if ((RCC_ClkInitStruct->APB2CLKDivider) < (RCC->CDCFGR2 & RCC_CDCFGR2_CDPPRE2))
1192:Drivers/STM32H7xx_HAL_Driver/Src/stm32h7xx_hal_rcc.c ****     {
1193:Drivers/STM32H7xx_HAL_Driver/Src/stm32h7xx_hal_rcc.c ****       assert_param(IS_RCC_PCLK2(RCC_ClkInitStruct->APB2CLKDivider));
1194:Drivers/STM32H7xx_HAL_Driver/Src/stm32h7xx_hal_rcc.c ****       MODIFY_REG(RCC->CDCFGR2, RCC_CDCFGR2_CDPPRE2, (RCC_ClkInitStruct->APB2CLKDivider));
1195:Drivers/STM32H7xx_HAL_Driver/Src/stm32h7xx_hal_rcc.c ****     }
1196:Drivers/STM32H7xx_HAL_Driver/Src/stm32h7xx_hal_rcc.c **** #endif
1197:Drivers/STM32H7xx_HAL_Driver/Src/stm32h7xx_hal_rcc.c ****   }
1198:Drivers/STM32H7xx_HAL_Driver/Src/stm32h7xx_hal_rcc.c **** 
1199:Drivers/STM32H7xx_HAL_Driver/Src/stm32h7xx_hal_rcc.c ****   /*-------------------------- D3PCLK1/SRDPCLK1 Configuration ---------------------------*/
1200:Drivers/STM32H7xx_HAL_Driver/Src/stm32h7xx_hal_rcc.c ****   if (((RCC_ClkInitStruct->ClockType) & RCC_CLOCKTYPE_D3PCLK1) == RCC_CLOCKTYPE_D3PCLK1)
 2151              		.loc 1 1200 26
 2152 02d2 7B68     		ldr	r3, [r7, #4]
 2153 02d4 1B68     		ldr	r3, [r3]
 2154              		.loc 1 1200 39
 2155 02d6 03F02003 		and	r3, r3, #32
 2156              		.loc 1 1200 6
 2157 02da 002B     		cmp	r3, #0
 2158 02dc 10D0     		beq	.L122
1201:Drivers/STM32H7xx_HAL_Driver/Src/stm32h7xx_hal_rcc.c ****   {
1202:Drivers/STM32H7xx_HAL_Driver/Src/stm32h7xx_hal_rcc.c **** #if defined(RCC_D3CFGR_D3PPRE)
1203:Drivers/STM32H7xx_HAL_Driver/Src/stm32h7xx_hal_rcc.c ****     if ((RCC_ClkInitStruct->APB4CLKDivider) < (RCC->D3CFGR & RCC_D3CFGR_D3PPRE))
 2159              		.loc 1 1203 27
 2160 02de 7B68     		ldr	r3, [r7, #4]
 2161 02e0 DA69     		ldr	r2, [r3, #28]
 2162              		.loc 1 1203 51
ARM GAS  C:\Users\fffff\AppData\Local\Temp\ccLkBlD6.s 			page 61


 2163 02e2 1D4B     		ldr	r3, .L125
 2164 02e4 1B6A     		ldr	r3, [r3, #32]
 2165              		.loc 1 1203 60
 2166 02e6 03F07003 		and	r3, r3, #112
 2167              		.loc 1 1203 8
 2168 02ea 9A42     		cmp	r2, r3
 2169 02ec 08D2     		bcs	.L122
1204:Drivers/STM32H7xx_HAL_Driver/Src/stm32h7xx_hal_rcc.c ****     {
1205:Drivers/STM32H7xx_HAL_Driver/Src/stm32h7xx_hal_rcc.c ****       assert_param(IS_RCC_D3PCLK1(RCC_ClkInitStruct->APB4CLKDivider));
1206:Drivers/STM32H7xx_HAL_Driver/Src/stm32h7xx_hal_rcc.c ****       MODIFY_REG(RCC->D3CFGR, RCC_D3CFGR_D3PPRE, (RCC_ClkInitStruct->APB4CLKDivider));
 2170              		.loc 1 1206 7
 2171 02ee 1A4B     		ldr	r3, .L125
 2172 02f0 1B6A     		ldr	r3, [r3, #32]
 2173 02f2 23F07002 		bic	r2, r3, #112
 2174 02f6 7B68     		ldr	r3, [r7, #4]
 2175 02f8 DB69     		ldr	r3, [r3, #28]
 2176 02fa 1749     		ldr	r1, .L125
 2177 02fc 1343     		orrs	r3, r3, r2
 2178 02fe 0B62     		str	r3, [r1, #32]
 2179              	.L122:
1207:Drivers/STM32H7xx_HAL_Driver/Src/stm32h7xx_hal_rcc.c ****     }
1208:Drivers/STM32H7xx_HAL_Driver/Src/stm32h7xx_hal_rcc.c **** #else
1209:Drivers/STM32H7xx_HAL_Driver/Src/stm32h7xx_hal_rcc.c ****     if ((RCC_ClkInitStruct->APB4CLKDivider) < (RCC->SRDCFGR & RCC_SRDCFGR_SRDPPRE))
1210:Drivers/STM32H7xx_HAL_Driver/Src/stm32h7xx_hal_rcc.c ****     {
1211:Drivers/STM32H7xx_HAL_Driver/Src/stm32h7xx_hal_rcc.c ****       assert_param(IS_RCC_SRDPCLK1(RCC_ClkInitStruct->APB4CLKDivider));
1212:Drivers/STM32H7xx_HAL_Driver/Src/stm32h7xx_hal_rcc.c ****       MODIFY_REG(RCC->SRDCFGR, RCC_SRDCFGR_SRDPPRE, (RCC_ClkInitStruct->APB4CLKDivider));
1213:Drivers/STM32H7xx_HAL_Driver/Src/stm32h7xx_hal_rcc.c ****     }
1214:Drivers/STM32H7xx_HAL_Driver/Src/stm32h7xx_hal_rcc.c **** #endif
1215:Drivers/STM32H7xx_HAL_Driver/Src/stm32h7xx_hal_rcc.c ****   }
1216:Drivers/STM32H7xx_HAL_Driver/Src/stm32h7xx_hal_rcc.c **** 
1217:Drivers/STM32H7xx_HAL_Driver/Src/stm32h7xx_hal_rcc.c ****   /* Update the SystemCoreClock global variable */
1218:Drivers/STM32H7xx_HAL_Driver/Src/stm32h7xx_hal_rcc.c **** #if defined(RCC_D1CFGR_D1CPRE)
1219:Drivers/STM32H7xx_HAL_Driver/Src/stm32h7xx_hal_rcc.c ****   common_system_clock = HAL_RCC_GetSysClockFreq() >> ((D1CorePrescTable[(RCC->D1CFGR & RCC_D1CFGR_D
 2180              		.loc 1 1219 25
 2181 0300 FFF7FEFF 		bl	HAL_RCC_GetSysClockFreq
 2182 0304 0246     		mov	r2, r0
 2183              		.loc 1 1219 77 discriminator 1
 2184 0306 144B     		ldr	r3, .L125
 2185 0308 9B69     		ldr	r3, [r3, #24]
 2186              		.loc 1 1219 107 discriminator 1
 2187 030a 1B0A     		lsrs	r3, r3, #8
 2188 030c 03F00F03 		and	r3, r3, #15
 2189              		.loc 1 1219 72 discriminator 1
 2190 0310 1249     		ldr	r1, .L125+4
 2191 0312 CB5C     		ldrb	r3, [r1, r3]	@ zero_extendqisi2
 2192              		.loc 1 1219 134 discriminator 1
 2193 0314 03F01F03 		and	r3, r3, #31
 2194              		.loc 1 1219 23 discriminator 1
 2195 0318 22FA03F3 		lsr	r3, r2, r3
 2196 031c 3B61     		str	r3, [r7, #16]
1220:Drivers/STM32H7xx_HAL_Driver/Src/stm32h7xx_hal_rcc.c **** #else
1221:Drivers/STM32H7xx_HAL_Driver/Src/stm32h7xx_hal_rcc.c ****   common_system_clock = HAL_RCC_GetSysClockFreq() >> ((D1CorePrescTable[(RCC->CDCFGR1 & RCC_CDCFGR1
1222:Drivers/STM32H7xx_HAL_Driver/Src/stm32h7xx_hal_rcc.c **** #endif
1223:Drivers/STM32H7xx_HAL_Driver/Src/stm32h7xx_hal_rcc.c **** 
1224:Drivers/STM32H7xx_HAL_Driver/Src/stm32h7xx_hal_rcc.c **** #if defined(RCC_D1CFGR_HPRE)
1225:Drivers/STM32H7xx_HAL_Driver/Src/stm32h7xx_hal_rcc.c ****   SystemD2Clock = (common_system_clock >> ((D1CorePrescTable[(RCC->D1CFGR & RCC_D1CFGR_HPRE) >> RCC
 2197              		.loc 1 1225 66
ARM GAS  C:\Users\fffff\AppData\Local\Temp\ccLkBlD6.s 			page 62


 2198 031e 0E4B     		ldr	r3, .L125
 2199 0320 9B69     		ldr	r3, [r3, #24]
 2200              		.loc 1 1225 94
 2201 0322 03F00F03 		and	r3, r3, #15
 2202              		.loc 1 1225 61
 2203 0326 0D4A     		ldr	r2, .L125+4
 2204 0328 D35C     		ldrb	r3, [r2, r3]	@ zero_extendqisi2
 2205              		.loc 1 1225 119
 2206 032a 03F01F03 		and	r3, r3, #31
 2207              		.loc 1 1225 40
 2208 032e 3A69     		ldr	r2, [r7, #16]
 2209 0330 22FA03F3 		lsr	r3, r2, r3
 2210              		.loc 1 1225 17
 2211 0334 0A4A     		ldr	r2, .L125+8
 2212 0336 1360     		str	r3, [r2]
1226:Drivers/STM32H7xx_HAL_Driver/Src/stm32h7xx_hal_rcc.c **** #else
1227:Drivers/STM32H7xx_HAL_Driver/Src/stm32h7xx_hal_rcc.c ****   SystemD2Clock = (common_system_clock >> ((D1CorePrescTable[(RCC->CDCFGR1 & RCC_CDCFGR1_HPRE) >> R
1228:Drivers/STM32H7xx_HAL_Driver/Src/stm32h7xx_hal_rcc.c **** #endif
1229:Drivers/STM32H7xx_HAL_Driver/Src/stm32h7xx_hal_rcc.c **** 
1230:Drivers/STM32H7xx_HAL_Driver/Src/stm32h7xx_hal_rcc.c **** #if defined(DUAL_CORE) && defined(CORE_CM4)
1231:Drivers/STM32H7xx_HAL_Driver/Src/stm32h7xx_hal_rcc.c ****   SystemCoreClock = SystemD2Clock;
1232:Drivers/STM32H7xx_HAL_Driver/Src/stm32h7xx_hal_rcc.c **** #else
1233:Drivers/STM32H7xx_HAL_Driver/Src/stm32h7xx_hal_rcc.c ****   SystemCoreClock = common_system_clock;
 2213              		.loc 1 1233 19
 2214 0338 0A4A     		ldr	r2, .L125+12
 2215 033a 3B69     		ldr	r3, [r7, #16]
 2216 033c 1360     		str	r3, [r2]
1234:Drivers/STM32H7xx_HAL_Driver/Src/stm32h7xx_hal_rcc.c **** #endif /* DUAL_CORE && CORE_CM4 */
1235:Drivers/STM32H7xx_HAL_Driver/Src/stm32h7xx_hal_rcc.c **** 
1236:Drivers/STM32H7xx_HAL_Driver/Src/stm32h7xx_hal_rcc.c ****   /* Configure the source of time base considering new system clocks settings*/
1237:Drivers/STM32H7xx_HAL_Driver/Src/stm32h7xx_hal_rcc.c ****   halstatus = HAL_InitTick(uwTickPrio);
 2217              		.loc 1 1237 15
 2218 033e 0A4B     		ldr	r3, .L125+16
 2219 0340 1B68     		ldr	r3, [r3]
 2220 0342 1846     		mov	r0, r3
 2221 0344 FFF7FEFF 		bl	HAL_InitTick
 2222 0348 0346     		mov	r3, r0
 2223 034a FB73     		strb	r3, [r7, #15]
1238:Drivers/STM32H7xx_HAL_Driver/Src/stm32h7xx_hal_rcc.c **** 
1239:Drivers/STM32H7xx_HAL_Driver/Src/stm32h7xx_hal_rcc.c ****   return halstatus;
 2224              		.loc 1 1239 10
 2225 034c FB7B     		ldrb	r3, [r7, #15]	@ zero_extendqisi2
 2226              	.L103:
1240:Drivers/STM32H7xx_HAL_Driver/Src/stm32h7xx_hal_rcc.c **** }
 2227              		.loc 1 1240 1
 2228 034e 1846     		mov	r0, r3
 2229 0350 1837     		adds	r7, r7, #24
 2230              	.LCFI13:
 2231              		.cfi_def_cfa_offset 8
 2232 0352 BD46     		mov	sp, r7
 2233              	.LCFI14:
 2234              		.cfi_def_cfa_register 13
 2235              		@ sp needed
 2236 0354 80BD     		pop	{r7, pc}
 2237              	.L126:
 2238 0356 00BF     		.align	2
 2239              	.L125:
ARM GAS  C:\Users\fffff\AppData\Local\Temp\ccLkBlD6.s 			page 63


 2240 0358 00440258 		.word	1476543488
 2241 035c 00000000 		.word	D1CorePrescTable
 2242 0360 00000000 		.word	SystemD2Clock
 2243 0364 00000000 		.word	SystemCoreClock
 2244 0368 00000000 		.word	uwTickPrio
 2245              		.cfi_endproc
 2246              	.LFE146:
 2248              		.section	.text.HAL_RCC_MCOConfig,"ax",%progbits
 2249              		.align	1
 2250              		.global	HAL_RCC_MCOConfig
 2251              		.syntax unified
 2252              		.thumb
 2253              		.thumb_func
 2255              	HAL_RCC_MCOConfig:
 2256              	.LFB147:
1241:Drivers/STM32H7xx_HAL_Driver/Src/stm32h7xx_hal_rcc.c **** 
1242:Drivers/STM32H7xx_HAL_Driver/Src/stm32h7xx_hal_rcc.c **** /**
1243:Drivers/STM32H7xx_HAL_Driver/Src/stm32h7xx_hal_rcc.c ****   * @}
1244:Drivers/STM32H7xx_HAL_Driver/Src/stm32h7xx_hal_rcc.c ****   */
1245:Drivers/STM32H7xx_HAL_Driver/Src/stm32h7xx_hal_rcc.c **** 
1246:Drivers/STM32H7xx_HAL_Driver/Src/stm32h7xx_hal_rcc.c **** /** @defgroup RCC_Exported_Functions_Group2 Peripheral Control functions
1247:Drivers/STM32H7xx_HAL_Driver/Src/stm32h7xx_hal_rcc.c ****  *  @brief   RCC clocks control functions
1248:Drivers/STM32H7xx_HAL_Driver/Src/stm32h7xx_hal_rcc.c ****  *
1249:Drivers/STM32H7xx_HAL_Driver/Src/stm32h7xx_hal_rcc.c **** @verbatim
1250:Drivers/STM32H7xx_HAL_Driver/Src/stm32h7xx_hal_rcc.c ****  ===============================================================================
1251:Drivers/STM32H7xx_HAL_Driver/Src/stm32h7xx_hal_rcc.c ****                       ##### Peripheral Control functions #####
1252:Drivers/STM32H7xx_HAL_Driver/Src/stm32h7xx_hal_rcc.c ****  ===============================================================================
1253:Drivers/STM32H7xx_HAL_Driver/Src/stm32h7xx_hal_rcc.c ****     [..]
1254:Drivers/STM32H7xx_HAL_Driver/Src/stm32h7xx_hal_rcc.c ****     This subsection provides a set of functions allowing to control the RCC Clocks
1255:Drivers/STM32H7xx_HAL_Driver/Src/stm32h7xx_hal_rcc.c ****     frequencies.
1256:Drivers/STM32H7xx_HAL_Driver/Src/stm32h7xx_hal_rcc.c **** 
1257:Drivers/STM32H7xx_HAL_Driver/Src/stm32h7xx_hal_rcc.c **** @endverbatim
1258:Drivers/STM32H7xx_HAL_Driver/Src/stm32h7xx_hal_rcc.c ****   * @{
1259:Drivers/STM32H7xx_HAL_Driver/Src/stm32h7xx_hal_rcc.c ****   */
1260:Drivers/STM32H7xx_HAL_Driver/Src/stm32h7xx_hal_rcc.c **** 
1261:Drivers/STM32H7xx_HAL_Driver/Src/stm32h7xx_hal_rcc.c **** /**
1262:Drivers/STM32H7xx_HAL_Driver/Src/stm32h7xx_hal_rcc.c ****   * @brief  Selects the clock source to output on MCO1 pin(PA8) or on MCO2 pin(PC9).
1263:Drivers/STM32H7xx_HAL_Driver/Src/stm32h7xx_hal_rcc.c ****   * @note   PA8/PC9 should be configured in alternate function mode.
1264:Drivers/STM32H7xx_HAL_Driver/Src/stm32h7xx_hal_rcc.c ****   * @param  RCC_MCOx: specifies the output direction for the clock source.
1265:Drivers/STM32H7xx_HAL_Driver/Src/stm32h7xx_hal_rcc.c ****   *          This parameter can be one of the following values:
1266:Drivers/STM32H7xx_HAL_Driver/Src/stm32h7xx_hal_rcc.c ****   *            @arg RCC_MCO1: Clock source to output on MCO1 pin(PA8).
1267:Drivers/STM32H7xx_HAL_Driver/Src/stm32h7xx_hal_rcc.c ****   *            @arg RCC_MCO2: Clock source to output on MCO2 pin(PC9).
1268:Drivers/STM32H7xx_HAL_Driver/Src/stm32h7xx_hal_rcc.c ****   * @param  RCC_MCOSource: specifies the clock source to output.
1269:Drivers/STM32H7xx_HAL_Driver/Src/stm32h7xx_hal_rcc.c ****   *          This parameter can be one of the following values:
1270:Drivers/STM32H7xx_HAL_Driver/Src/stm32h7xx_hal_rcc.c ****   *            @arg RCC_MCO1SOURCE_HSI: HSI clock selected as MCO1 source
1271:Drivers/STM32H7xx_HAL_Driver/Src/stm32h7xx_hal_rcc.c ****   *            @arg RCC_MCO1SOURCE_LSE: LSE clock selected as MCO1 source
1272:Drivers/STM32H7xx_HAL_Driver/Src/stm32h7xx_hal_rcc.c ****   *            @arg RCC_MCO1SOURCE_HSE: HSE clock selected as MCO1 source
1273:Drivers/STM32H7xx_HAL_Driver/Src/stm32h7xx_hal_rcc.c ****   *            @arg RCC_MCO1SOURCE_PLL1QCLK:  PLL1Q clock selected as MCO1 source
1274:Drivers/STM32H7xx_HAL_Driver/Src/stm32h7xx_hal_rcc.c ****   *            @arg RCC_MCO1SOURCE_HSI48: HSI48 (48MHZ) selected as MCO1 source
1275:Drivers/STM32H7xx_HAL_Driver/Src/stm32h7xx_hal_rcc.c ****   *            @arg RCC_MCO2SOURCE_SYSCLK: System clock (SYSCLK) selected as MCO2 source
1276:Drivers/STM32H7xx_HAL_Driver/Src/stm32h7xx_hal_rcc.c ****   *            @arg RCC_MCO2SOURCE_PLL2PCLK: PLL2P clock selected as MCO2 source
1277:Drivers/STM32H7xx_HAL_Driver/Src/stm32h7xx_hal_rcc.c ****   *            @arg RCC_MCO2SOURCE_HSE: HSE clock selected as MCO2 source
1278:Drivers/STM32H7xx_HAL_Driver/Src/stm32h7xx_hal_rcc.c ****   *            @arg RCC_MCO2SOURCE_PLLCLK:  PLL1P clock selected as MCO2 source
1279:Drivers/STM32H7xx_HAL_Driver/Src/stm32h7xx_hal_rcc.c ****   *            @arg RCC_MCO2SOURCE_CSICLK:  CSI clock selected as MCO2 source
1280:Drivers/STM32H7xx_HAL_Driver/Src/stm32h7xx_hal_rcc.c ****   *            @arg RCC_MCO2SOURCE_LSICLK:  LSI clock selected as MCO2 source
1281:Drivers/STM32H7xx_HAL_Driver/Src/stm32h7xx_hal_rcc.c ****   * @param  RCC_MCODiv: specifies the MCOx pre-scaler.
1282:Drivers/STM32H7xx_HAL_Driver/Src/stm32h7xx_hal_rcc.c ****   *          This parameter can be one of the following values:
ARM GAS  C:\Users\fffff\AppData\Local\Temp\ccLkBlD6.s 			page 64


1283:Drivers/STM32H7xx_HAL_Driver/Src/stm32h7xx_hal_rcc.c ****   *            @arg RCC_MCODIV_1 up to RCC_MCODIV_15  : divider applied to MCOx clock
1284:Drivers/STM32H7xx_HAL_Driver/Src/stm32h7xx_hal_rcc.c ****   * @retval None
1285:Drivers/STM32H7xx_HAL_Driver/Src/stm32h7xx_hal_rcc.c ****   */
1286:Drivers/STM32H7xx_HAL_Driver/Src/stm32h7xx_hal_rcc.c **** void HAL_RCC_MCOConfig(uint32_t RCC_MCOx, uint32_t RCC_MCOSource, uint32_t RCC_MCODiv)
1287:Drivers/STM32H7xx_HAL_Driver/Src/stm32h7xx_hal_rcc.c **** {
 2257              		.loc 1 1287 1
 2258              		.cfi_startproc
 2259              		@ args = 0, pretend = 0, frame = 48
 2260              		@ frame_needed = 1, uses_anonymous_args = 0
 2261 0000 80B5     		push	{r7, lr}
 2262              	.LCFI15:
 2263              		.cfi_def_cfa_offset 8
 2264              		.cfi_offset 7, -8
 2265              		.cfi_offset 14, -4
 2266 0002 8CB0     		sub	sp, sp, #48
 2267              	.LCFI16:
 2268              		.cfi_def_cfa_offset 56
 2269 0004 00AF     		add	r7, sp, #0
 2270              	.LCFI17:
 2271              		.cfi_def_cfa_register 7
 2272 0006 F860     		str	r0, [r7, #12]
 2273 0008 B960     		str	r1, [r7, #8]
 2274 000a 7A60     		str	r2, [r7, #4]
1288:Drivers/STM32H7xx_HAL_Driver/Src/stm32h7xx_hal_rcc.c ****   GPIO_InitTypeDef GPIO_InitStruct;
1289:Drivers/STM32H7xx_HAL_Driver/Src/stm32h7xx_hal_rcc.c ****   /* Check the parameters */
1290:Drivers/STM32H7xx_HAL_Driver/Src/stm32h7xx_hal_rcc.c ****   assert_param(IS_RCC_MCO(RCC_MCOx));
1291:Drivers/STM32H7xx_HAL_Driver/Src/stm32h7xx_hal_rcc.c ****   assert_param(IS_RCC_MCODIV(RCC_MCODiv));
1292:Drivers/STM32H7xx_HAL_Driver/Src/stm32h7xx_hal_rcc.c ****   /* RCC_MCO1 */
1293:Drivers/STM32H7xx_HAL_Driver/Src/stm32h7xx_hal_rcc.c ****   if (RCC_MCOx == RCC_MCO1)
 2275              		.loc 1 1293 6
 2276 000c FB68     		ldr	r3, [r7, #12]
 2277 000e 002B     		cmp	r3, #0
 2278 0010 2AD1     		bne	.L128
 2279              	.LBB5:
1294:Drivers/STM32H7xx_HAL_Driver/Src/stm32h7xx_hal_rcc.c ****   {
1295:Drivers/STM32H7xx_HAL_Driver/Src/stm32h7xx_hal_rcc.c ****     assert_param(IS_RCC_MCO1SOURCE(RCC_MCOSource));
1296:Drivers/STM32H7xx_HAL_Driver/Src/stm32h7xx_hal_rcc.c **** 
1297:Drivers/STM32H7xx_HAL_Driver/Src/stm32h7xx_hal_rcc.c ****     /* MCO1 Clock Enable */
1298:Drivers/STM32H7xx_HAL_Driver/Src/stm32h7xx_hal_rcc.c ****     MCO1_CLK_ENABLE();
 2280              		.loc 1 1298 5
 2281 0012 2D4B     		ldr	r3, .L131
 2282 0014 D3F8E030 		ldr	r3, [r3, #224]
 2283 0018 2B4A     		ldr	r2, .L131
 2284 001a 43F00103 		orr	r3, r3, #1
 2285 001e C2F8E030 		str	r3, [r2, #224]
 2286 0022 294B     		ldr	r3, .L131
 2287 0024 D3F8E030 		ldr	r3, [r3, #224]
 2288 0028 03F00103 		and	r3, r3, #1
 2289 002c BB61     		str	r3, [r7, #24]
 2290 002e BB69     		ldr	r3, [r7, #24]
 2291              	.LBE5:
1299:Drivers/STM32H7xx_HAL_Driver/Src/stm32h7xx_hal_rcc.c **** 
1300:Drivers/STM32H7xx_HAL_Driver/Src/stm32h7xx_hal_rcc.c ****     /* Configure the MCO1 pin in alternate function mode */
1301:Drivers/STM32H7xx_HAL_Driver/Src/stm32h7xx_hal_rcc.c ****     GPIO_InitStruct.Pin = MCO1_PIN;
 2292              		.loc 1 1301 25
 2293 0030 4FF48073 		mov	r3, #256
 2294 0034 FB61     		str	r3, [r7, #28]
ARM GAS  C:\Users\fffff\AppData\Local\Temp\ccLkBlD6.s 			page 65


1302:Drivers/STM32H7xx_HAL_Driver/Src/stm32h7xx_hal_rcc.c ****     GPIO_InitStruct.Mode = GPIO_MODE_AF_PP;
 2295              		.loc 1 1302 26
 2296 0036 0223     		movs	r3, #2
 2297 0038 3B62     		str	r3, [r7, #32]
1303:Drivers/STM32H7xx_HAL_Driver/Src/stm32h7xx_hal_rcc.c ****     GPIO_InitStruct.Speed = GPIO_SPEED_FREQ_VERY_HIGH;
 2298              		.loc 1 1303 27
 2299 003a 0323     		movs	r3, #3
 2300 003c BB62     		str	r3, [r7, #40]
1304:Drivers/STM32H7xx_HAL_Driver/Src/stm32h7xx_hal_rcc.c ****     GPIO_InitStruct.Pull = GPIO_NOPULL;
 2301              		.loc 1 1304 26
 2302 003e 0023     		movs	r3, #0
 2303 0040 7B62     		str	r3, [r7, #36]
1305:Drivers/STM32H7xx_HAL_Driver/Src/stm32h7xx_hal_rcc.c ****     GPIO_InitStruct.Alternate = GPIO_AF0_MCO;
 2304              		.loc 1 1305 31
 2305 0042 0023     		movs	r3, #0
 2306 0044 FB62     		str	r3, [r7, #44]
1306:Drivers/STM32H7xx_HAL_Driver/Src/stm32h7xx_hal_rcc.c ****     HAL_GPIO_Init(MCO1_GPIO_PORT, &GPIO_InitStruct);
 2307              		.loc 1 1306 5
 2308 0046 07F11C03 		add	r3, r7, #28
 2309 004a 1946     		mov	r1, r3
 2310 004c 1F48     		ldr	r0, .L131+4
 2311 004e FFF7FEFF 		bl	HAL_GPIO_Init
1307:Drivers/STM32H7xx_HAL_Driver/Src/stm32h7xx_hal_rcc.c **** 
1308:Drivers/STM32H7xx_HAL_Driver/Src/stm32h7xx_hal_rcc.c ****     /* Mask MCO1 and MCO1PRE[3:0] bits then Select MCO1 clock source and pre-scaler */
1309:Drivers/STM32H7xx_HAL_Driver/Src/stm32h7xx_hal_rcc.c ****     MODIFY_REG(RCC->CFGR, (RCC_CFGR_MCO1 | RCC_CFGR_MCO1PRE), (RCC_MCOSource | RCC_MCODiv));
 2312              		.loc 1 1309 5
 2313 0052 1D4B     		ldr	r3, .L131
 2314 0054 1B69     		ldr	r3, [r3, #16]
 2315 0056 23F0FE72 		bic	r2, r3, #33292288
 2316 005a B968     		ldr	r1, [r7, #8]
 2317 005c 7B68     		ldr	r3, [r7, #4]
 2318 005e 0B43     		orrs	r3, r3, r1
 2319 0060 1949     		ldr	r1, .L131
 2320 0062 1343     		orrs	r3, r3, r2
 2321 0064 0B61     		str	r3, [r1, #16]
1310:Drivers/STM32H7xx_HAL_Driver/Src/stm32h7xx_hal_rcc.c ****   }
1311:Drivers/STM32H7xx_HAL_Driver/Src/stm32h7xx_hal_rcc.c ****   else
1312:Drivers/STM32H7xx_HAL_Driver/Src/stm32h7xx_hal_rcc.c ****   {
1313:Drivers/STM32H7xx_HAL_Driver/Src/stm32h7xx_hal_rcc.c ****     assert_param(IS_RCC_MCO2SOURCE(RCC_MCOSource));
1314:Drivers/STM32H7xx_HAL_Driver/Src/stm32h7xx_hal_rcc.c **** 
1315:Drivers/STM32H7xx_HAL_Driver/Src/stm32h7xx_hal_rcc.c ****     /* MCO2 Clock Enable */
1316:Drivers/STM32H7xx_HAL_Driver/Src/stm32h7xx_hal_rcc.c ****     MCO2_CLK_ENABLE();
1317:Drivers/STM32H7xx_HAL_Driver/Src/stm32h7xx_hal_rcc.c **** 
1318:Drivers/STM32H7xx_HAL_Driver/Src/stm32h7xx_hal_rcc.c ****     /* Configure the MCO2 pin in alternate function mode */
1319:Drivers/STM32H7xx_HAL_Driver/Src/stm32h7xx_hal_rcc.c ****     GPIO_InitStruct.Pin = MCO2_PIN;
1320:Drivers/STM32H7xx_HAL_Driver/Src/stm32h7xx_hal_rcc.c ****     GPIO_InitStruct.Mode = GPIO_MODE_AF_PP;
1321:Drivers/STM32H7xx_HAL_Driver/Src/stm32h7xx_hal_rcc.c ****     GPIO_InitStruct.Speed = GPIO_SPEED_FREQ_VERY_HIGH;
1322:Drivers/STM32H7xx_HAL_Driver/Src/stm32h7xx_hal_rcc.c ****     GPIO_InitStruct.Pull = GPIO_NOPULL;
1323:Drivers/STM32H7xx_HAL_Driver/Src/stm32h7xx_hal_rcc.c ****     GPIO_InitStruct.Alternate = GPIO_AF0_MCO;
1324:Drivers/STM32H7xx_HAL_Driver/Src/stm32h7xx_hal_rcc.c ****     HAL_GPIO_Init(MCO2_GPIO_PORT, &GPIO_InitStruct);
1325:Drivers/STM32H7xx_HAL_Driver/Src/stm32h7xx_hal_rcc.c **** 
1326:Drivers/STM32H7xx_HAL_Driver/Src/stm32h7xx_hal_rcc.c ****     /* Mask MCO2 and MCO2PRE[3:0] bits then Select MCO2 clock source and pre-scaler */
1327:Drivers/STM32H7xx_HAL_Driver/Src/stm32h7xx_hal_rcc.c ****     MODIFY_REG(RCC->CFGR, (RCC_CFGR_MCO2 | RCC_CFGR_MCO2PRE), (RCC_MCOSource | (RCC_MCODiv << 7U)))
1328:Drivers/STM32H7xx_HAL_Driver/Src/stm32h7xx_hal_rcc.c ****   }
1329:Drivers/STM32H7xx_HAL_Driver/Src/stm32h7xx_hal_rcc.c **** }
 2322              		.loc 1 1329 1
 2323 0066 2AE0     		b	.L130
ARM GAS  C:\Users\fffff\AppData\Local\Temp\ccLkBlD6.s 			page 66


 2324              	.L128:
 2325              	.LBB6:
1316:Drivers/STM32H7xx_HAL_Driver/Src/stm32h7xx_hal_rcc.c **** 
 2326              		.loc 1 1316 5
 2327 0068 174B     		ldr	r3, .L131
 2328 006a D3F8E030 		ldr	r3, [r3, #224]
 2329 006e 164A     		ldr	r2, .L131
 2330 0070 43F00403 		orr	r3, r3, #4
 2331 0074 C2F8E030 		str	r3, [r2, #224]
 2332 0078 134B     		ldr	r3, .L131
 2333 007a D3F8E030 		ldr	r3, [r3, #224]
 2334 007e 03F00403 		and	r3, r3, #4
 2335 0082 7B61     		str	r3, [r7, #20]
 2336 0084 7B69     		ldr	r3, [r7, #20]
 2337              	.LBE6:
1319:Drivers/STM32H7xx_HAL_Driver/Src/stm32h7xx_hal_rcc.c ****     GPIO_InitStruct.Mode = GPIO_MODE_AF_PP;
 2338              		.loc 1 1319 25
 2339 0086 4FF40073 		mov	r3, #512
 2340 008a FB61     		str	r3, [r7, #28]
1320:Drivers/STM32H7xx_HAL_Driver/Src/stm32h7xx_hal_rcc.c ****     GPIO_InitStruct.Speed = GPIO_SPEED_FREQ_VERY_HIGH;
 2341              		.loc 1 1320 26
 2342 008c 0223     		movs	r3, #2
 2343 008e 3B62     		str	r3, [r7, #32]
1321:Drivers/STM32H7xx_HAL_Driver/Src/stm32h7xx_hal_rcc.c ****     GPIO_InitStruct.Pull = GPIO_NOPULL;
 2344              		.loc 1 1321 27
 2345 0090 0323     		movs	r3, #3
 2346 0092 BB62     		str	r3, [r7, #40]
1322:Drivers/STM32H7xx_HAL_Driver/Src/stm32h7xx_hal_rcc.c ****     GPIO_InitStruct.Alternate = GPIO_AF0_MCO;
 2347              		.loc 1 1322 26
 2348 0094 0023     		movs	r3, #0
 2349 0096 7B62     		str	r3, [r7, #36]
1323:Drivers/STM32H7xx_HAL_Driver/Src/stm32h7xx_hal_rcc.c ****     HAL_GPIO_Init(MCO2_GPIO_PORT, &GPIO_InitStruct);
 2350              		.loc 1 1323 31
 2351 0098 0023     		movs	r3, #0
 2352 009a FB62     		str	r3, [r7, #44]
1324:Drivers/STM32H7xx_HAL_Driver/Src/stm32h7xx_hal_rcc.c **** 
 2353              		.loc 1 1324 5
 2354 009c 07F11C03 		add	r3, r7, #28
 2355 00a0 1946     		mov	r1, r3
 2356 00a2 0B48     		ldr	r0, .L131+8
 2357 00a4 FFF7FEFF 		bl	HAL_GPIO_Init
1327:Drivers/STM32H7xx_HAL_Driver/Src/stm32h7xx_hal_rcc.c ****   }
 2358              		.loc 1 1327 5
 2359 00a8 074B     		ldr	r3, .L131
 2360 00aa 1B69     		ldr	r3, [r3, #16]
 2361 00ac 23F07E42 		bic	r2, r3, #-33554432
 2362 00b0 7B68     		ldr	r3, [r7, #4]
 2363 00b2 D901     		lsls	r1, r3, #7
 2364 00b4 BB68     		ldr	r3, [r7, #8]
 2365 00b6 0B43     		orrs	r3, r3, r1
 2366 00b8 0349     		ldr	r1, .L131
 2367 00ba 1343     		orrs	r3, r3, r2
 2368 00bc 0B61     		str	r3, [r1, #16]
 2369              	.L130:
 2370              		.loc 1 1329 1
 2371 00be 00BF     		nop
 2372 00c0 3037     		adds	r7, r7, #48
ARM GAS  C:\Users\fffff\AppData\Local\Temp\ccLkBlD6.s 			page 67


 2373              	.LCFI18:
 2374              		.cfi_def_cfa_offset 8
 2375 00c2 BD46     		mov	sp, r7
 2376              	.LCFI19:
 2377              		.cfi_def_cfa_register 13
 2378              		@ sp needed
 2379 00c4 80BD     		pop	{r7, pc}
 2380              	.L132:
 2381 00c6 00BF     		.align	2
 2382              	.L131:
 2383 00c8 00440258 		.word	1476543488
 2384 00cc 00000258 		.word	1476526080
 2385 00d0 00080258 		.word	1476528128
 2386              		.cfi_endproc
 2387              	.LFE147:
 2389              		.section	.text.HAL_RCC_EnableCSS,"ax",%progbits
 2390              		.align	1
 2391              		.global	HAL_RCC_EnableCSS
 2392              		.syntax unified
 2393              		.thumb
 2394              		.thumb_func
 2396              	HAL_RCC_EnableCSS:
 2397              	.LFB148:
1330:Drivers/STM32H7xx_HAL_Driver/Src/stm32h7xx_hal_rcc.c **** 
1331:Drivers/STM32H7xx_HAL_Driver/Src/stm32h7xx_hal_rcc.c **** /**
1332:Drivers/STM32H7xx_HAL_Driver/Src/stm32h7xx_hal_rcc.c ****   * @brief  Enables the Clock Security System.
1333:Drivers/STM32H7xx_HAL_Driver/Src/stm32h7xx_hal_rcc.c ****   * @note   If a failure is detected on the HSE oscillator clock, this oscillator
1334:Drivers/STM32H7xx_HAL_Driver/Src/stm32h7xx_hal_rcc.c ****   *         is automatically disabled and an interrupt is generated to inform the
1335:Drivers/STM32H7xx_HAL_Driver/Src/stm32h7xx_hal_rcc.c ****   *         software about the failure (Clock Security System Interrupt, CSSI),
1336:Drivers/STM32H7xx_HAL_Driver/Src/stm32h7xx_hal_rcc.c ****   *         allowing the MCU to perform rescue operations. The CSSI is linked to
1337:Drivers/STM32H7xx_HAL_Driver/Src/stm32h7xx_hal_rcc.c ****   *         the Cortex-M NMI (Non-Mask-able Interrupt) exception vector.
1338:Drivers/STM32H7xx_HAL_Driver/Src/stm32h7xx_hal_rcc.c ****   * @retval None
1339:Drivers/STM32H7xx_HAL_Driver/Src/stm32h7xx_hal_rcc.c ****   */
1340:Drivers/STM32H7xx_HAL_Driver/Src/stm32h7xx_hal_rcc.c **** void HAL_RCC_EnableCSS(void)
1341:Drivers/STM32H7xx_HAL_Driver/Src/stm32h7xx_hal_rcc.c **** {
 2398              		.loc 1 1341 1
 2399              		.cfi_startproc
 2400              		@ args = 0, pretend = 0, frame = 0
 2401              		@ frame_needed = 1, uses_anonymous_args = 0
 2402              		@ link register save eliminated.
 2403 0000 80B4     		push	{r7}
 2404              	.LCFI20:
 2405              		.cfi_def_cfa_offset 4
 2406              		.cfi_offset 7, -4
 2407 0002 00AF     		add	r7, sp, #0
 2408              	.LCFI21:
 2409              		.cfi_def_cfa_register 7
1342:Drivers/STM32H7xx_HAL_Driver/Src/stm32h7xx_hal_rcc.c ****   SET_BIT(RCC->CR, RCC_CR_CSSHSEON) ;
 2410              		.loc 1 1342 3
 2411 0004 054B     		ldr	r3, .L134
 2412 0006 1B68     		ldr	r3, [r3]
 2413 0008 044A     		ldr	r2, .L134
 2414 000a 43F40023 		orr	r3, r3, #524288
 2415 000e 1360     		str	r3, [r2]
1343:Drivers/STM32H7xx_HAL_Driver/Src/stm32h7xx_hal_rcc.c **** }
 2416              		.loc 1 1343 1
 2417 0010 00BF     		nop
ARM GAS  C:\Users\fffff\AppData\Local\Temp\ccLkBlD6.s 			page 68


 2418 0012 BD46     		mov	sp, r7
 2419              	.LCFI22:
 2420              		.cfi_def_cfa_register 13
 2421              		@ sp needed
 2422 0014 5DF8047B 		ldr	r7, [sp], #4
 2423              	.LCFI23:
 2424              		.cfi_restore 7
 2425              		.cfi_def_cfa_offset 0
 2426 0018 7047     		bx	lr
 2427              	.L135:
 2428 001a 00BF     		.align	2
 2429              	.L134:
 2430 001c 00440258 		.word	1476543488
 2431              		.cfi_endproc
 2432              	.LFE148:
 2434              		.section	.text.HAL_RCC_DisableCSS,"ax",%progbits
 2435              		.align	1
 2436              		.global	HAL_RCC_DisableCSS
 2437              		.syntax unified
 2438              		.thumb
 2439              		.thumb_func
 2441              	HAL_RCC_DisableCSS:
 2442              	.LFB149:
1344:Drivers/STM32H7xx_HAL_Driver/Src/stm32h7xx_hal_rcc.c **** 
1345:Drivers/STM32H7xx_HAL_Driver/Src/stm32h7xx_hal_rcc.c **** /**
1346:Drivers/STM32H7xx_HAL_Driver/Src/stm32h7xx_hal_rcc.c ****   * @brief  Disables the Clock Security System.
1347:Drivers/STM32H7xx_HAL_Driver/Src/stm32h7xx_hal_rcc.c ****   * @retval None
1348:Drivers/STM32H7xx_HAL_Driver/Src/stm32h7xx_hal_rcc.c ****   */
1349:Drivers/STM32H7xx_HAL_Driver/Src/stm32h7xx_hal_rcc.c **** void HAL_RCC_DisableCSS(void)
1350:Drivers/STM32H7xx_HAL_Driver/Src/stm32h7xx_hal_rcc.c **** {
 2443              		.loc 1 1350 1
 2444              		.cfi_startproc
 2445              		@ args = 0, pretend = 0, frame = 0
 2446              		@ frame_needed = 1, uses_anonymous_args = 0
 2447              		@ link register save eliminated.
 2448 0000 80B4     		push	{r7}
 2449              	.LCFI24:
 2450              		.cfi_def_cfa_offset 4
 2451              		.cfi_offset 7, -4
 2452 0002 00AF     		add	r7, sp, #0
 2453              	.LCFI25:
 2454              		.cfi_def_cfa_register 7
1351:Drivers/STM32H7xx_HAL_Driver/Src/stm32h7xx_hal_rcc.c ****   CLEAR_BIT(RCC->CR, RCC_CR_CSSHSEON);
 2455              		.loc 1 1351 3
 2456 0004 054B     		ldr	r3, .L137
 2457 0006 1B68     		ldr	r3, [r3]
 2458 0008 044A     		ldr	r2, .L137
 2459 000a 23F40023 		bic	r3, r3, #524288
 2460 000e 1360     		str	r3, [r2]
1352:Drivers/STM32H7xx_HAL_Driver/Src/stm32h7xx_hal_rcc.c **** }
 2461              		.loc 1 1352 1
 2462 0010 00BF     		nop
 2463 0012 BD46     		mov	sp, r7
 2464              	.LCFI26:
 2465              		.cfi_def_cfa_register 13
 2466              		@ sp needed
 2467 0014 5DF8047B 		ldr	r7, [sp], #4
ARM GAS  C:\Users\fffff\AppData\Local\Temp\ccLkBlD6.s 			page 69


 2468              	.LCFI27:
 2469              		.cfi_restore 7
 2470              		.cfi_def_cfa_offset 0
 2471 0018 7047     		bx	lr
 2472              	.L138:
 2473 001a 00BF     		.align	2
 2474              	.L137:
 2475 001c 00440258 		.word	1476543488
 2476              		.cfi_endproc
 2477              	.LFE149:
 2479              		.section	.text.HAL_RCC_GetSysClockFreq,"ax",%progbits
 2480              		.align	1
 2481              		.global	HAL_RCC_GetSysClockFreq
 2482              		.syntax unified
 2483              		.thumb
 2484              		.thumb_func
 2486              	HAL_RCC_GetSysClockFreq:
 2487              	.LFB150:
1353:Drivers/STM32H7xx_HAL_Driver/Src/stm32h7xx_hal_rcc.c **** 
1354:Drivers/STM32H7xx_HAL_Driver/Src/stm32h7xx_hal_rcc.c **** /**
1355:Drivers/STM32H7xx_HAL_Driver/Src/stm32h7xx_hal_rcc.c ****   * @brief  Returns the SYSCLK frequency
1356:Drivers/STM32H7xx_HAL_Driver/Src/stm32h7xx_hal_rcc.c ****   *
1357:Drivers/STM32H7xx_HAL_Driver/Src/stm32h7xx_hal_rcc.c ****   * @note   The system frequency computed by this function is not the real
1358:Drivers/STM32H7xx_HAL_Driver/Src/stm32h7xx_hal_rcc.c ****   *         frequency in the chip. It is calculated based on the predefined
1359:Drivers/STM32H7xx_HAL_Driver/Src/stm32h7xx_hal_rcc.c ****   *         constant and the selected clock source:
1360:Drivers/STM32H7xx_HAL_Driver/Src/stm32h7xx_hal_rcc.c ****   * @note     If SYSCLK source is CSI, function returns values based on CSI_VALUE(*)
1361:Drivers/STM32H7xx_HAL_Driver/Src/stm32h7xx_hal_rcc.c ****   * @note     If SYSCLK source is HSI, function returns values based on HSI_VALUE(**)
1362:Drivers/STM32H7xx_HAL_Driver/Src/stm32h7xx_hal_rcc.c ****   * @note     If SYSCLK source is HSE, function returns values based on HSE_VALUE(***)
1363:Drivers/STM32H7xx_HAL_Driver/Src/stm32h7xx_hal_rcc.c ****   * @note     If SYSCLK source is PLL, function returns values based on CSI_VALUE(*),
1364:Drivers/STM32H7xx_HAL_Driver/Src/stm32h7xx_hal_rcc.c ****   *           HSI_VALUE(**) or HSE_VALUE(***) multiplied/divided by the PLL factors.
1365:Drivers/STM32H7xx_HAL_Driver/Src/stm32h7xx_hal_rcc.c ****   * @note     (*) CSI_VALUE is a constant defined in stm32h7xx_hal_conf.h file (default value
1366:Drivers/STM32H7xx_HAL_Driver/Src/stm32h7xx_hal_rcc.c ****   *               4 MHz) but the real value may vary depending on the variations
1367:Drivers/STM32H7xx_HAL_Driver/Src/stm32h7xx_hal_rcc.c ****   *               in voltage and temperature.
1368:Drivers/STM32H7xx_HAL_Driver/Src/stm32h7xx_hal_rcc.c ****   * @note     (**) HSI_VALUE is a constant defined in stm32h7xx_hal_conf.h file (default value
1369:Drivers/STM32H7xx_HAL_Driver/Src/stm32h7xx_hal_rcc.c ****   *               64 MHz) but the real value may vary depending on the variations
1370:Drivers/STM32H7xx_HAL_Driver/Src/stm32h7xx_hal_rcc.c ****   *               in voltage and temperature.
1371:Drivers/STM32H7xx_HAL_Driver/Src/stm32h7xx_hal_rcc.c ****   * @note     (***) HSE_VALUE is a constant defined in stm32h7xx_hal_conf.h file (default value
1372:Drivers/STM32H7xx_HAL_Driver/Src/stm32h7xx_hal_rcc.c ****   *                25 MHz), user has to ensure that HSE_VALUE is same as the real
1373:Drivers/STM32H7xx_HAL_Driver/Src/stm32h7xx_hal_rcc.c ****   *                frequency of the crystal used. Otherwise, this function may
1374:Drivers/STM32H7xx_HAL_Driver/Src/stm32h7xx_hal_rcc.c ****   *                have wrong result.
1375:Drivers/STM32H7xx_HAL_Driver/Src/stm32h7xx_hal_rcc.c ****   *
1376:Drivers/STM32H7xx_HAL_Driver/Src/stm32h7xx_hal_rcc.c ****   * @note   The result of this function could be not correct when using fractional
1377:Drivers/STM32H7xx_HAL_Driver/Src/stm32h7xx_hal_rcc.c ****   *         value for HSE crystal.
1378:Drivers/STM32H7xx_HAL_Driver/Src/stm32h7xx_hal_rcc.c ****   *
1379:Drivers/STM32H7xx_HAL_Driver/Src/stm32h7xx_hal_rcc.c ****   * @note   This function can be used by the user application to compute the
1380:Drivers/STM32H7xx_HAL_Driver/Src/stm32h7xx_hal_rcc.c ****   *         baud rate for the communication peripherals or configure other parameters.
1381:Drivers/STM32H7xx_HAL_Driver/Src/stm32h7xx_hal_rcc.c ****   *
1382:Drivers/STM32H7xx_HAL_Driver/Src/stm32h7xx_hal_rcc.c ****   * @note   Each time SYSCLK changes, this function must be called to update the
1383:Drivers/STM32H7xx_HAL_Driver/Src/stm32h7xx_hal_rcc.c ****   *         right SYSCLK value. Otherwise, any configuration based on this function will be incorre
1384:Drivers/STM32H7xx_HAL_Driver/Src/stm32h7xx_hal_rcc.c ****   *
1385:Drivers/STM32H7xx_HAL_Driver/Src/stm32h7xx_hal_rcc.c ****   *
1386:Drivers/STM32H7xx_HAL_Driver/Src/stm32h7xx_hal_rcc.c ****   * @retval SYSCLK frequency
1387:Drivers/STM32H7xx_HAL_Driver/Src/stm32h7xx_hal_rcc.c ****   */
1388:Drivers/STM32H7xx_HAL_Driver/Src/stm32h7xx_hal_rcc.c **** uint32_t HAL_RCC_GetSysClockFreq(void)
1389:Drivers/STM32H7xx_HAL_Driver/Src/stm32h7xx_hal_rcc.c **** {
 2488              		.loc 1 1389 1
 2489              		.cfi_startproc
ARM GAS  C:\Users\fffff\AppData\Local\Temp\ccLkBlD6.s 			page 70


 2490              		@ args = 0, pretend = 0, frame = 32
 2491              		@ frame_needed = 1, uses_anonymous_args = 0
 2492              		@ link register save eliminated.
 2493 0000 80B4     		push	{r7}
 2494              	.LCFI28:
 2495              		.cfi_def_cfa_offset 4
 2496              		.cfi_offset 7, -4
 2497 0002 89B0     		sub	sp, sp, #36
 2498              	.LCFI29:
 2499              		.cfi_def_cfa_offset 40
 2500 0004 00AF     		add	r7, sp, #0
 2501              	.LCFI30:
 2502              		.cfi_def_cfa_register 7
1390:Drivers/STM32H7xx_HAL_Driver/Src/stm32h7xx_hal_rcc.c ****   uint32_t pllp, pllsource, pllm, pllfracen, hsivalue;
1391:Drivers/STM32H7xx_HAL_Driver/Src/stm32h7xx_hal_rcc.c ****   float_t fracn1, pllvco;
1392:Drivers/STM32H7xx_HAL_Driver/Src/stm32h7xx_hal_rcc.c ****   uint32_t sysclockfreq;
1393:Drivers/STM32H7xx_HAL_Driver/Src/stm32h7xx_hal_rcc.c **** 
1394:Drivers/STM32H7xx_HAL_Driver/Src/stm32h7xx_hal_rcc.c ****   /* Get SYSCLK source -------------------------------------------------------*/
1395:Drivers/STM32H7xx_HAL_Driver/Src/stm32h7xx_hal_rcc.c **** 
1396:Drivers/STM32H7xx_HAL_Driver/Src/stm32h7xx_hal_rcc.c ****   switch (RCC->CFGR & RCC_CFGR_SWS)
 2503              		.loc 1 1396 14
 2504 0006 B34B     		ldr	r3, .L159
 2505 0008 1B69     		ldr	r3, [r3, #16]
 2506              		.loc 1 1396 21
 2507 000a 03F03803 		and	r3, r3, #56
 2508              		.loc 1 1396 3
 2509 000e 182B     		cmp	r3, #24
 2510 0010 00F25581 		bhi	.L140
 2511 0014 01A2     		adr	r2, .L142
 2512 0016 52F823F0 		ldr	pc, [r2, r3, lsl #2]
 2513 001a 00BF     		.p2align 2
 2514              	.L142:
 2515 001c 81000000 		.word	.L145+1
 2516 0020 BF020000 		.word	.L140+1
 2517 0024 BF020000 		.word	.L140+1
 2518 0028 BF020000 		.word	.L140+1
 2519 002c BF020000 		.word	.L140+1
 2520 0030 BF020000 		.word	.L140+1
 2521 0034 BF020000 		.word	.L140+1
 2522 0038 BF020000 		.word	.L140+1
 2523 003c A7000000 		.word	.L144+1
 2524 0040 BF020000 		.word	.L140+1
 2525 0044 BF020000 		.word	.L140+1
 2526 0048 BF020000 		.word	.L140+1
 2527 004c BF020000 		.word	.L140+1
 2528 0050 BF020000 		.word	.L140+1
 2529 0054 BF020000 		.word	.L140+1
 2530 0058 BF020000 		.word	.L140+1
 2531 005c AD000000 		.word	.L143+1
 2532 0060 BF020000 		.word	.L140+1
 2533 0064 BF020000 		.word	.L140+1
 2534 0068 BF020000 		.word	.L140+1
 2535 006c BF020000 		.word	.L140+1
 2536 0070 BF020000 		.word	.L140+1
 2537 0074 BF020000 		.word	.L140+1
 2538 0078 BF020000 		.word	.L140+1
 2539 007c B3000000 		.word	.L141+1
ARM GAS  C:\Users\fffff\AppData\Local\Temp\ccLkBlD6.s 			page 71


 2540              		.p2align 1
 2541              	.L145:
1397:Drivers/STM32H7xx_HAL_Driver/Src/stm32h7xx_hal_rcc.c ****   {
1398:Drivers/STM32H7xx_HAL_Driver/Src/stm32h7xx_hal_rcc.c ****     case RCC_CFGR_SWS_HSI:  /* HSI used as system clock source */
1399:Drivers/STM32H7xx_HAL_Driver/Src/stm32h7xx_hal_rcc.c **** 
1400:Drivers/STM32H7xx_HAL_Driver/Src/stm32h7xx_hal_rcc.c ****       if (__HAL_RCC_GET_FLAG(RCC_FLAG_HSIDIV) != 0U)
 2542              		.loc 1 1400 11
 2543 0080 944B     		ldr	r3, .L159
 2544 0082 1B68     		ldr	r3, [r3]
 2545 0084 03F02003 		and	r3, r3, #32
 2546              		.loc 1 1400 10
 2547 0088 002B     		cmp	r3, #0
 2548 008a 09D0     		beq	.L146
1401:Drivers/STM32H7xx_HAL_Driver/Src/stm32h7xx_hal_rcc.c ****       {
1402:Drivers/STM32H7xx_HAL_Driver/Src/stm32h7xx_hal_rcc.c ****         sysclockfreq = (uint32_t)(HSI_VALUE >> (__HAL_RCC_GET_HSI_DIVIDER() >> 3));
 2549              		.loc 1 1402 49
 2550 008c 914B     		ldr	r3, .L159
 2551 008e 1B68     		ldr	r3, [r3]
 2552              		.loc 1 1402 77
 2553 0090 DB08     		lsrs	r3, r3, #3
 2554 0092 03F00303 		and	r3, r3, #3
 2555              		.loc 1 1402 22
 2556 0096 904A     		ldr	r2, .L159+4
 2557 0098 22FA03F3 		lsr	r3, r2, r3
 2558 009c BB61     		str	r3, [r7, #24]
1403:Drivers/STM32H7xx_HAL_Driver/Src/stm32h7xx_hal_rcc.c ****       }
1404:Drivers/STM32H7xx_HAL_Driver/Src/stm32h7xx_hal_rcc.c ****       else
1405:Drivers/STM32H7xx_HAL_Driver/Src/stm32h7xx_hal_rcc.c ****       {
1406:Drivers/STM32H7xx_HAL_Driver/Src/stm32h7xx_hal_rcc.c ****         sysclockfreq = (uint32_t) HSI_VALUE;
1407:Drivers/STM32H7xx_HAL_Driver/Src/stm32h7xx_hal_rcc.c ****       }
1408:Drivers/STM32H7xx_HAL_Driver/Src/stm32h7xx_hal_rcc.c **** 
1409:Drivers/STM32H7xx_HAL_Driver/Src/stm32h7xx_hal_rcc.c ****       break;
 2559              		.loc 1 1409 7
 2560 009e 11E1     		b	.L148
 2561              	.L146:
1406:Drivers/STM32H7xx_HAL_Driver/Src/stm32h7xx_hal_rcc.c ****       }
 2562              		.loc 1 1406 22
 2563 00a0 8D4B     		ldr	r3, .L159+4
 2564 00a2 BB61     		str	r3, [r7, #24]
 2565              		.loc 1 1409 7
 2566 00a4 0EE1     		b	.L148
 2567              	.L144:
1410:Drivers/STM32H7xx_HAL_Driver/Src/stm32h7xx_hal_rcc.c **** 
1411:Drivers/STM32H7xx_HAL_Driver/Src/stm32h7xx_hal_rcc.c ****     case RCC_CFGR_SWS_CSI:  /* CSI used as system clock  source */
1412:Drivers/STM32H7xx_HAL_Driver/Src/stm32h7xx_hal_rcc.c ****       sysclockfreq = CSI_VALUE;
 2568              		.loc 1 1412 20
 2569 00a6 8D4B     		ldr	r3, .L159+8
 2570 00a8 BB61     		str	r3, [r7, #24]
1413:Drivers/STM32H7xx_HAL_Driver/Src/stm32h7xx_hal_rcc.c ****       break;
 2571              		.loc 1 1413 7
 2572 00aa 0BE1     		b	.L148
 2573              	.L143:
1414:Drivers/STM32H7xx_HAL_Driver/Src/stm32h7xx_hal_rcc.c **** 
1415:Drivers/STM32H7xx_HAL_Driver/Src/stm32h7xx_hal_rcc.c ****     case RCC_CFGR_SWS_HSE:  /* HSE used as system clock  source */
1416:Drivers/STM32H7xx_HAL_Driver/Src/stm32h7xx_hal_rcc.c ****       sysclockfreq = HSE_VALUE;
 2574              		.loc 1 1416 20
 2575 00ac 8C4B     		ldr	r3, .L159+12
ARM GAS  C:\Users\fffff\AppData\Local\Temp\ccLkBlD6.s 			page 72


 2576 00ae BB61     		str	r3, [r7, #24]
1417:Drivers/STM32H7xx_HAL_Driver/Src/stm32h7xx_hal_rcc.c ****       break;
 2577              		.loc 1 1417 7
 2578 00b0 08E1     		b	.L148
 2579              	.L141:
1418:Drivers/STM32H7xx_HAL_Driver/Src/stm32h7xx_hal_rcc.c **** 
1419:Drivers/STM32H7xx_HAL_Driver/Src/stm32h7xx_hal_rcc.c ****     case RCC_CFGR_SWS_PLL1:  /* PLL1 used as system clock  source */
1420:Drivers/STM32H7xx_HAL_Driver/Src/stm32h7xx_hal_rcc.c **** 
1421:Drivers/STM32H7xx_HAL_Driver/Src/stm32h7xx_hal_rcc.c ****       /* PLL_VCO = (HSE_VALUE or HSI_VALUE or CSI_VALUE/ PLLM) * PLLN
1422:Drivers/STM32H7xx_HAL_Driver/Src/stm32h7xx_hal_rcc.c ****       SYSCLK = PLL_VCO / PLLR
1423:Drivers/STM32H7xx_HAL_Driver/Src/stm32h7xx_hal_rcc.c ****       */
1424:Drivers/STM32H7xx_HAL_Driver/Src/stm32h7xx_hal_rcc.c ****       pllsource = (RCC->PLLCKSELR & RCC_PLLCKSELR_PLLSRC);
 2580              		.loc 1 1424 23
 2581 00b2 884B     		ldr	r3, .L159
 2582 00b4 9B6A     		ldr	r3, [r3, #40]
 2583              		.loc 1 1424 17
 2584 00b6 03F00303 		and	r3, r3, #3
 2585 00ba 7B61     		str	r3, [r7, #20]
1425:Drivers/STM32H7xx_HAL_Driver/Src/stm32h7xx_hal_rcc.c ****       pllm = ((RCC->PLLCKSELR & RCC_PLLCKSELR_DIVM1) >> 4)  ;
 2586              		.loc 1 1425 19
 2587 00bc 854B     		ldr	r3, .L159
 2588 00be 9B6A     		ldr	r3, [r3, #40]
 2589              		.loc 1 1425 54
 2590 00c0 1B09     		lsrs	r3, r3, #4
 2591              		.loc 1 1425 12
 2592 00c2 03F03F03 		and	r3, r3, #63
 2593 00c6 3B61     		str	r3, [r7, #16]
1426:Drivers/STM32H7xx_HAL_Driver/Src/stm32h7xx_hal_rcc.c ****       pllfracen = ((RCC-> PLLCFGR & RCC_PLLCFGR_PLL1FRACEN) >> RCC_PLLCFGR_PLL1FRACEN_Pos);
 2594              		.loc 1 1426 24
 2595 00c8 824B     		ldr	r3, .L159
 2596 00ca DB6A     		ldr	r3, [r3, #44]
 2597              		.loc 1 1426 17
 2598 00cc 03F00103 		and	r3, r3, #1
 2599 00d0 FB60     		str	r3, [r7, #12]
1427:Drivers/STM32H7xx_HAL_Driver/Src/stm32h7xx_hal_rcc.c ****       fracn1 = (float_t)(uint32_t)(pllfracen * ((RCC->PLL1FRACR & RCC_PLL1FRACR_FRACN1) >> 3));
 2600              		.loc 1 1427 53
 2601 00d2 804B     		ldr	r3, .L159
 2602 00d4 5B6B     		ldr	r3, [r3, #52]
 2603              		.loc 1 1427 89
 2604 00d6 DB08     		lsrs	r3, r3, #3
 2605 00d8 C3F30C03 		ubfx	r3, r3, #0, #13
 2606              		.loc 1 1427 25
 2607 00dc FA68     		ldr	r2, [r7, #12]
 2608 00de 02FB03F3 		mul	r3, r2, r3
 2609              		.loc 1 1427 14
 2610 00e2 07EE903A 		vmov	s15, r3	@ int
 2611 00e6 F8EE677A 		vcvt.f32.u32	s15, s15
 2612 00ea C7ED027A 		vstr.32	s15, [r7, #8]
1428:Drivers/STM32H7xx_HAL_Driver/Src/stm32h7xx_hal_rcc.c **** 
1429:Drivers/STM32H7xx_HAL_Driver/Src/stm32h7xx_hal_rcc.c ****       if (pllm != 0U)
 2613              		.loc 1 1429 10
 2614 00ee 3B69     		ldr	r3, [r7, #16]
 2615 00f0 002B     		cmp	r3, #0
 2616 00f2 00F0E180 		beq	.L149
1430:Drivers/STM32H7xx_HAL_Driver/Src/stm32h7xx_hal_rcc.c ****       {
1431:Drivers/STM32H7xx_HAL_Driver/Src/stm32h7xx_hal_rcc.c ****         switch (pllsource)
 2617              		.loc 1 1431 9
ARM GAS  C:\Users\fffff\AppData\Local\Temp\ccLkBlD6.s 			page 73


 2618 00f6 7B69     		ldr	r3, [r7, #20]
 2619 00f8 022B     		cmp	r3, #2
 2620 00fa 00F08380 		beq	.L150
 2621 00fe 7B69     		ldr	r3, [r7, #20]
 2622 0100 022B     		cmp	r3, #2
 2623 0102 00F2A180 		bhi	.L151
 2624 0106 7B69     		ldr	r3, [r7, #20]
 2625 0108 002B     		cmp	r3, #0
 2626 010a 03D0     		beq	.L152
 2627 010c 7B69     		ldr	r3, [r7, #20]
 2628 010e 012B     		cmp	r3, #1
 2629 0110 56D0     		beq	.L153
 2630 0112 99E0     		b	.L151
 2631              	.L152:
1432:Drivers/STM32H7xx_HAL_Driver/Src/stm32h7xx_hal_rcc.c ****         {
1433:Drivers/STM32H7xx_HAL_Driver/Src/stm32h7xx_hal_rcc.c ****           case RCC_PLLSOURCE_HSI:  /* HSI used as PLL clock source */
1434:Drivers/STM32H7xx_HAL_Driver/Src/stm32h7xx_hal_rcc.c **** 
1435:Drivers/STM32H7xx_HAL_Driver/Src/stm32h7xx_hal_rcc.c ****             if (__HAL_RCC_GET_FLAG(RCC_FLAG_HSIDIV) != 0U)
 2632              		.loc 1 1435 17
 2633 0114 6F4B     		ldr	r3, .L159
 2634 0116 1B68     		ldr	r3, [r3]
 2635 0118 03F02003 		and	r3, r3, #32
 2636              		.loc 1 1435 16
 2637 011c 002B     		cmp	r3, #0
 2638 011e 2DD0     		beq	.L154
1436:Drivers/STM32H7xx_HAL_Driver/Src/stm32h7xx_hal_rcc.c ****             {
1437:Drivers/STM32H7xx_HAL_Driver/Src/stm32h7xx_hal_rcc.c ****               hsivalue = (HSI_VALUE >> (__HAL_RCC_GET_HSI_DIVIDER() >> 3));
 2639              		.loc 1 1437 41
 2640 0120 6C4B     		ldr	r3, .L159
 2641 0122 1B68     		ldr	r3, [r3]
 2642              		.loc 1 1437 69
 2643 0124 DB08     		lsrs	r3, r3, #3
 2644 0126 03F00303 		and	r3, r3, #3
 2645              		.loc 1 1437 24
 2646 012a 6B4A     		ldr	r2, .L159+4
 2647 012c 22FA03F3 		lsr	r3, r2, r3
 2648 0130 7B60     		str	r3, [r7, #4]
1438:Drivers/STM32H7xx_HAL_Driver/Src/stm32h7xx_hal_rcc.c ****               pllvco = ((float_t)hsivalue / (float_t)pllm) * ((float_t)(uint32_t)(RCC->PLL1DIVR & R
 2649              		.loc 1 1438 25
 2650 0132 7B68     		ldr	r3, [r7, #4]
 2651 0134 07EE903A 		vmov	s15, r3	@ int
 2652 0138 F8EE676A 		vcvt.f32.u32	s13, s15
 2653              		.loc 1 1438 45
 2654 013c 3B69     		ldr	r3, [r7, #16]
 2655 013e 07EE903A 		vmov	s15, r3	@ int
 2656 0142 F8EE677A 		vcvt.f32.u32	s15, s15
 2657              		.loc 1 1438 43
 2658 0146 86EEA77A 		vdiv.f32	s14, s13, s15
 2659              		.loc 1 1438 86
 2660 014a 624B     		ldr	r3, .L159
 2661 014c 1B6B     		ldr	r3, [r3, #48]
 2662              		.loc 1 1438 72
 2663 014e C3F30803 		ubfx	r3, r3, #0, #9
 2664              		.loc 1 1438 63
 2665 0152 07EE903A 		vmov	s15, r3	@ int
 2666 0156 F8EE676A 		vcvt.f32.u32	s13, s15
 2667              		.loc 1 1438 126
ARM GAS  C:\Users\fffff\AppData\Local\Temp\ccLkBlD6.s 			page 74


 2668 015a 97ED026A 		vldr.32	s12, [r7, #8]
 2669 015e DFED615A 		vldr.32	s11, .L159+16
 2670 0162 C6EE257A 		vdiv.f32	s15, s12, s11
 2671              		.loc 1 1438 116
 2672 0166 76EEA77A 		vadd.f32	s15, s13, s15
 2673              		.loc 1 1438 145
 2674 016a F7EE006A 		vmov.f32	s13, #1.0e+0
 2675 016e 77EEA67A 		vadd.f32	s15, s15, s13
 2676              		.loc 1 1438 22
 2677 0172 67EE277A 		vmul.f32	s15, s14, s15
 2678 0176 C7ED077A 		vstr.32	s15, [r7, #28]
1439:Drivers/STM32H7xx_HAL_Driver/Src/stm32h7xx_hal_rcc.c ****             }
1440:Drivers/STM32H7xx_HAL_Driver/Src/stm32h7xx_hal_rcc.c ****             else
1441:Drivers/STM32H7xx_HAL_Driver/Src/stm32h7xx_hal_rcc.c ****             {
1442:Drivers/STM32H7xx_HAL_Driver/Src/stm32h7xx_hal_rcc.c ****               pllvco = ((float_t)HSI_VALUE / (float_t)pllm) * ((float_t)(uint32_t)(RCC->PLL1DIVR & 
1443:Drivers/STM32H7xx_HAL_Driver/Src/stm32h7xx_hal_rcc.c ****             }
1444:Drivers/STM32H7xx_HAL_Driver/Src/stm32h7xx_hal_rcc.c ****             break;
 2679              		.loc 1 1444 13
 2680 017a 87E0     		b	.L156
 2681              	.L154:
1442:Drivers/STM32H7xx_HAL_Driver/Src/stm32h7xx_hal_rcc.c ****             }
 2682              		.loc 1 1442 46
 2683 017c 3B69     		ldr	r3, [r7, #16]
 2684 017e 07EE903A 		vmov	s15, r3	@ int
 2685 0182 F8EE677A 		vcvt.f32.u32	s15, s15
1442:Drivers/STM32H7xx_HAL_Driver/Src/stm32h7xx_hal_rcc.c ****             }
 2686              		.loc 1 1442 44
 2687 0186 DFED586A 		vldr.32	s13, .L159+20
 2688 018a 86EEA77A 		vdiv.f32	s14, s13, s15
1442:Drivers/STM32H7xx_HAL_Driver/Src/stm32h7xx_hal_rcc.c ****             }
 2689              		.loc 1 1442 87
 2690 018e 514B     		ldr	r3, .L159
 2691 0190 1B6B     		ldr	r3, [r3, #48]
1442:Drivers/STM32H7xx_HAL_Driver/Src/stm32h7xx_hal_rcc.c ****             }
 2692              		.loc 1 1442 73
 2693 0192 C3F30803 		ubfx	r3, r3, #0, #9
1442:Drivers/STM32H7xx_HAL_Driver/Src/stm32h7xx_hal_rcc.c ****             }
 2694              		.loc 1 1442 64
 2695 0196 07EE903A 		vmov	s15, r3	@ int
 2696 019a F8EE676A 		vcvt.f32.u32	s13, s15
1442:Drivers/STM32H7xx_HAL_Driver/Src/stm32h7xx_hal_rcc.c ****             }
 2697              		.loc 1 1442 127
 2698 019e 97ED026A 		vldr.32	s12, [r7, #8]
 2699 01a2 DFED505A 		vldr.32	s11, .L159+16
 2700 01a6 C6EE257A 		vdiv.f32	s15, s12, s11
1442:Drivers/STM32H7xx_HAL_Driver/Src/stm32h7xx_hal_rcc.c ****             }
 2701              		.loc 1 1442 117
 2702 01aa 76EEA77A 		vadd.f32	s15, s13, s15
1442:Drivers/STM32H7xx_HAL_Driver/Src/stm32h7xx_hal_rcc.c ****             }
 2703              		.loc 1 1442 146
 2704 01ae F7EE006A 		vmov.f32	s13, #1.0e+0
 2705 01b2 77EEA67A 		vadd.f32	s15, s15, s13
1442:Drivers/STM32H7xx_HAL_Driver/Src/stm32h7xx_hal_rcc.c ****             }
 2706              		.loc 1 1442 22
 2707 01b6 67EE277A 		vmul.f32	s15, s14, s15
 2708 01ba C7ED077A 		vstr.32	s15, [r7, #28]
 2709              		.loc 1 1444 13
ARM GAS  C:\Users\fffff\AppData\Local\Temp\ccLkBlD6.s 			page 75


 2710 01be 65E0     		b	.L156
 2711              	.L153:
1445:Drivers/STM32H7xx_HAL_Driver/Src/stm32h7xx_hal_rcc.c **** 
1446:Drivers/STM32H7xx_HAL_Driver/Src/stm32h7xx_hal_rcc.c ****           case RCC_PLLSOURCE_CSI:  /* CSI used as PLL clock source */
1447:Drivers/STM32H7xx_HAL_Driver/Src/stm32h7xx_hal_rcc.c ****             pllvco = ((float_t)CSI_VALUE / (float_t)pllm) * ((float_t)(uint32_t)(RCC->PLL1DIVR & RC
 2712              		.loc 1 1447 44
 2713 01c0 3B69     		ldr	r3, [r7, #16]
 2714 01c2 07EE903A 		vmov	s15, r3	@ int
 2715 01c6 F8EE677A 		vcvt.f32.u32	s15, s15
 2716              		.loc 1 1447 42
 2717 01ca DFED486A 		vldr.32	s13, .L159+24
 2718 01ce 86EEA77A 		vdiv.f32	s14, s13, s15
 2719              		.loc 1 1447 85
 2720 01d2 404B     		ldr	r3, .L159
 2721 01d4 1B6B     		ldr	r3, [r3, #48]
 2722              		.loc 1 1447 71
 2723 01d6 C3F30803 		ubfx	r3, r3, #0, #9
 2724              		.loc 1 1447 62
 2725 01da 07EE903A 		vmov	s15, r3	@ int
 2726 01de F8EE676A 		vcvt.f32.u32	s13, s15
 2727              		.loc 1 1447 125
 2728 01e2 97ED026A 		vldr.32	s12, [r7, #8]
 2729 01e6 DFED3F5A 		vldr.32	s11, .L159+16
 2730 01ea C6EE257A 		vdiv.f32	s15, s12, s11
 2731              		.loc 1 1447 115
 2732 01ee 76EEA77A 		vadd.f32	s15, s13, s15
 2733              		.loc 1 1447 144
 2734 01f2 F7EE006A 		vmov.f32	s13, #1.0e+0
 2735 01f6 77EEA67A 		vadd.f32	s15, s15, s13
 2736              		.loc 1 1447 20
 2737 01fa 67EE277A 		vmul.f32	s15, s14, s15
 2738 01fe C7ED077A 		vstr.32	s15, [r7, #28]
1448:Drivers/STM32H7xx_HAL_Driver/Src/stm32h7xx_hal_rcc.c ****             break;
 2739              		.loc 1 1448 13
 2740 0202 43E0     		b	.L156
 2741              	.L150:
1449:Drivers/STM32H7xx_HAL_Driver/Src/stm32h7xx_hal_rcc.c **** 
1450:Drivers/STM32H7xx_HAL_Driver/Src/stm32h7xx_hal_rcc.c ****           case RCC_PLLSOURCE_HSE:  /* HSE used as PLL clock source */
1451:Drivers/STM32H7xx_HAL_Driver/Src/stm32h7xx_hal_rcc.c ****             pllvco = ((float_t)HSE_VALUE / (float_t)pllm) * ((float_t)(uint32_t)(RCC->PLL1DIVR & RC
 2742              		.loc 1 1451 44
 2743 0204 3B69     		ldr	r3, [r7, #16]
 2744 0206 07EE903A 		vmov	s15, r3	@ int
 2745 020a F8EE677A 		vcvt.f32.u32	s15, s15
 2746              		.loc 1 1451 42
 2747 020e DFED386A 		vldr.32	s13, .L159+28
 2748 0212 86EEA77A 		vdiv.f32	s14, s13, s15
 2749              		.loc 1 1451 85
 2750 0216 2F4B     		ldr	r3, .L159
 2751 0218 1B6B     		ldr	r3, [r3, #48]
 2752              		.loc 1 1451 71
 2753 021a C3F30803 		ubfx	r3, r3, #0, #9
 2754              		.loc 1 1451 62
 2755 021e 07EE903A 		vmov	s15, r3	@ int
 2756 0222 F8EE676A 		vcvt.f32.u32	s13, s15
 2757              		.loc 1 1451 125
 2758 0226 97ED026A 		vldr.32	s12, [r7, #8]
 2759 022a DFED2E5A 		vldr.32	s11, .L159+16
ARM GAS  C:\Users\fffff\AppData\Local\Temp\ccLkBlD6.s 			page 76


 2760 022e C6EE257A 		vdiv.f32	s15, s12, s11
 2761              		.loc 1 1451 115
 2762 0232 76EEA77A 		vadd.f32	s15, s13, s15
 2763              		.loc 1 1451 144
 2764 0236 F7EE006A 		vmov.f32	s13, #1.0e+0
 2765 023a 77EEA67A 		vadd.f32	s15, s15, s13
 2766              		.loc 1 1451 20
 2767 023e 67EE277A 		vmul.f32	s15, s14, s15
 2768 0242 C7ED077A 		vstr.32	s15, [r7, #28]
1452:Drivers/STM32H7xx_HAL_Driver/Src/stm32h7xx_hal_rcc.c ****             break;
 2769              		.loc 1 1452 13
 2770 0246 21E0     		b	.L156
 2771              	.L151:
1453:Drivers/STM32H7xx_HAL_Driver/Src/stm32h7xx_hal_rcc.c **** 
1454:Drivers/STM32H7xx_HAL_Driver/Src/stm32h7xx_hal_rcc.c ****           default:
1455:Drivers/STM32H7xx_HAL_Driver/Src/stm32h7xx_hal_rcc.c ****             pllvco = ((float_t)CSI_VALUE / (float_t)pllm) * ((float_t)(uint32_t)(RCC->PLL1DIVR & RC
 2772              		.loc 1 1455 44
 2773 0248 3B69     		ldr	r3, [r7, #16]
 2774 024a 07EE903A 		vmov	s15, r3	@ int
 2775 024e F8EE677A 		vcvt.f32.u32	s15, s15
 2776              		.loc 1 1455 42
 2777 0252 DFED266A 		vldr.32	s13, .L159+24
 2778 0256 86EEA77A 		vdiv.f32	s14, s13, s15
 2779              		.loc 1 1455 85
 2780 025a 1E4B     		ldr	r3, .L159
 2781 025c 1B6B     		ldr	r3, [r3, #48]
 2782              		.loc 1 1455 71
 2783 025e C3F30803 		ubfx	r3, r3, #0, #9
 2784              		.loc 1 1455 62
 2785 0262 07EE903A 		vmov	s15, r3	@ int
 2786 0266 F8EE676A 		vcvt.f32.u32	s13, s15
 2787              		.loc 1 1455 125
 2788 026a 97ED026A 		vldr.32	s12, [r7, #8]
 2789 026e DFED1D5A 		vldr.32	s11, .L159+16
 2790 0272 C6EE257A 		vdiv.f32	s15, s12, s11
 2791              		.loc 1 1455 115
 2792 0276 76EEA77A 		vadd.f32	s15, s13, s15
 2793              		.loc 1 1455 144
 2794 027a F7EE006A 		vmov.f32	s13, #1.0e+0
 2795 027e 77EEA67A 		vadd.f32	s15, s15, s13
 2796              		.loc 1 1455 20
 2797 0282 67EE277A 		vmul.f32	s15, s14, s15
 2798 0286 C7ED077A 		vstr.32	s15, [r7, #28]
1456:Drivers/STM32H7xx_HAL_Driver/Src/stm32h7xx_hal_rcc.c ****             break;
 2799              		.loc 1 1456 13
 2800 028a 00BF     		nop
 2801              	.L156:
1457:Drivers/STM32H7xx_HAL_Driver/Src/stm32h7xx_hal_rcc.c ****         }
1458:Drivers/STM32H7xx_HAL_Driver/Src/stm32h7xx_hal_rcc.c ****         pllp = (((RCC->PLL1DIVR & RCC_PLL1DIVR_P1) >> 9) + 1U) ;
 2802              		.loc 1 1458 22
 2803 028c 114B     		ldr	r3, .L159
 2804 028e 1B6B     		ldr	r3, [r3, #48]
 2805              		.loc 1 1458 52
 2806 0290 5B0A     		lsrs	r3, r3, #9
 2807 0292 03F07F03 		and	r3, r3, #127
 2808              		.loc 1 1458 14
 2809 0296 0133     		adds	r3, r3, #1
ARM GAS  C:\Users\fffff\AppData\Local\Temp\ccLkBlD6.s 			page 77


 2810 0298 3B60     		str	r3, [r7]
1459:Drivers/STM32H7xx_HAL_Driver/Src/stm32h7xx_hal_rcc.c ****         sysclockfreq = (uint32_t)(float_t)(pllvco / (float_t)pllp);
 2811              		.loc 1 1459 53
 2812 029a 3B68     		ldr	r3, [r7]
 2813 029c 07EE903A 		vmov	s15, r3	@ int
 2814 02a0 B8EE677A 		vcvt.f32.u32	s14, s15
 2815              		.loc 1 1459 34
 2816 02a4 D7ED076A 		vldr.32	s13, [r7, #28]
 2817 02a8 C6EE877A 		vdiv.f32	s15, s13, s14
 2818              		.loc 1 1459 22
 2819 02ac FCEEE77A 		vcvt.u32.f32	s15, s15
 2820 02b0 17EE903A 		vmov	r3, s15	@ int
 2821 02b4 BB61     		str	r3, [r7, #24]
1460:Drivers/STM32H7xx_HAL_Driver/Src/stm32h7xx_hal_rcc.c ****       }
1461:Drivers/STM32H7xx_HAL_Driver/Src/stm32h7xx_hal_rcc.c ****       else
1462:Drivers/STM32H7xx_HAL_Driver/Src/stm32h7xx_hal_rcc.c ****       {
1463:Drivers/STM32H7xx_HAL_Driver/Src/stm32h7xx_hal_rcc.c ****         sysclockfreq = 0U;
1464:Drivers/STM32H7xx_HAL_Driver/Src/stm32h7xx_hal_rcc.c ****       }
1465:Drivers/STM32H7xx_HAL_Driver/Src/stm32h7xx_hal_rcc.c ****       break;
 2822              		.loc 1 1465 7
 2823 02b6 05E0     		b	.L148
 2824              	.L149:
1463:Drivers/STM32H7xx_HAL_Driver/Src/stm32h7xx_hal_rcc.c ****       }
 2825              		.loc 1 1463 22
 2826 02b8 0023     		movs	r3, #0
 2827 02ba BB61     		str	r3, [r7, #24]
 2828              		.loc 1 1465 7
 2829 02bc 02E0     		b	.L148
 2830              	.L140:
1466:Drivers/STM32H7xx_HAL_Driver/Src/stm32h7xx_hal_rcc.c **** 
1467:Drivers/STM32H7xx_HAL_Driver/Src/stm32h7xx_hal_rcc.c ****     default:
1468:Drivers/STM32H7xx_HAL_Driver/Src/stm32h7xx_hal_rcc.c ****       sysclockfreq = CSI_VALUE;
 2831              		.loc 1 1468 20
 2832 02be 074B     		ldr	r3, .L159+8
 2833 02c0 BB61     		str	r3, [r7, #24]
1469:Drivers/STM32H7xx_HAL_Driver/Src/stm32h7xx_hal_rcc.c ****       break;
 2834              		.loc 1 1469 7
 2835 02c2 00BF     		nop
 2836              	.L148:
1470:Drivers/STM32H7xx_HAL_Driver/Src/stm32h7xx_hal_rcc.c ****   }
1471:Drivers/STM32H7xx_HAL_Driver/Src/stm32h7xx_hal_rcc.c **** 
1472:Drivers/STM32H7xx_HAL_Driver/Src/stm32h7xx_hal_rcc.c ****   return sysclockfreq;
 2837              		.loc 1 1472 10
 2838 02c4 BB69     		ldr	r3, [r7, #24]
1473:Drivers/STM32H7xx_HAL_Driver/Src/stm32h7xx_hal_rcc.c **** }
 2839              		.loc 1 1473 1
 2840 02c6 1846     		mov	r0, r3
 2841 02c8 2437     		adds	r7, r7, #36
 2842              	.LCFI31:
 2843              		.cfi_def_cfa_offset 4
 2844 02ca BD46     		mov	sp, r7
 2845              	.LCFI32:
 2846              		.cfi_def_cfa_register 13
 2847              		@ sp needed
 2848 02cc 5DF8047B 		ldr	r7, [sp], #4
 2849              	.LCFI33:
 2850              		.cfi_restore 7
ARM GAS  C:\Users\fffff\AppData\Local\Temp\ccLkBlD6.s 			page 78


 2851              		.cfi_def_cfa_offset 0
 2852 02d0 7047     		bx	lr
 2853              	.L160:
 2854 02d2 00BF     		.align	2
 2855              	.L159:
 2856 02d4 00440258 		.word	1476543488
 2857 02d8 0090D003 		.word	64000000
 2858 02dc 00093D00 		.word	4000000
 2859 02e0 00366E01 		.word	24000000
 2860 02e4 00000046 		.word	1174405120
 2861 02e8 0024744C 		.word	1282679808
 2862 02ec 0024744A 		.word	1249125376
 2863 02f0 001BB74B 		.word	1270291200
 2864              		.cfi_endproc
 2865              	.LFE150:
 2867              		.section	.text.HAL_RCC_GetHCLKFreq,"ax",%progbits
 2868              		.align	1
 2869              		.global	HAL_RCC_GetHCLKFreq
 2870              		.syntax unified
 2871              		.thumb
 2872              		.thumb_func
 2874              	HAL_RCC_GetHCLKFreq:
 2875              	.LFB151:
1474:Drivers/STM32H7xx_HAL_Driver/Src/stm32h7xx_hal_rcc.c **** 
1475:Drivers/STM32H7xx_HAL_Driver/Src/stm32h7xx_hal_rcc.c **** 
1476:Drivers/STM32H7xx_HAL_Driver/Src/stm32h7xx_hal_rcc.c **** /**
1477:Drivers/STM32H7xx_HAL_Driver/Src/stm32h7xx_hal_rcc.c ****   * @brief  Returns the HCLK frequency
1478:Drivers/STM32H7xx_HAL_Driver/Src/stm32h7xx_hal_rcc.c ****   * @note   Each time HCLK changes, this function must be called to update the
1479:Drivers/STM32H7xx_HAL_Driver/Src/stm32h7xx_hal_rcc.c ****   *         right HCLK value. Otherwise, any configuration based on this function will be incorrect
1480:Drivers/STM32H7xx_HAL_Driver/Src/stm32h7xx_hal_rcc.c ****   *
1481:Drivers/STM32H7xx_HAL_Driver/Src/stm32h7xx_hal_rcc.c ****   * @note   The SystemD2Clock CMSIS variable is used to store System domain2 Clock Frequency
1482:Drivers/STM32H7xx_HAL_Driver/Src/stm32h7xx_hal_rcc.c ****   *         and updated within this function
1483:Drivers/STM32H7xx_HAL_Driver/Src/stm32h7xx_hal_rcc.c ****   * @retval HCLK frequency
1484:Drivers/STM32H7xx_HAL_Driver/Src/stm32h7xx_hal_rcc.c ****   */
1485:Drivers/STM32H7xx_HAL_Driver/Src/stm32h7xx_hal_rcc.c **** uint32_t HAL_RCC_GetHCLKFreq(void)
1486:Drivers/STM32H7xx_HAL_Driver/Src/stm32h7xx_hal_rcc.c **** {
 2876              		.loc 1 1486 1
 2877              		.cfi_startproc
 2878              		@ args = 0, pretend = 0, frame = 8
 2879              		@ frame_needed = 1, uses_anonymous_args = 0
 2880 0000 80B5     		push	{r7, lr}
 2881              	.LCFI34:
 2882              		.cfi_def_cfa_offset 8
 2883              		.cfi_offset 7, -8
 2884              		.cfi_offset 14, -4
 2885 0002 82B0     		sub	sp, sp, #8
 2886              	.LCFI35:
 2887              		.cfi_def_cfa_offset 16
 2888 0004 00AF     		add	r7, sp, #0
 2889              	.LCFI36:
 2890              		.cfi_def_cfa_register 7
1487:Drivers/STM32H7xx_HAL_Driver/Src/stm32h7xx_hal_rcc.c ****   uint32_t common_system_clock;
1488:Drivers/STM32H7xx_HAL_Driver/Src/stm32h7xx_hal_rcc.c **** 
1489:Drivers/STM32H7xx_HAL_Driver/Src/stm32h7xx_hal_rcc.c **** #if defined(RCC_D1CFGR_D1CPRE)
1490:Drivers/STM32H7xx_HAL_Driver/Src/stm32h7xx_hal_rcc.c ****   common_system_clock = HAL_RCC_GetSysClockFreq() >> (D1CorePrescTable[(RCC->D1CFGR & RCC_D1CFGR_D1
 2891              		.loc 1 1490 25
 2892 0006 FFF7FEFF 		bl	HAL_RCC_GetSysClockFreq
ARM GAS  C:\Users\fffff\AppData\Local\Temp\ccLkBlD6.s 			page 79


 2893 000a 0246     		mov	r2, r0
 2894              		.loc 1 1490 76 discriminator 1
 2895 000c 104B     		ldr	r3, .L163
 2896 000e 9B69     		ldr	r3, [r3, #24]
 2897              		.loc 1 1490 106 discriminator 1
 2898 0010 1B0A     		lsrs	r3, r3, #8
 2899 0012 03F00F03 		and	r3, r3, #15
 2900              		.loc 1 1490 71 discriminator 1
 2901 0016 0F49     		ldr	r1, .L163+4
 2902 0018 CB5C     		ldrb	r3, [r1, r3]	@ zero_extendqisi2
 2903              		.loc 1 1490 132 discriminator 1
 2904 001a 03F01F03 		and	r3, r3, #31
 2905              		.loc 1 1490 23 discriminator 1
 2906 001e 22FA03F3 		lsr	r3, r2, r3
 2907 0022 7B60     		str	r3, [r7, #4]
1491:Drivers/STM32H7xx_HAL_Driver/Src/stm32h7xx_hal_rcc.c **** #else
1492:Drivers/STM32H7xx_HAL_Driver/Src/stm32h7xx_hal_rcc.c ****   common_system_clock = HAL_RCC_GetSysClockFreq() >> (D1CorePrescTable[(RCC->CDCFGR1 & RCC_CDCFGR1_
1493:Drivers/STM32H7xx_HAL_Driver/Src/stm32h7xx_hal_rcc.c **** #endif
1494:Drivers/STM32H7xx_HAL_Driver/Src/stm32h7xx_hal_rcc.c **** 
1495:Drivers/STM32H7xx_HAL_Driver/Src/stm32h7xx_hal_rcc.c **** #if defined(RCC_D1CFGR_HPRE)
1496:Drivers/STM32H7xx_HAL_Driver/Src/stm32h7xx_hal_rcc.c ****   SystemD2Clock = (common_system_clock >> ((D1CorePrescTable[(RCC->D1CFGR & RCC_D1CFGR_HPRE) >> RCC
 2908              		.loc 1 1496 66
 2909 0024 0A4B     		ldr	r3, .L163
 2910 0026 9B69     		ldr	r3, [r3, #24]
 2911              		.loc 1 1496 94
 2912 0028 03F00F03 		and	r3, r3, #15
 2913              		.loc 1 1496 61
 2914 002c 094A     		ldr	r2, .L163+4
 2915 002e D35C     		ldrb	r3, [r2, r3]	@ zero_extendqisi2
 2916              		.loc 1 1496 119
 2917 0030 03F01F03 		and	r3, r3, #31
 2918              		.loc 1 1496 40
 2919 0034 7A68     		ldr	r2, [r7, #4]
 2920 0036 22FA03F3 		lsr	r3, r2, r3
 2921              		.loc 1 1496 17
 2922 003a 074A     		ldr	r2, .L163+8
 2923 003c 1360     		str	r3, [r2]
1497:Drivers/STM32H7xx_HAL_Driver/Src/stm32h7xx_hal_rcc.c **** #else
1498:Drivers/STM32H7xx_HAL_Driver/Src/stm32h7xx_hal_rcc.c ****   SystemD2Clock = (common_system_clock >> ((D1CorePrescTable[(RCC->CDCFGR1 & RCC_CDCFGR1_HPRE) >> R
1499:Drivers/STM32H7xx_HAL_Driver/Src/stm32h7xx_hal_rcc.c **** #endif
1500:Drivers/STM32H7xx_HAL_Driver/Src/stm32h7xx_hal_rcc.c **** 
1501:Drivers/STM32H7xx_HAL_Driver/Src/stm32h7xx_hal_rcc.c **** #if defined(DUAL_CORE) && defined(CORE_CM4)
1502:Drivers/STM32H7xx_HAL_Driver/Src/stm32h7xx_hal_rcc.c ****   SystemCoreClock = SystemD2Clock;
1503:Drivers/STM32H7xx_HAL_Driver/Src/stm32h7xx_hal_rcc.c **** #else
1504:Drivers/STM32H7xx_HAL_Driver/Src/stm32h7xx_hal_rcc.c ****   SystemCoreClock = common_system_clock;
 2924              		.loc 1 1504 19
 2925 003e 074A     		ldr	r2, .L163+12
 2926 0040 7B68     		ldr	r3, [r7, #4]
 2927 0042 1360     		str	r3, [r2]
1505:Drivers/STM32H7xx_HAL_Driver/Src/stm32h7xx_hal_rcc.c **** #endif /* DUAL_CORE && CORE_CM4 */
1506:Drivers/STM32H7xx_HAL_Driver/Src/stm32h7xx_hal_rcc.c **** 
1507:Drivers/STM32H7xx_HAL_Driver/Src/stm32h7xx_hal_rcc.c ****   return SystemD2Clock;
 2928              		.loc 1 1507 10
 2929 0044 044B     		ldr	r3, .L163+8
 2930 0046 1B68     		ldr	r3, [r3]
1508:Drivers/STM32H7xx_HAL_Driver/Src/stm32h7xx_hal_rcc.c **** }
 2931              		.loc 1 1508 1
ARM GAS  C:\Users\fffff\AppData\Local\Temp\ccLkBlD6.s 			page 80


 2932 0048 1846     		mov	r0, r3
 2933 004a 0837     		adds	r7, r7, #8
 2934              	.LCFI37:
 2935              		.cfi_def_cfa_offset 8
 2936 004c BD46     		mov	sp, r7
 2937              	.LCFI38:
 2938              		.cfi_def_cfa_register 13
 2939              		@ sp needed
 2940 004e 80BD     		pop	{r7, pc}
 2941              	.L164:
 2942              		.align	2
 2943              	.L163:
 2944 0050 00440258 		.word	1476543488
 2945 0054 00000000 		.word	D1CorePrescTable
 2946 0058 00000000 		.word	SystemD2Clock
 2947 005c 00000000 		.word	SystemCoreClock
 2948              		.cfi_endproc
 2949              	.LFE151:
 2951              		.section	.text.HAL_RCC_GetPCLK1Freq,"ax",%progbits
 2952              		.align	1
 2953              		.global	HAL_RCC_GetPCLK1Freq
 2954              		.syntax unified
 2955              		.thumb
 2956              		.thumb_func
 2958              	HAL_RCC_GetPCLK1Freq:
 2959              	.LFB152:
1509:Drivers/STM32H7xx_HAL_Driver/Src/stm32h7xx_hal_rcc.c **** 
1510:Drivers/STM32H7xx_HAL_Driver/Src/stm32h7xx_hal_rcc.c **** 
1511:Drivers/STM32H7xx_HAL_Driver/Src/stm32h7xx_hal_rcc.c **** /**
1512:Drivers/STM32H7xx_HAL_Driver/Src/stm32h7xx_hal_rcc.c ****   * @brief  Returns the PCLK1 frequency
1513:Drivers/STM32H7xx_HAL_Driver/Src/stm32h7xx_hal_rcc.c ****   * @note   Each time PCLK1 changes, this function must be called to update the
1514:Drivers/STM32H7xx_HAL_Driver/Src/stm32h7xx_hal_rcc.c ****   *         right PCLK1 value. Otherwise, any configuration based on this function will be incorrec
1515:Drivers/STM32H7xx_HAL_Driver/Src/stm32h7xx_hal_rcc.c ****   * @retval PCLK1 frequency
1516:Drivers/STM32H7xx_HAL_Driver/Src/stm32h7xx_hal_rcc.c ****   */
1517:Drivers/STM32H7xx_HAL_Driver/Src/stm32h7xx_hal_rcc.c **** uint32_t HAL_RCC_GetPCLK1Freq(void)
1518:Drivers/STM32H7xx_HAL_Driver/Src/stm32h7xx_hal_rcc.c **** {
 2960              		.loc 1 1518 1
 2961              		.cfi_startproc
 2962              		@ args = 0, pretend = 0, frame = 0
 2963              		@ frame_needed = 1, uses_anonymous_args = 0
 2964 0000 80B5     		push	{r7, lr}
 2965              	.LCFI39:
 2966              		.cfi_def_cfa_offset 8
 2967              		.cfi_offset 7, -8
 2968              		.cfi_offset 14, -4
 2969 0002 00AF     		add	r7, sp, #0
 2970              	.LCFI40:
 2971              		.cfi_def_cfa_register 7
1519:Drivers/STM32H7xx_HAL_Driver/Src/stm32h7xx_hal_rcc.c **** #if defined (RCC_D2CFGR_D2PPRE1)
1520:Drivers/STM32H7xx_HAL_Driver/Src/stm32h7xx_hal_rcc.c ****   /* Get HCLK source and Compute PCLK1 frequency ---------------------------*/
1521:Drivers/STM32H7xx_HAL_Driver/Src/stm32h7xx_hal_rcc.c ****   return (HAL_RCC_GetHCLKFreq() >> ((D1CorePrescTable[(RCC->D2CFGR & RCC_D2CFGR_D2PPRE1) >> RCC_D2C
 2972              		.loc 1 1521 11
 2973 0004 FFF7FEFF 		bl	HAL_RCC_GetHCLKFreq
 2974 0008 0246     		mov	r2, r0
 2975              		.loc 1 1521 59 discriminator 1
 2976 000a 064B     		ldr	r3, .L167
 2977 000c DB69     		ldr	r3, [r3, #28]
ARM GAS  C:\Users\fffff\AppData\Local\Temp\ccLkBlD6.s 			page 81


 2978              		.loc 1 1521 90 discriminator 1
 2979 000e 1B09     		lsrs	r3, r3, #4
 2980 0010 03F00703 		and	r3, r3, #7
 2981              		.loc 1 1521 54 discriminator 1
 2982 0014 0449     		ldr	r1, .L167+4
 2983 0016 CB5C     		ldrb	r3, [r1, r3]	@ zero_extendqisi2
 2984              		.loc 1 1521 118 discriminator 1
 2985 0018 03F01F03 		and	r3, r3, #31
 2986              		.loc 1 1521 33 discriminator 1
 2987 001c 22FA03F3 		lsr	r3, r2, r3
1522:Drivers/STM32H7xx_HAL_Driver/Src/stm32h7xx_hal_rcc.c **** #else
1523:Drivers/STM32H7xx_HAL_Driver/Src/stm32h7xx_hal_rcc.c ****   /* Get HCLK source and Compute PCLK1 frequency ---------------------------*/
1524:Drivers/STM32H7xx_HAL_Driver/Src/stm32h7xx_hal_rcc.c ****   return (HAL_RCC_GetHCLKFreq() >> ((D1CorePrescTable[(RCC->CDCFGR2 & RCC_CDCFGR2_CDPPRE1) >> RCC_C
1525:Drivers/STM32H7xx_HAL_Driver/Src/stm32h7xx_hal_rcc.c **** #endif
1526:Drivers/STM32H7xx_HAL_Driver/Src/stm32h7xx_hal_rcc.c **** }
 2988              		.loc 1 1526 1
 2989 0020 1846     		mov	r0, r3
 2990 0022 80BD     		pop	{r7, pc}
 2991              	.L168:
 2992              		.align	2
 2993              	.L167:
 2994 0024 00440258 		.word	1476543488
 2995 0028 00000000 		.word	D1CorePrescTable
 2996              		.cfi_endproc
 2997              	.LFE152:
 2999              		.section	.text.HAL_RCC_GetPCLK2Freq,"ax",%progbits
 3000              		.align	1
 3001              		.global	HAL_RCC_GetPCLK2Freq
 3002              		.syntax unified
 3003              		.thumb
 3004              		.thumb_func
 3006              	HAL_RCC_GetPCLK2Freq:
 3007              	.LFB153:
1527:Drivers/STM32H7xx_HAL_Driver/Src/stm32h7xx_hal_rcc.c **** 
1528:Drivers/STM32H7xx_HAL_Driver/Src/stm32h7xx_hal_rcc.c **** 
1529:Drivers/STM32H7xx_HAL_Driver/Src/stm32h7xx_hal_rcc.c **** /**
1530:Drivers/STM32H7xx_HAL_Driver/Src/stm32h7xx_hal_rcc.c ****   * @brief  Returns the D2 PCLK2 frequency
1531:Drivers/STM32H7xx_HAL_Driver/Src/stm32h7xx_hal_rcc.c ****   * @note   Each time PCLK2 changes, this function must be called to update the
1532:Drivers/STM32H7xx_HAL_Driver/Src/stm32h7xx_hal_rcc.c ****   *         right PCLK2 value. Otherwise, any configuration based on this function will be incorrec
1533:Drivers/STM32H7xx_HAL_Driver/Src/stm32h7xx_hal_rcc.c ****   * @retval PCLK1 frequency
1534:Drivers/STM32H7xx_HAL_Driver/Src/stm32h7xx_hal_rcc.c ****   */
1535:Drivers/STM32H7xx_HAL_Driver/Src/stm32h7xx_hal_rcc.c **** uint32_t HAL_RCC_GetPCLK2Freq(void)
1536:Drivers/STM32H7xx_HAL_Driver/Src/stm32h7xx_hal_rcc.c **** {
 3008              		.loc 1 1536 1
 3009              		.cfi_startproc
 3010              		@ args = 0, pretend = 0, frame = 0
 3011              		@ frame_needed = 1, uses_anonymous_args = 0
 3012 0000 80B5     		push	{r7, lr}
 3013              	.LCFI41:
 3014              		.cfi_def_cfa_offset 8
 3015              		.cfi_offset 7, -8
 3016              		.cfi_offset 14, -4
 3017 0002 00AF     		add	r7, sp, #0
 3018              	.LCFI42:
 3019              		.cfi_def_cfa_register 7
1537:Drivers/STM32H7xx_HAL_Driver/Src/stm32h7xx_hal_rcc.c ****   /* Get HCLK source and Compute PCLK1 frequency ---------------------------*/
1538:Drivers/STM32H7xx_HAL_Driver/Src/stm32h7xx_hal_rcc.c **** #if defined(RCC_D2CFGR_D2PPRE2)
ARM GAS  C:\Users\fffff\AppData\Local\Temp\ccLkBlD6.s 			page 82


1539:Drivers/STM32H7xx_HAL_Driver/Src/stm32h7xx_hal_rcc.c ****   return (HAL_RCC_GetHCLKFreq() >> ((D1CorePrescTable[(RCC->D2CFGR & RCC_D2CFGR_D2PPRE2) >> RCC_D2C
 3020              		.loc 1 1539 11
 3021 0004 FFF7FEFF 		bl	HAL_RCC_GetHCLKFreq
 3022 0008 0246     		mov	r2, r0
 3023              		.loc 1 1539 59 discriminator 1
 3024 000a 064B     		ldr	r3, .L171
 3025 000c DB69     		ldr	r3, [r3, #28]
 3026              		.loc 1 1539 90 discriminator 1
 3027 000e 1B0A     		lsrs	r3, r3, #8
 3028 0010 03F00703 		and	r3, r3, #7
 3029              		.loc 1 1539 54 discriminator 1
 3030 0014 0449     		ldr	r1, .L171+4
 3031 0016 CB5C     		ldrb	r3, [r1, r3]	@ zero_extendqisi2
 3032              		.loc 1 1539 118 discriminator 1
 3033 0018 03F01F03 		and	r3, r3, #31
 3034              		.loc 1 1539 33 discriminator 1
 3035 001c 22FA03F3 		lsr	r3, r2, r3
1540:Drivers/STM32H7xx_HAL_Driver/Src/stm32h7xx_hal_rcc.c **** #else
1541:Drivers/STM32H7xx_HAL_Driver/Src/stm32h7xx_hal_rcc.c ****   return (HAL_RCC_GetHCLKFreq() >> ((D1CorePrescTable[(RCC->CDCFGR2 & RCC_CDCFGR2_CDPPRE2) >> RCC_C
1542:Drivers/STM32H7xx_HAL_Driver/Src/stm32h7xx_hal_rcc.c **** #endif
1543:Drivers/STM32H7xx_HAL_Driver/Src/stm32h7xx_hal_rcc.c **** }
 3036              		.loc 1 1543 1
 3037 0020 1846     		mov	r0, r3
 3038 0022 80BD     		pop	{r7, pc}
 3039              	.L172:
 3040              		.align	2
 3041              	.L171:
 3042 0024 00440258 		.word	1476543488
 3043 0028 00000000 		.word	D1CorePrescTable
 3044              		.cfi_endproc
 3045              	.LFE153:
 3047              		.section	.text.HAL_RCC_GetOscConfig,"ax",%progbits
 3048              		.align	1
 3049              		.global	HAL_RCC_GetOscConfig
 3050              		.syntax unified
 3051              		.thumb
 3052              		.thumb_func
 3054              	HAL_RCC_GetOscConfig:
 3055              	.LFB154:
1544:Drivers/STM32H7xx_HAL_Driver/Src/stm32h7xx_hal_rcc.c **** 
1545:Drivers/STM32H7xx_HAL_Driver/Src/stm32h7xx_hal_rcc.c **** /**
1546:Drivers/STM32H7xx_HAL_Driver/Src/stm32h7xx_hal_rcc.c ****   * @brief  Configures the RCC_OscInitStruct according to the internal
1547:Drivers/STM32H7xx_HAL_Driver/Src/stm32h7xx_hal_rcc.c ****   * RCC configuration registers.
1548:Drivers/STM32H7xx_HAL_Driver/Src/stm32h7xx_hal_rcc.c ****   * @param  RCC_OscInitStruct: pointer to an RCC_OscInitTypeDef structure that
1549:Drivers/STM32H7xx_HAL_Driver/Src/stm32h7xx_hal_rcc.c ****   * will be configured.
1550:Drivers/STM32H7xx_HAL_Driver/Src/stm32h7xx_hal_rcc.c ****   * @retval None
1551:Drivers/STM32H7xx_HAL_Driver/Src/stm32h7xx_hal_rcc.c ****   */
1552:Drivers/STM32H7xx_HAL_Driver/Src/stm32h7xx_hal_rcc.c **** void HAL_RCC_GetOscConfig(RCC_OscInitTypeDef  *RCC_OscInitStruct)
1553:Drivers/STM32H7xx_HAL_Driver/Src/stm32h7xx_hal_rcc.c **** {
 3056              		.loc 1 1553 1
 3057              		.cfi_startproc
 3058              		@ args = 0, pretend = 0, frame = 8
 3059              		@ frame_needed = 1, uses_anonymous_args = 0
 3060              		@ link register save eliminated.
 3061 0000 80B4     		push	{r7}
 3062              	.LCFI43:
 3063              		.cfi_def_cfa_offset 4
ARM GAS  C:\Users\fffff\AppData\Local\Temp\ccLkBlD6.s 			page 83


 3064              		.cfi_offset 7, -4
 3065 0002 83B0     		sub	sp, sp, #12
 3066              	.LCFI44:
 3067              		.cfi_def_cfa_offset 16
 3068 0004 00AF     		add	r7, sp, #0
 3069              	.LCFI45:
 3070              		.cfi_def_cfa_register 7
 3071 0006 7860     		str	r0, [r7, #4]
1554:Drivers/STM32H7xx_HAL_Driver/Src/stm32h7xx_hal_rcc.c ****   /* Set all possible values for the Oscillator type parameter ---------------*/
1555:Drivers/STM32H7xx_HAL_Driver/Src/stm32h7xx_hal_rcc.c ****   RCC_OscInitStruct->OscillatorType = RCC_OSCILLATORTYPE_HSE | RCC_OSCILLATORTYPE_HSI | RCC_OSCILLA
 3072              		.loc 1 1555 37
 3073 0008 7B68     		ldr	r3, [r7, #4]
 3074 000a 3F22     		movs	r2, #63
 3075 000c 1A60     		str	r2, [r3]
1556:Drivers/STM32H7xx_HAL_Driver/Src/stm32h7xx_hal_rcc.c ****                                       RCC_OSCILLATORTYPE_LSE | RCC_OSCILLATORTYPE_LSI | RCC_OSCILLA
1557:Drivers/STM32H7xx_HAL_Driver/Src/stm32h7xx_hal_rcc.c **** 
1558:Drivers/STM32H7xx_HAL_Driver/Src/stm32h7xx_hal_rcc.c ****   /* Get the HSE configuration -----------------------------------------------*/
1559:Drivers/STM32H7xx_HAL_Driver/Src/stm32h7xx_hal_rcc.c **** #if defined(RCC_CR_HSEEXT)
1560:Drivers/STM32H7xx_HAL_Driver/Src/stm32h7xx_hal_rcc.c ****   if ((RCC->CR & (RCC_CR_HSEBYP | RCC_CR_HSEEXT)) == RCC_CR_HSEBYP)
1561:Drivers/STM32H7xx_HAL_Driver/Src/stm32h7xx_hal_rcc.c ****   {
1562:Drivers/STM32H7xx_HAL_Driver/Src/stm32h7xx_hal_rcc.c ****     RCC_OscInitStruct->HSEState = RCC_HSE_BYPASS;
1563:Drivers/STM32H7xx_HAL_Driver/Src/stm32h7xx_hal_rcc.c ****   }
1564:Drivers/STM32H7xx_HAL_Driver/Src/stm32h7xx_hal_rcc.c ****   else if ((RCC->CR & (RCC_CR_HSEBYP | RCC_CR_HSEEXT)) == (RCC_CR_HSEBYP | RCC_CR_HSEEXT))
1565:Drivers/STM32H7xx_HAL_Driver/Src/stm32h7xx_hal_rcc.c ****   {
1566:Drivers/STM32H7xx_HAL_Driver/Src/stm32h7xx_hal_rcc.c ****     RCC_OscInitStruct->HSEState = RCC_HSE_BYPASS_DIGITAL;
1567:Drivers/STM32H7xx_HAL_Driver/Src/stm32h7xx_hal_rcc.c ****   }
1568:Drivers/STM32H7xx_HAL_Driver/Src/stm32h7xx_hal_rcc.c ****   else if ((RCC->CR & RCC_CR_HSEON) == RCC_CR_HSEON)
1569:Drivers/STM32H7xx_HAL_Driver/Src/stm32h7xx_hal_rcc.c ****   {
1570:Drivers/STM32H7xx_HAL_Driver/Src/stm32h7xx_hal_rcc.c ****     RCC_OscInitStruct->HSEState = RCC_HSE_ON;
1571:Drivers/STM32H7xx_HAL_Driver/Src/stm32h7xx_hal_rcc.c ****   }
1572:Drivers/STM32H7xx_HAL_Driver/Src/stm32h7xx_hal_rcc.c ****   else
1573:Drivers/STM32H7xx_HAL_Driver/Src/stm32h7xx_hal_rcc.c ****   {
1574:Drivers/STM32H7xx_HAL_Driver/Src/stm32h7xx_hal_rcc.c ****     RCC_OscInitStruct->HSEState = RCC_HSE_OFF;
1575:Drivers/STM32H7xx_HAL_Driver/Src/stm32h7xx_hal_rcc.c ****   }
1576:Drivers/STM32H7xx_HAL_Driver/Src/stm32h7xx_hal_rcc.c **** #else
1577:Drivers/STM32H7xx_HAL_Driver/Src/stm32h7xx_hal_rcc.c ****   if ((RCC->CR & RCC_CR_HSEBYP) == RCC_CR_HSEBYP)
 3076              		.loc 1 1577 11
 3077 000e 644B     		ldr	r3, .L190
 3078 0010 1B68     		ldr	r3, [r3]
 3079              		.loc 1 1577 16
 3080 0012 03F48023 		and	r3, r3, #262144
 3081              		.loc 1 1577 6
 3082 0016 B3F5802F 		cmp	r3, #262144
 3083 001a 04D1     		bne	.L174
1578:Drivers/STM32H7xx_HAL_Driver/Src/stm32h7xx_hal_rcc.c ****   {
1579:Drivers/STM32H7xx_HAL_Driver/Src/stm32h7xx_hal_rcc.c ****     RCC_OscInitStruct->HSEState = RCC_HSE_BYPASS;
 3084              		.loc 1 1579 33
 3085 001c 7B68     		ldr	r3, [r7, #4]
 3086 001e 4FF4A022 		mov	r2, #327680
 3087 0022 5A60     		str	r2, [r3, #4]
 3088 0024 0EE0     		b	.L175
 3089              	.L174:
1580:Drivers/STM32H7xx_HAL_Driver/Src/stm32h7xx_hal_rcc.c ****   }
1581:Drivers/STM32H7xx_HAL_Driver/Src/stm32h7xx_hal_rcc.c ****   else if ((RCC->CR & RCC_CR_HSEON) == RCC_CR_HSEON)
 3090              		.loc 1 1581 16
 3091 0026 5E4B     		ldr	r3, .L190
 3092 0028 1B68     		ldr	r3, [r3]
ARM GAS  C:\Users\fffff\AppData\Local\Temp\ccLkBlD6.s 			page 84


 3093              		.loc 1 1581 21
 3094 002a 03F48033 		and	r3, r3, #65536
 3095              		.loc 1 1581 11
 3096 002e B3F5803F 		cmp	r3, #65536
 3097 0032 04D1     		bne	.L176
1582:Drivers/STM32H7xx_HAL_Driver/Src/stm32h7xx_hal_rcc.c ****   {
1583:Drivers/STM32H7xx_HAL_Driver/Src/stm32h7xx_hal_rcc.c ****     RCC_OscInitStruct->HSEState = RCC_HSE_ON;
 3098              		.loc 1 1583 33
 3099 0034 7B68     		ldr	r3, [r7, #4]
 3100 0036 4FF48032 		mov	r2, #65536
 3101 003a 5A60     		str	r2, [r3, #4]
 3102 003c 02E0     		b	.L175
 3103              	.L176:
1584:Drivers/STM32H7xx_HAL_Driver/Src/stm32h7xx_hal_rcc.c ****   }
1585:Drivers/STM32H7xx_HAL_Driver/Src/stm32h7xx_hal_rcc.c ****   else
1586:Drivers/STM32H7xx_HAL_Driver/Src/stm32h7xx_hal_rcc.c ****   {
1587:Drivers/STM32H7xx_HAL_Driver/Src/stm32h7xx_hal_rcc.c ****     RCC_OscInitStruct->HSEState = RCC_HSE_OFF;
 3104              		.loc 1 1587 33
 3105 003e 7B68     		ldr	r3, [r7, #4]
 3106 0040 0022     		movs	r2, #0
 3107 0042 5A60     		str	r2, [r3, #4]
 3108              	.L175:
1588:Drivers/STM32H7xx_HAL_Driver/Src/stm32h7xx_hal_rcc.c ****   }
1589:Drivers/STM32H7xx_HAL_Driver/Src/stm32h7xx_hal_rcc.c **** #endif /* RCC_CR_HSEEXT */
1590:Drivers/STM32H7xx_HAL_Driver/Src/stm32h7xx_hal_rcc.c **** 
1591:Drivers/STM32H7xx_HAL_Driver/Src/stm32h7xx_hal_rcc.c ****   /* Get the CSI configuration -----------------------------------------------*/
1592:Drivers/STM32H7xx_HAL_Driver/Src/stm32h7xx_hal_rcc.c ****   if ((RCC->CR & RCC_CR_CSION) == RCC_CR_CSION)
 3109              		.loc 1 1592 11
 3110 0044 564B     		ldr	r3, .L190
 3111 0046 1B68     		ldr	r3, [r3]
 3112              		.loc 1 1592 16
 3113 0048 03F08003 		and	r3, r3, #128
 3114              		.loc 1 1592 6
 3115 004c 802B     		cmp	r3, #128
 3116 004e 03D1     		bne	.L177
1593:Drivers/STM32H7xx_HAL_Driver/Src/stm32h7xx_hal_rcc.c ****   {
1594:Drivers/STM32H7xx_HAL_Driver/Src/stm32h7xx_hal_rcc.c ****     RCC_OscInitStruct->CSIState = RCC_CSI_ON;
 3117              		.loc 1 1594 33
 3118 0050 7B68     		ldr	r3, [r7, #4]
 3119 0052 8022     		movs	r2, #128
 3120 0054 DA61     		str	r2, [r3, #28]
 3121 0056 02E0     		b	.L178
 3122              	.L177:
1595:Drivers/STM32H7xx_HAL_Driver/Src/stm32h7xx_hal_rcc.c ****   }
1596:Drivers/STM32H7xx_HAL_Driver/Src/stm32h7xx_hal_rcc.c ****   else
1597:Drivers/STM32H7xx_HAL_Driver/Src/stm32h7xx_hal_rcc.c ****   {
1598:Drivers/STM32H7xx_HAL_Driver/Src/stm32h7xx_hal_rcc.c ****     RCC_OscInitStruct->CSIState = RCC_CSI_OFF;
 3123              		.loc 1 1598 33
 3124 0058 7B68     		ldr	r3, [r7, #4]
 3125 005a 0022     		movs	r2, #0
 3126 005c DA61     		str	r2, [r3, #28]
 3127              	.L178:
1599:Drivers/STM32H7xx_HAL_Driver/Src/stm32h7xx_hal_rcc.c ****   }
1600:Drivers/STM32H7xx_HAL_Driver/Src/stm32h7xx_hal_rcc.c **** 
1601:Drivers/STM32H7xx_HAL_Driver/Src/stm32h7xx_hal_rcc.c **** #if defined(RCC_VER_X)
1602:Drivers/STM32H7xx_HAL_Driver/Src/stm32h7xx_hal_rcc.c ****   if (HAL_GetREVID() <= REV_ID_Y)
1603:Drivers/STM32H7xx_HAL_Driver/Src/stm32h7xx_hal_rcc.c ****   {
ARM GAS  C:\Users\fffff\AppData\Local\Temp\ccLkBlD6.s 			page 85


1604:Drivers/STM32H7xx_HAL_Driver/Src/stm32h7xx_hal_rcc.c ****     RCC_OscInitStruct->CSICalibrationValue = (uint32_t)(READ_BIT(RCC->HSICFGR, HAL_RCC_REV_Y_CSITRI
1605:Drivers/STM32H7xx_HAL_Driver/Src/stm32h7xx_hal_rcc.c ****   }
1606:Drivers/STM32H7xx_HAL_Driver/Src/stm32h7xx_hal_rcc.c ****   else
1607:Drivers/STM32H7xx_HAL_Driver/Src/stm32h7xx_hal_rcc.c ****   {
1608:Drivers/STM32H7xx_HAL_Driver/Src/stm32h7xx_hal_rcc.c ****     RCC_OscInitStruct->CSICalibrationValue = (uint32_t)(READ_BIT(RCC->CSICFGR, RCC_CSICFGR_CSITRIM)
1609:Drivers/STM32H7xx_HAL_Driver/Src/stm32h7xx_hal_rcc.c ****   }
1610:Drivers/STM32H7xx_HAL_Driver/Src/stm32h7xx_hal_rcc.c **** #else
1611:Drivers/STM32H7xx_HAL_Driver/Src/stm32h7xx_hal_rcc.c ****   RCC_OscInitStruct->CSICalibrationValue = (uint32_t)(READ_BIT(RCC->CSICFGR, RCC_CSICFGR_CSITRIM) >
 3128              		.loc 1 1611 55
 3129 005e 504B     		ldr	r3, .L190
 3130 0060 DB68     		ldr	r3, [r3, #12]
 3131              		.loc 1 1611 44
 3132 0062 1B0E     		lsrs	r3, r3, #24
 3133 0064 03F03F02 		and	r2, r3, #63
 3134              		.loc 1 1611 42
 3135 0068 7B68     		ldr	r3, [r7, #4]
 3136 006a 1A62     		str	r2, [r3, #32]
1612:Drivers/STM32H7xx_HAL_Driver/Src/stm32h7xx_hal_rcc.c **** #endif /*RCC_VER_X*/
1613:Drivers/STM32H7xx_HAL_Driver/Src/stm32h7xx_hal_rcc.c **** 
1614:Drivers/STM32H7xx_HAL_Driver/Src/stm32h7xx_hal_rcc.c ****   /* Get the HSI configuration -----------------------------------------------*/
1615:Drivers/STM32H7xx_HAL_Driver/Src/stm32h7xx_hal_rcc.c ****   if ((RCC->CR & RCC_CR_HSION) == RCC_CR_HSION)
 3137              		.loc 1 1615 11
 3138 006c 4C4B     		ldr	r3, .L190
 3139 006e 1B68     		ldr	r3, [r3]
 3140              		.loc 1 1615 16
 3141 0070 03F00103 		and	r3, r3, #1
 3142              		.loc 1 1615 6
 3143 0074 012B     		cmp	r3, #1
 3144 0076 03D1     		bne	.L179
1616:Drivers/STM32H7xx_HAL_Driver/Src/stm32h7xx_hal_rcc.c ****   {
1617:Drivers/STM32H7xx_HAL_Driver/Src/stm32h7xx_hal_rcc.c ****     RCC_OscInitStruct->HSIState = RCC_HSI_ON;
 3145              		.loc 1 1617 33
 3146 0078 7B68     		ldr	r3, [r7, #4]
 3147 007a 0122     		movs	r2, #1
 3148 007c DA60     		str	r2, [r3, #12]
 3149 007e 02E0     		b	.L180
 3150              	.L179:
1618:Drivers/STM32H7xx_HAL_Driver/Src/stm32h7xx_hal_rcc.c ****   }
1619:Drivers/STM32H7xx_HAL_Driver/Src/stm32h7xx_hal_rcc.c ****   else
1620:Drivers/STM32H7xx_HAL_Driver/Src/stm32h7xx_hal_rcc.c ****   {
1621:Drivers/STM32H7xx_HAL_Driver/Src/stm32h7xx_hal_rcc.c ****     RCC_OscInitStruct->HSIState = RCC_HSI_OFF;
 3151              		.loc 1 1621 33
 3152 0080 7B68     		ldr	r3, [r7, #4]
 3153 0082 0022     		movs	r2, #0
 3154 0084 DA60     		str	r2, [r3, #12]
 3155              	.L180:
1622:Drivers/STM32H7xx_HAL_Driver/Src/stm32h7xx_hal_rcc.c ****   }
1623:Drivers/STM32H7xx_HAL_Driver/Src/stm32h7xx_hal_rcc.c **** 
1624:Drivers/STM32H7xx_HAL_Driver/Src/stm32h7xx_hal_rcc.c **** #if defined(RCC_VER_X)
1625:Drivers/STM32H7xx_HAL_Driver/Src/stm32h7xx_hal_rcc.c ****   if (HAL_GetREVID() <= REV_ID_Y)
1626:Drivers/STM32H7xx_HAL_Driver/Src/stm32h7xx_hal_rcc.c ****   {
1627:Drivers/STM32H7xx_HAL_Driver/Src/stm32h7xx_hal_rcc.c ****     RCC_OscInitStruct->HSICalibrationValue = (uint32_t)(READ_BIT(RCC->HSICFGR, HAL_RCC_REV_Y_HSITRI
1628:Drivers/STM32H7xx_HAL_Driver/Src/stm32h7xx_hal_rcc.c ****   }
1629:Drivers/STM32H7xx_HAL_Driver/Src/stm32h7xx_hal_rcc.c ****   else
1630:Drivers/STM32H7xx_HAL_Driver/Src/stm32h7xx_hal_rcc.c ****   {
1631:Drivers/STM32H7xx_HAL_Driver/Src/stm32h7xx_hal_rcc.c ****     RCC_OscInitStruct->HSICalibrationValue = (uint32_t)(READ_BIT(RCC->HSICFGR, RCC_HSICFGR_HSITRIM)
1632:Drivers/STM32H7xx_HAL_Driver/Src/stm32h7xx_hal_rcc.c ****   }
ARM GAS  C:\Users\fffff\AppData\Local\Temp\ccLkBlD6.s 			page 86


1633:Drivers/STM32H7xx_HAL_Driver/Src/stm32h7xx_hal_rcc.c **** #else
1634:Drivers/STM32H7xx_HAL_Driver/Src/stm32h7xx_hal_rcc.c ****   RCC_OscInitStruct->HSICalibrationValue = (uint32_t)(READ_BIT(RCC->HSICFGR, RCC_HSICFGR_HSITRIM) >
 3156              		.loc 1 1634 55
 3157 0086 464B     		ldr	r3, .L190
 3158 0088 5B68     		ldr	r3, [r3, #4]
 3159              		.loc 1 1634 44
 3160 008a 1B0E     		lsrs	r3, r3, #24
 3161 008c 03F07F02 		and	r2, r3, #127
 3162              		.loc 1 1634 42
 3163 0090 7B68     		ldr	r3, [r7, #4]
 3164 0092 1A61     		str	r2, [r3, #16]
1635:Drivers/STM32H7xx_HAL_Driver/Src/stm32h7xx_hal_rcc.c **** #endif /*RCC_VER_X*/
1636:Drivers/STM32H7xx_HAL_Driver/Src/stm32h7xx_hal_rcc.c **** 
1637:Drivers/STM32H7xx_HAL_Driver/Src/stm32h7xx_hal_rcc.c ****   /* Get the LSE configuration -----------------------------------------------*/
1638:Drivers/STM32H7xx_HAL_Driver/Src/stm32h7xx_hal_rcc.c **** #if defined(RCC_BDCR_LSEEXT)
1639:Drivers/STM32H7xx_HAL_Driver/Src/stm32h7xx_hal_rcc.c ****   if ((RCC->BDCR & (RCC_BDCR_LSEBYP | RCC_BDCR_LSEEXT)) == RCC_BDCR_LSEBYP)
1640:Drivers/STM32H7xx_HAL_Driver/Src/stm32h7xx_hal_rcc.c ****   {
1641:Drivers/STM32H7xx_HAL_Driver/Src/stm32h7xx_hal_rcc.c ****     RCC_OscInitStruct->LSEState = RCC_LSE_BYPASS;
1642:Drivers/STM32H7xx_HAL_Driver/Src/stm32h7xx_hal_rcc.c ****   }
1643:Drivers/STM32H7xx_HAL_Driver/Src/stm32h7xx_hal_rcc.c ****   else if ((RCC->BDCR & (RCC_BDCR_LSEBYP | RCC_BDCR_LSEEXT)) == (RCC_BDCR_LSEBYP | RCC_BDCR_LSEEXT)
1644:Drivers/STM32H7xx_HAL_Driver/Src/stm32h7xx_hal_rcc.c ****   {
1645:Drivers/STM32H7xx_HAL_Driver/Src/stm32h7xx_hal_rcc.c ****     RCC_OscInitStruct->LSEState = RCC_LSE_BYPASS_DIGITAL;
1646:Drivers/STM32H7xx_HAL_Driver/Src/stm32h7xx_hal_rcc.c ****   }
1647:Drivers/STM32H7xx_HAL_Driver/Src/stm32h7xx_hal_rcc.c ****   else if ((RCC->BDCR & RCC_BDCR_LSEON) == RCC_BDCR_LSEON)
1648:Drivers/STM32H7xx_HAL_Driver/Src/stm32h7xx_hal_rcc.c ****   {
1649:Drivers/STM32H7xx_HAL_Driver/Src/stm32h7xx_hal_rcc.c ****     RCC_OscInitStruct->LSEState = RCC_LSE_ON;
1650:Drivers/STM32H7xx_HAL_Driver/Src/stm32h7xx_hal_rcc.c ****   }
1651:Drivers/STM32H7xx_HAL_Driver/Src/stm32h7xx_hal_rcc.c ****   else
1652:Drivers/STM32H7xx_HAL_Driver/Src/stm32h7xx_hal_rcc.c ****   {
1653:Drivers/STM32H7xx_HAL_Driver/Src/stm32h7xx_hal_rcc.c ****     RCC_OscInitStruct->LSEState = RCC_LSE_OFF;
1654:Drivers/STM32H7xx_HAL_Driver/Src/stm32h7xx_hal_rcc.c ****   }
1655:Drivers/STM32H7xx_HAL_Driver/Src/stm32h7xx_hal_rcc.c **** #else
1656:Drivers/STM32H7xx_HAL_Driver/Src/stm32h7xx_hal_rcc.c ****   if ((RCC->BDCR & RCC_BDCR_LSEBYP) == RCC_BDCR_LSEBYP)
 3165              		.loc 1 1656 11
 3166 0094 424B     		ldr	r3, .L190
 3167 0096 1B6F     		ldr	r3, [r3, #112]
 3168              		.loc 1 1656 18
 3169 0098 03F00403 		and	r3, r3, #4
 3170              		.loc 1 1656 6
 3171 009c 042B     		cmp	r3, #4
 3172 009e 03D1     		bne	.L181
1657:Drivers/STM32H7xx_HAL_Driver/Src/stm32h7xx_hal_rcc.c ****   {
1658:Drivers/STM32H7xx_HAL_Driver/Src/stm32h7xx_hal_rcc.c ****     RCC_OscInitStruct->LSEState = RCC_LSE_BYPASS;
 3173              		.loc 1 1658 33
 3174 00a0 7B68     		ldr	r3, [r7, #4]
 3175 00a2 0522     		movs	r2, #5
 3176 00a4 9A60     		str	r2, [r3, #8]
 3177 00a6 0CE0     		b	.L182
 3178              	.L181:
1659:Drivers/STM32H7xx_HAL_Driver/Src/stm32h7xx_hal_rcc.c ****   }
1660:Drivers/STM32H7xx_HAL_Driver/Src/stm32h7xx_hal_rcc.c ****   else if ((RCC->BDCR & RCC_BDCR_LSEON) == RCC_BDCR_LSEON)
 3179              		.loc 1 1660 16
 3180 00a8 3D4B     		ldr	r3, .L190
 3181 00aa 1B6F     		ldr	r3, [r3, #112]
 3182              		.loc 1 1660 23
 3183 00ac 03F00103 		and	r3, r3, #1
 3184              		.loc 1 1660 11
ARM GAS  C:\Users\fffff\AppData\Local\Temp\ccLkBlD6.s 			page 87


 3185 00b0 012B     		cmp	r3, #1
 3186 00b2 03D1     		bne	.L183
1661:Drivers/STM32H7xx_HAL_Driver/Src/stm32h7xx_hal_rcc.c ****   {
1662:Drivers/STM32H7xx_HAL_Driver/Src/stm32h7xx_hal_rcc.c ****     RCC_OscInitStruct->LSEState = RCC_LSE_ON;
 3187              		.loc 1 1662 33
 3188 00b4 7B68     		ldr	r3, [r7, #4]
 3189 00b6 0122     		movs	r2, #1
 3190 00b8 9A60     		str	r2, [r3, #8]
 3191 00ba 02E0     		b	.L182
 3192              	.L183:
1663:Drivers/STM32H7xx_HAL_Driver/Src/stm32h7xx_hal_rcc.c ****   }
1664:Drivers/STM32H7xx_HAL_Driver/Src/stm32h7xx_hal_rcc.c ****   else
1665:Drivers/STM32H7xx_HAL_Driver/Src/stm32h7xx_hal_rcc.c ****   {
1666:Drivers/STM32H7xx_HAL_Driver/Src/stm32h7xx_hal_rcc.c ****     RCC_OscInitStruct->LSEState = RCC_LSE_OFF;
 3193              		.loc 1 1666 33
 3194 00bc 7B68     		ldr	r3, [r7, #4]
 3195 00be 0022     		movs	r2, #0
 3196 00c0 9A60     		str	r2, [r3, #8]
 3197              	.L182:
1667:Drivers/STM32H7xx_HAL_Driver/Src/stm32h7xx_hal_rcc.c ****   }
1668:Drivers/STM32H7xx_HAL_Driver/Src/stm32h7xx_hal_rcc.c **** #endif /* RCC_BDCR_LSEEXT */
1669:Drivers/STM32H7xx_HAL_Driver/Src/stm32h7xx_hal_rcc.c **** 
1670:Drivers/STM32H7xx_HAL_Driver/Src/stm32h7xx_hal_rcc.c ****   /* Get the LSI configuration -----------------------------------------------*/
1671:Drivers/STM32H7xx_HAL_Driver/Src/stm32h7xx_hal_rcc.c ****   if ((RCC->CSR & RCC_CSR_LSION) == RCC_CSR_LSION)
 3198              		.loc 1 1671 11
 3199 00c2 374B     		ldr	r3, .L190
 3200 00c4 5B6F     		ldr	r3, [r3, #116]
 3201              		.loc 1 1671 17
 3202 00c6 03F00103 		and	r3, r3, #1
 3203              		.loc 1 1671 6
 3204 00ca 012B     		cmp	r3, #1
 3205 00cc 03D1     		bne	.L184
1672:Drivers/STM32H7xx_HAL_Driver/Src/stm32h7xx_hal_rcc.c ****   {
1673:Drivers/STM32H7xx_HAL_Driver/Src/stm32h7xx_hal_rcc.c ****     RCC_OscInitStruct->LSIState = RCC_LSI_ON;
 3206              		.loc 1 1673 33
 3207 00ce 7B68     		ldr	r3, [r7, #4]
 3208 00d0 0122     		movs	r2, #1
 3209 00d2 5A61     		str	r2, [r3, #20]
 3210 00d4 02E0     		b	.L185
 3211              	.L184:
1674:Drivers/STM32H7xx_HAL_Driver/Src/stm32h7xx_hal_rcc.c ****   }
1675:Drivers/STM32H7xx_HAL_Driver/Src/stm32h7xx_hal_rcc.c ****   else
1676:Drivers/STM32H7xx_HAL_Driver/Src/stm32h7xx_hal_rcc.c ****   {
1677:Drivers/STM32H7xx_HAL_Driver/Src/stm32h7xx_hal_rcc.c ****     RCC_OscInitStruct->LSIState = RCC_LSI_OFF;
 3212              		.loc 1 1677 33
 3213 00d6 7B68     		ldr	r3, [r7, #4]
 3214 00d8 0022     		movs	r2, #0
 3215 00da 5A61     		str	r2, [r3, #20]
 3216              	.L185:
1678:Drivers/STM32H7xx_HAL_Driver/Src/stm32h7xx_hal_rcc.c ****   }
1679:Drivers/STM32H7xx_HAL_Driver/Src/stm32h7xx_hal_rcc.c **** 
1680:Drivers/STM32H7xx_HAL_Driver/Src/stm32h7xx_hal_rcc.c ****   /* Get the HSI48 configuration ---------------------------------------------*/
1681:Drivers/STM32H7xx_HAL_Driver/Src/stm32h7xx_hal_rcc.c ****   if ((RCC->CR & RCC_CR_HSI48ON) == RCC_CR_HSI48ON)
 3217              		.loc 1 1681 11
 3218 00dc 304B     		ldr	r3, .L190
 3219 00de 1B68     		ldr	r3, [r3]
 3220              		.loc 1 1681 16
ARM GAS  C:\Users\fffff\AppData\Local\Temp\ccLkBlD6.s 			page 88


 3221 00e0 03F48053 		and	r3, r3, #4096
 3222              		.loc 1 1681 6
 3223 00e4 B3F5805F 		cmp	r3, #4096
 3224 00e8 03D1     		bne	.L186
1682:Drivers/STM32H7xx_HAL_Driver/Src/stm32h7xx_hal_rcc.c ****   {
1683:Drivers/STM32H7xx_HAL_Driver/Src/stm32h7xx_hal_rcc.c ****     RCC_OscInitStruct->HSI48State = RCC_HSI48_ON;
 3225              		.loc 1 1683 35
 3226 00ea 7B68     		ldr	r3, [r7, #4]
 3227 00ec 0122     		movs	r2, #1
 3228 00ee 9A61     		str	r2, [r3, #24]
 3229 00f0 02E0     		b	.L187
 3230              	.L186:
1684:Drivers/STM32H7xx_HAL_Driver/Src/stm32h7xx_hal_rcc.c ****   }
1685:Drivers/STM32H7xx_HAL_Driver/Src/stm32h7xx_hal_rcc.c ****   else
1686:Drivers/STM32H7xx_HAL_Driver/Src/stm32h7xx_hal_rcc.c ****   {
1687:Drivers/STM32H7xx_HAL_Driver/Src/stm32h7xx_hal_rcc.c ****     RCC_OscInitStruct->HSI48State = RCC_HSI48_OFF;
 3231              		.loc 1 1687 35
 3232 00f2 7B68     		ldr	r3, [r7, #4]
 3233 00f4 0022     		movs	r2, #0
 3234 00f6 9A61     		str	r2, [r3, #24]
 3235              	.L187:
1688:Drivers/STM32H7xx_HAL_Driver/Src/stm32h7xx_hal_rcc.c ****   }
1689:Drivers/STM32H7xx_HAL_Driver/Src/stm32h7xx_hal_rcc.c **** 
1690:Drivers/STM32H7xx_HAL_Driver/Src/stm32h7xx_hal_rcc.c ****   /* Get the PLL configuration -----------------------------------------------*/
1691:Drivers/STM32H7xx_HAL_Driver/Src/stm32h7xx_hal_rcc.c ****   if ((RCC->CR & RCC_CR_PLLON) == RCC_CR_PLLON)
 3236              		.loc 1 1691 11
 3237 00f8 294B     		ldr	r3, .L190
 3238 00fa 1B68     		ldr	r3, [r3]
 3239              		.loc 1 1691 16
 3240 00fc 03F08073 		and	r3, r3, #16777216
 3241              		.loc 1 1691 6
 3242 0100 B3F1807F 		cmp	r3, #16777216
 3243 0104 03D1     		bne	.L188
1692:Drivers/STM32H7xx_HAL_Driver/Src/stm32h7xx_hal_rcc.c ****   {
1693:Drivers/STM32H7xx_HAL_Driver/Src/stm32h7xx_hal_rcc.c ****     RCC_OscInitStruct->PLL.PLLState = RCC_PLL_ON;
 3244              		.loc 1 1693 37
 3245 0106 7B68     		ldr	r3, [r7, #4]
 3246 0108 0222     		movs	r2, #2
 3247 010a 5A62     		str	r2, [r3, #36]
 3248 010c 02E0     		b	.L189
 3249              	.L188:
1694:Drivers/STM32H7xx_HAL_Driver/Src/stm32h7xx_hal_rcc.c ****   }
1695:Drivers/STM32H7xx_HAL_Driver/Src/stm32h7xx_hal_rcc.c ****   else
1696:Drivers/STM32H7xx_HAL_Driver/Src/stm32h7xx_hal_rcc.c ****   {
1697:Drivers/STM32H7xx_HAL_Driver/Src/stm32h7xx_hal_rcc.c ****     RCC_OscInitStruct->PLL.PLLState = RCC_PLL_OFF;
 3250              		.loc 1 1697 37
 3251 010e 7B68     		ldr	r3, [r7, #4]
 3252 0110 0122     		movs	r2, #1
 3253 0112 5A62     		str	r2, [r3, #36]
 3254              	.L189:
1698:Drivers/STM32H7xx_HAL_Driver/Src/stm32h7xx_hal_rcc.c ****   }
1699:Drivers/STM32H7xx_HAL_Driver/Src/stm32h7xx_hal_rcc.c ****   RCC_OscInitStruct->PLL.PLLSource = (uint32_t)(RCC->PLLCKSELR & RCC_PLLCKSELR_PLLSRC);
 3255              		.loc 1 1699 52
 3256 0114 224B     		ldr	r3, .L190
 3257 0116 9B6A     		ldr	r3, [r3, #40]
 3258              		.loc 1 1699 38
 3259 0118 03F00302 		and	r2, r3, #3
ARM GAS  C:\Users\fffff\AppData\Local\Temp\ccLkBlD6.s 			page 89


 3260              		.loc 1 1699 36
 3261 011c 7B68     		ldr	r3, [r7, #4]
 3262 011e 9A62     		str	r2, [r3, #40]
1700:Drivers/STM32H7xx_HAL_Driver/Src/stm32h7xx_hal_rcc.c ****   RCC_OscInitStruct->PLL.PLLM = (uint32_t)((RCC->PLLCKSELR & RCC_PLLCKSELR_DIVM1) >> RCC_PLLCKSELR_
 3263              		.loc 1 1700 48
 3264 0120 1F4B     		ldr	r3, .L190
 3265 0122 9B6A     		ldr	r3, [r3, #40]
 3266              		.loc 1 1700 33
 3267 0124 1B09     		lsrs	r3, r3, #4
 3268 0126 03F03F02 		and	r2, r3, #63
 3269              		.loc 1 1700 31
 3270 012a 7B68     		ldr	r3, [r7, #4]
 3271 012c DA62     		str	r2, [r3, #44]
1701:Drivers/STM32H7xx_HAL_Driver/Src/stm32h7xx_hal_rcc.c ****   RCC_OscInitStruct->PLL.PLLN = (uint32_t)((RCC->PLL1DIVR & RCC_PLL1DIVR_N1) >> RCC_PLL1DIVR_N1_Pos
 3272              		.loc 1 1701 48
 3273 012e 1C4B     		ldr	r3, .L190
 3274 0130 1B6B     		ldr	r3, [r3, #48]
 3275              		.loc 1 1701 33
 3276 0132 C3F30803 		ubfx	r3, r3, #0, #9
 3277              		.loc 1 1701 102
 3278 0136 5A1C     		adds	r2, r3, #1
 3279              		.loc 1 1701 31
 3280 0138 7B68     		ldr	r3, [r7, #4]
 3281 013a 1A63     		str	r2, [r3, #48]
1702:Drivers/STM32H7xx_HAL_Driver/Src/stm32h7xx_hal_rcc.c ****   RCC_OscInitStruct->PLL.PLLR = (uint32_t)((RCC->PLL1DIVR & RCC_PLL1DIVR_R1) >> RCC_PLL1DIVR_R1_Pos
 3282              		.loc 1 1702 48
 3283 013c 184B     		ldr	r3, .L190
 3284 013e 1B6B     		ldr	r3, [r3, #48]
 3285              		.loc 1 1702 33
 3286 0140 1B0E     		lsrs	r3, r3, #24
 3287 0142 03F07F03 		and	r3, r3, #127
 3288              		.loc 1 1702 102
 3289 0146 5A1C     		adds	r2, r3, #1
 3290              		.loc 1 1702 31
 3291 0148 7B68     		ldr	r3, [r7, #4]
 3292 014a DA63     		str	r2, [r3, #60]
1703:Drivers/STM32H7xx_HAL_Driver/Src/stm32h7xx_hal_rcc.c ****   RCC_OscInitStruct->PLL.PLLP = (uint32_t)((RCC->PLL1DIVR & RCC_PLL1DIVR_P1) >> RCC_PLL1DIVR_P1_Pos
 3293              		.loc 1 1703 48
 3294 014c 144B     		ldr	r3, .L190
 3295 014e 1B6B     		ldr	r3, [r3, #48]
 3296              		.loc 1 1703 33
 3297 0150 5B0A     		lsrs	r3, r3, #9
 3298 0152 03F07F03 		and	r3, r3, #127
 3299              		.loc 1 1703 102
 3300 0156 5A1C     		adds	r2, r3, #1
 3301              		.loc 1 1703 31
 3302 0158 7B68     		ldr	r3, [r7, #4]
 3303 015a 5A63     		str	r2, [r3, #52]
1704:Drivers/STM32H7xx_HAL_Driver/Src/stm32h7xx_hal_rcc.c ****   RCC_OscInitStruct->PLL.PLLQ = (uint32_t)((RCC->PLL1DIVR & RCC_PLL1DIVR_Q1) >> RCC_PLL1DIVR_Q1_Pos
 3304              		.loc 1 1704 48
 3305 015c 104B     		ldr	r3, .L190
 3306 015e 1B6B     		ldr	r3, [r3, #48]
 3307              		.loc 1 1704 33
 3308 0160 1B0C     		lsrs	r3, r3, #16
 3309 0162 03F07F03 		and	r3, r3, #127
 3310              		.loc 1 1704 102
 3311 0166 5A1C     		adds	r2, r3, #1
ARM GAS  C:\Users\fffff\AppData\Local\Temp\ccLkBlD6.s 			page 90


 3312              		.loc 1 1704 31
 3313 0168 7B68     		ldr	r3, [r7, #4]
 3314 016a 9A63     		str	r2, [r3, #56]
1705:Drivers/STM32H7xx_HAL_Driver/Src/stm32h7xx_hal_rcc.c ****   RCC_OscInitStruct->PLL.PLLRGE = (uint32_t)((RCC->PLLCFGR & RCC_PLLCFGR_PLL1RGE));
 3315              		.loc 1 1705 50
 3316 016c 0C4B     		ldr	r3, .L190
 3317 016e DB6A     		ldr	r3, [r3, #44]
 3318              		.loc 1 1705 35
 3319 0170 03F00C02 		and	r2, r3, #12
 3320              		.loc 1 1705 33
 3321 0174 7B68     		ldr	r3, [r7, #4]
 3322 0176 1A64     		str	r2, [r3, #64]
1706:Drivers/STM32H7xx_HAL_Driver/Src/stm32h7xx_hal_rcc.c ****   RCC_OscInitStruct->PLL.PLLVCOSEL = (uint32_t)((RCC->PLLCFGR & RCC_PLLCFGR_PLL1VCOSEL) >> RCC_PLLC
 3323              		.loc 1 1706 53
 3324 0178 094B     		ldr	r3, .L190
 3325 017a DB6A     		ldr	r3, [r3, #44]
 3326              		.loc 1 1706 38
 3327 017c 5B08     		lsrs	r3, r3, #1
 3328 017e 03F00102 		and	r2, r3, #1
 3329              		.loc 1 1706 36
 3330 0182 7B68     		ldr	r3, [r7, #4]
 3331 0184 5A64     		str	r2, [r3, #68]
1707:Drivers/STM32H7xx_HAL_Driver/Src/stm32h7xx_hal_rcc.c ****   RCC_OscInitStruct->PLL.PLLFRACN = (uint32_t)(((RCC->PLL1FRACR & RCC_PLL1FRACR_FRACN1) >> RCC_PLL1
 3332              		.loc 1 1707 53
 3333 0186 064B     		ldr	r3, .L190
 3334 0188 5B6B     		ldr	r3, [r3, #52]
 3335              		.loc 1 1707 37
 3336 018a DB08     		lsrs	r3, r3, #3
 3337 018c C3F30C02 		ubfx	r2, r3, #0, #13
 3338              		.loc 1 1707 35
 3339 0190 7B68     		ldr	r3, [r7, #4]
 3340 0192 9A64     		str	r2, [r3, #72]
1708:Drivers/STM32H7xx_HAL_Driver/Src/stm32h7xx_hal_rcc.c **** }
 3341              		.loc 1 1708 1
 3342 0194 00BF     		nop
 3343 0196 0C37     		adds	r7, r7, #12
 3344              	.LCFI46:
 3345              		.cfi_def_cfa_offset 4
 3346 0198 BD46     		mov	sp, r7
 3347              	.LCFI47:
 3348              		.cfi_def_cfa_register 13
 3349              		@ sp needed
 3350 019a 5DF8047B 		ldr	r7, [sp], #4
 3351              	.LCFI48:
 3352              		.cfi_restore 7
 3353              		.cfi_def_cfa_offset 0
 3354 019e 7047     		bx	lr
 3355              	.L191:
 3356              		.align	2
 3357              	.L190:
 3358 01a0 00440258 		.word	1476543488
 3359              		.cfi_endproc
 3360              	.LFE154:
 3362              		.section	.text.HAL_RCC_GetClockConfig,"ax",%progbits
 3363              		.align	1
 3364              		.global	HAL_RCC_GetClockConfig
 3365              		.syntax unified
ARM GAS  C:\Users\fffff\AppData\Local\Temp\ccLkBlD6.s 			page 91


 3366              		.thumb
 3367              		.thumb_func
 3369              	HAL_RCC_GetClockConfig:
 3370              	.LFB155:
1709:Drivers/STM32H7xx_HAL_Driver/Src/stm32h7xx_hal_rcc.c **** 
1710:Drivers/STM32H7xx_HAL_Driver/Src/stm32h7xx_hal_rcc.c **** /**
1711:Drivers/STM32H7xx_HAL_Driver/Src/stm32h7xx_hal_rcc.c ****   * @brief  Configures the RCC_ClkInitStruct according to the internal
1712:Drivers/STM32H7xx_HAL_Driver/Src/stm32h7xx_hal_rcc.c ****   * RCC configuration registers.
1713:Drivers/STM32H7xx_HAL_Driver/Src/stm32h7xx_hal_rcc.c ****   * @param  RCC_ClkInitStruct: pointer to an RCC_ClkInitTypeDef structure that
1714:Drivers/STM32H7xx_HAL_Driver/Src/stm32h7xx_hal_rcc.c ****   * will be configured.
1715:Drivers/STM32H7xx_HAL_Driver/Src/stm32h7xx_hal_rcc.c ****   * @param  pFLatency: Pointer on the Flash Latency.
1716:Drivers/STM32H7xx_HAL_Driver/Src/stm32h7xx_hal_rcc.c ****   * @retval None
1717:Drivers/STM32H7xx_HAL_Driver/Src/stm32h7xx_hal_rcc.c ****   */
1718:Drivers/STM32H7xx_HAL_Driver/Src/stm32h7xx_hal_rcc.c **** void HAL_RCC_GetClockConfig(RCC_ClkInitTypeDef  *RCC_ClkInitStruct, uint32_t *pFLatency)
1719:Drivers/STM32H7xx_HAL_Driver/Src/stm32h7xx_hal_rcc.c **** {
 3371              		.loc 1 1719 1
 3372              		.cfi_startproc
 3373              		@ args = 0, pretend = 0, frame = 8
 3374              		@ frame_needed = 1, uses_anonymous_args = 0
 3375              		@ link register save eliminated.
 3376 0000 80B4     		push	{r7}
 3377              	.LCFI49:
 3378              		.cfi_def_cfa_offset 4
 3379              		.cfi_offset 7, -4
 3380 0002 83B0     		sub	sp, sp, #12
 3381              	.LCFI50:
 3382              		.cfi_def_cfa_offset 16
 3383 0004 00AF     		add	r7, sp, #0
 3384              	.LCFI51:
 3385              		.cfi_def_cfa_register 7
 3386 0006 7860     		str	r0, [r7, #4]
 3387 0008 3960     		str	r1, [r7]
1720:Drivers/STM32H7xx_HAL_Driver/Src/stm32h7xx_hal_rcc.c ****   /* Set all possible values for the Clock type parameter --------------------*/
1721:Drivers/STM32H7xx_HAL_Driver/Src/stm32h7xx_hal_rcc.c ****   RCC_ClkInitStruct->ClockType = RCC_CLOCKTYPE_SYSCLK | RCC_CLOCKTYPE_HCLK | RCC_CLOCKTYPE_D1PCLK1 
 3388              		.loc 1 1721 32
 3389 000a 7B68     		ldr	r3, [r7, #4]
 3390 000c 3F22     		movs	r2, #63
 3391 000e 1A60     		str	r2, [r3]
1722:Drivers/STM32H7xx_HAL_Driver/Src/stm32h7xx_hal_rcc.c ****                                  RCC_CLOCKTYPE_PCLK2 |  RCC_CLOCKTYPE_D3PCLK1  ;
1723:Drivers/STM32H7xx_HAL_Driver/Src/stm32h7xx_hal_rcc.c **** 
1724:Drivers/STM32H7xx_HAL_Driver/Src/stm32h7xx_hal_rcc.c ****   /* Get the SYSCLK configuration --------------------------------------------*/
1725:Drivers/STM32H7xx_HAL_Driver/Src/stm32h7xx_hal_rcc.c ****   RCC_ClkInitStruct->SYSCLKSource = (uint32_t)(RCC->CFGR & RCC_CFGR_SW);
 3392              		.loc 1 1725 51
 3393 0010 1A4B     		ldr	r3, .L193
 3394 0012 1B69     		ldr	r3, [r3, #16]
 3395              		.loc 1 1725 37
 3396 0014 03F00702 		and	r2, r3, #7
 3397              		.loc 1 1725 35
 3398 0018 7B68     		ldr	r3, [r7, #4]
 3399 001a 5A60     		str	r2, [r3, #4]
1726:Drivers/STM32H7xx_HAL_Driver/Src/stm32h7xx_hal_rcc.c **** 
1727:Drivers/STM32H7xx_HAL_Driver/Src/stm32h7xx_hal_rcc.c **** #if defined(RCC_D1CFGR_D1CPRE)
1728:Drivers/STM32H7xx_HAL_Driver/Src/stm32h7xx_hal_rcc.c ****   /* Get the SYSCLK configuration ----------------------------------------------*/
1729:Drivers/STM32H7xx_HAL_Driver/Src/stm32h7xx_hal_rcc.c ****   RCC_ClkInitStruct->SYSCLKDivider = (uint32_t)(RCC->D1CFGR & RCC_D1CFGR_D1CPRE);
 3400              		.loc 1 1729 52
 3401 001c 174B     		ldr	r3, .L193
 3402 001e 9B69     		ldr	r3, [r3, #24]
ARM GAS  C:\Users\fffff\AppData\Local\Temp\ccLkBlD6.s 			page 92


 3403              		.loc 1 1729 38
 3404 0020 03F47062 		and	r2, r3, #3840
 3405              		.loc 1 1729 36
 3406 0024 7B68     		ldr	r3, [r7, #4]
 3407 0026 9A60     		str	r2, [r3, #8]
1730:Drivers/STM32H7xx_HAL_Driver/Src/stm32h7xx_hal_rcc.c **** 
1731:Drivers/STM32H7xx_HAL_Driver/Src/stm32h7xx_hal_rcc.c ****   /* Get the D1HCLK configuration ----------------------------------------------*/
1732:Drivers/STM32H7xx_HAL_Driver/Src/stm32h7xx_hal_rcc.c ****   RCC_ClkInitStruct->AHBCLKDivider = (uint32_t)(RCC->D1CFGR & RCC_D1CFGR_HPRE);
 3408              		.loc 1 1732 52
 3409 0028 144B     		ldr	r3, .L193
 3410 002a 9B69     		ldr	r3, [r3, #24]
 3411              		.loc 1 1732 38
 3412 002c 03F00F02 		and	r2, r3, #15
 3413              		.loc 1 1732 36
 3414 0030 7B68     		ldr	r3, [r7, #4]
 3415 0032 DA60     		str	r2, [r3, #12]
1733:Drivers/STM32H7xx_HAL_Driver/Src/stm32h7xx_hal_rcc.c **** 
1734:Drivers/STM32H7xx_HAL_Driver/Src/stm32h7xx_hal_rcc.c ****   /* Get the APB3 configuration ----------------------------------------------*/
1735:Drivers/STM32H7xx_HAL_Driver/Src/stm32h7xx_hal_rcc.c ****   RCC_ClkInitStruct->APB3CLKDivider = (uint32_t)(RCC->D1CFGR & RCC_D1CFGR_D1PPRE);
 3416              		.loc 1 1735 53
 3417 0034 114B     		ldr	r3, .L193
 3418 0036 9B69     		ldr	r3, [r3, #24]
 3419              		.loc 1 1735 39
 3420 0038 03F07002 		and	r2, r3, #112
 3421              		.loc 1 1735 37
 3422 003c 7B68     		ldr	r3, [r7, #4]
 3423 003e 1A61     		str	r2, [r3, #16]
1736:Drivers/STM32H7xx_HAL_Driver/Src/stm32h7xx_hal_rcc.c **** 
1737:Drivers/STM32H7xx_HAL_Driver/Src/stm32h7xx_hal_rcc.c ****   /* Get the APB1 configuration ----------------------------------------------*/
1738:Drivers/STM32H7xx_HAL_Driver/Src/stm32h7xx_hal_rcc.c ****   RCC_ClkInitStruct->APB1CLKDivider = (uint32_t)(RCC->D2CFGR & RCC_D2CFGR_D2PPRE1);
 3424              		.loc 1 1738 53
 3425 0040 0E4B     		ldr	r3, .L193
 3426 0042 DB69     		ldr	r3, [r3, #28]
 3427              		.loc 1 1738 39
 3428 0044 03F07002 		and	r2, r3, #112
 3429              		.loc 1 1738 37
 3430 0048 7B68     		ldr	r3, [r7, #4]
 3431 004a 5A61     		str	r2, [r3, #20]
1739:Drivers/STM32H7xx_HAL_Driver/Src/stm32h7xx_hal_rcc.c **** 
1740:Drivers/STM32H7xx_HAL_Driver/Src/stm32h7xx_hal_rcc.c ****   /* Get the APB2 configuration ----------------------------------------------*/
1741:Drivers/STM32H7xx_HAL_Driver/Src/stm32h7xx_hal_rcc.c ****   RCC_ClkInitStruct->APB2CLKDivider = (uint32_t)(RCC->D2CFGR & RCC_D2CFGR_D2PPRE2);
 3432              		.loc 1 1741 53
 3433 004c 0B4B     		ldr	r3, .L193
 3434 004e DB69     		ldr	r3, [r3, #28]
 3435              		.loc 1 1741 39
 3436 0050 03F4E062 		and	r2, r3, #1792
 3437              		.loc 1 1741 37
 3438 0054 7B68     		ldr	r3, [r7, #4]
 3439 0056 9A61     		str	r2, [r3, #24]
1742:Drivers/STM32H7xx_HAL_Driver/Src/stm32h7xx_hal_rcc.c **** 
1743:Drivers/STM32H7xx_HAL_Driver/Src/stm32h7xx_hal_rcc.c ****   /* Get the APB4 configuration ----------------------------------------------*/
1744:Drivers/STM32H7xx_HAL_Driver/Src/stm32h7xx_hal_rcc.c ****   RCC_ClkInitStruct->APB4CLKDivider = (uint32_t)(RCC->D3CFGR & RCC_D3CFGR_D3PPRE);
 3440              		.loc 1 1744 53
 3441 0058 084B     		ldr	r3, .L193
 3442 005a 1B6A     		ldr	r3, [r3, #32]
 3443              		.loc 1 1744 39
 3444 005c 03F07002 		and	r2, r3, #112
ARM GAS  C:\Users\fffff\AppData\Local\Temp\ccLkBlD6.s 			page 93


 3445              		.loc 1 1744 37
 3446 0060 7B68     		ldr	r3, [r7, #4]
 3447 0062 DA61     		str	r2, [r3, #28]
1745:Drivers/STM32H7xx_HAL_Driver/Src/stm32h7xx_hal_rcc.c **** #else
1746:Drivers/STM32H7xx_HAL_Driver/Src/stm32h7xx_hal_rcc.c ****   /* Get the SYSCLK configuration ----------------------------------------------*/
1747:Drivers/STM32H7xx_HAL_Driver/Src/stm32h7xx_hal_rcc.c ****   RCC_ClkInitStruct->SYSCLKDivider = (uint32_t)(RCC->CDCFGR1 & RCC_CDCFGR1_CDCPRE);
1748:Drivers/STM32H7xx_HAL_Driver/Src/stm32h7xx_hal_rcc.c **** 
1749:Drivers/STM32H7xx_HAL_Driver/Src/stm32h7xx_hal_rcc.c ****   /* Get the D1HCLK configuration ----------------------------------------------*/
1750:Drivers/STM32H7xx_HAL_Driver/Src/stm32h7xx_hal_rcc.c ****   RCC_ClkInitStruct->AHBCLKDivider = (uint32_t)(RCC->CDCFGR1 & RCC_CDCFGR1_HPRE);
1751:Drivers/STM32H7xx_HAL_Driver/Src/stm32h7xx_hal_rcc.c **** 
1752:Drivers/STM32H7xx_HAL_Driver/Src/stm32h7xx_hal_rcc.c ****   /* Get the APB3 configuration ----------------------------------------------*/
1753:Drivers/STM32H7xx_HAL_Driver/Src/stm32h7xx_hal_rcc.c ****   RCC_ClkInitStruct->APB3CLKDivider = (uint32_t)(RCC->CDCFGR1 & RCC_CDCFGR1_CDPPRE);
1754:Drivers/STM32H7xx_HAL_Driver/Src/stm32h7xx_hal_rcc.c **** 
1755:Drivers/STM32H7xx_HAL_Driver/Src/stm32h7xx_hal_rcc.c ****   /* Get the APB1 configuration ----------------------------------------------*/
1756:Drivers/STM32H7xx_HAL_Driver/Src/stm32h7xx_hal_rcc.c ****   RCC_ClkInitStruct->APB1CLKDivider = (uint32_t)(RCC->CDCFGR2 & RCC_CDCFGR2_CDPPRE1);
1757:Drivers/STM32H7xx_HAL_Driver/Src/stm32h7xx_hal_rcc.c **** 
1758:Drivers/STM32H7xx_HAL_Driver/Src/stm32h7xx_hal_rcc.c ****   /* Get the APB2 configuration ----------------------------------------------*/
1759:Drivers/STM32H7xx_HAL_Driver/Src/stm32h7xx_hal_rcc.c ****   RCC_ClkInitStruct->APB2CLKDivider = (uint32_t)(RCC->CDCFGR2 & RCC_CDCFGR2_CDPPRE2);
1760:Drivers/STM32H7xx_HAL_Driver/Src/stm32h7xx_hal_rcc.c **** 
1761:Drivers/STM32H7xx_HAL_Driver/Src/stm32h7xx_hal_rcc.c ****   /* Get the APB4 configuration ----------------------------------------------*/
1762:Drivers/STM32H7xx_HAL_Driver/Src/stm32h7xx_hal_rcc.c ****   RCC_ClkInitStruct->APB4CLKDivider = (uint32_t)(RCC->SRDCFGR & RCC_SRDCFGR_SRDPPRE);
1763:Drivers/STM32H7xx_HAL_Driver/Src/stm32h7xx_hal_rcc.c **** #endif
1764:Drivers/STM32H7xx_HAL_Driver/Src/stm32h7xx_hal_rcc.c **** 
1765:Drivers/STM32H7xx_HAL_Driver/Src/stm32h7xx_hal_rcc.c ****   /* Get the Flash Wait State (Latency) configuration ------------------------*/
1766:Drivers/STM32H7xx_HAL_Driver/Src/stm32h7xx_hal_rcc.c ****   *pFLatency = (uint32_t)(FLASH->ACR & FLASH_ACR_LATENCY);
 3448              		.loc 1 1766 32
 3449 0064 064B     		ldr	r3, .L193+4
 3450 0066 1B68     		ldr	r3, [r3]
 3451              		.loc 1 1766 16
 3452 0068 03F00F02 		and	r2, r3, #15
 3453              		.loc 1 1766 14
 3454 006c 3B68     		ldr	r3, [r7]
 3455 006e 1A60     		str	r2, [r3]
1767:Drivers/STM32H7xx_HAL_Driver/Src/stm32h7xx_hal_rcc.c **** }
 3456              		.loc 1 1767 1
 3457 0070 00BF     		nop
 3458 0072 0C37     		adds	r7, r7, #12
 3459              	.LCFI52:
 3460              		.cfi_def_cfa_offset 4
 3461 0074 BD46     		mov	sp, r7
 3462              	.LCFI53:
 3463              		.cfi_def_cfa_register 13
 3464              		@ sp needed
 3465 0076 5DF8047B 		ldr	r7, [sp], #4
 3466              	.LCFI54:
 3467              		.cfi_restore 7
 3468              		.cfi_def_cfa_offset 0
 3469 007a 7047     		bx	lr
 3470              	.L194:
 3471              		.align	2
 3472              	.L193:
 3473 007c 00440258 		.word	1476543488
 3474 0080 00200052 		.word	1375739904
 3475              		.cfi_endproc
 3476              	.LFE155:
 3478              		.section	.text.HAL_RCC_NMI_IRQHandler,"ax",%progbits
 3479              		.align	1
ARM GAS  C:\Users\fffff\AppData\Local\Temp\ccLkBlD6.s 			page 94


 3480              		.global	HAL_RCC_NMI_IRQHandler
 3481              		.syntax unified
 3482              		.thumb
 3483              		.thumb_func
 3485              	HAL_RCC_NMI_IRQHandler:
 3486              	.LFB156:
1768:Drivers/STM32H7xx_HAL_Driver/Src/stm32h7xx_hal_rcc.c **** 
1769:Drivers/STM32H7xx_HAL_Driver/Src/stm32h7xx_hal_rcc.c **** /**
1770:Drivers/STM32H7xx_HAL_Driver/Src/stm32h7xx_hal_rcc.c ****   * @brief This function handles the RCC CSS interrupt request.
1771:Drivers/STM32H7xx_HAL_Driver/Src/stm32h7xx_hal_rcc.c ****   * @note This API should be called under the NMI_Handler().
1772:Drivers/STM32H7xx_HAL_Driver/Src/stm32h7xx_hal_rcc.c ****   * @retval None
1773:Drivers/STM32H7xx_HAL_Driver/Src/stm32h7xx_hal_rcc.c ****   */
1774:Drivers/STM32H7xx_HAL_Driver/Src/stm32h7xx_hal_rcc.c **** void HAL_RCC_NMI_IRQHandler(void)
1775:Drivers/STM32H7xx_HAL_Driver/Src/stm32h7xx_hal_rcc.c **** {
 3487              		.loc 1 1775 1
 3488              		.cfi_startproc
 3489              		@ args = 0, pretend = 0, frame = 0
 3490              		@ frame_needed = 1, uses_anonymous_args = 0
 3491 0000 80B5     		push	{r7, lr}
 3492              	.LCFI55:
 3493              		.cfi_def_cfa_offset 8
 3494              		.cfi_offset 7, -8
 3495              		.cfi_offset 14, -4
 3496 0002 00AF     		add	r7, sp, #0
 3497              	.LCFI56:
 3498              		.cfi_def_cfa_register 7
1776:Drivers/STM32H7xx_HAL_Driver/Src/stm32h7xx_hal_rcc.c ****   /* Check RCC CSSF flag  */
1777:Drivers/STM32H7xx_HAL_Driver/Src/stm32h7xx_hal_rcc.c ****   if (__HAL_RCC_GET_IT(RCC_IT_CSS))
 3499              		.loc 1 1777 7
 3500 0004 074B     		ldr	r3, .L198
 3501 0006 5B6E     		ldr	r3, [r3, #100]
 3502 0008 03F48063 		and	r3, r3, #1024
 3503              		.loc 1 1777 6
 3504 000c B3F5806F 		cmp	r3, #1024
 3505 0010 05D1     		bne	.L197
1778:Drivers/STM32H7xx_HAL_Driver/Src/stm32h7xx_hal_rcc.c ****   {
1779:Drivers/STM32H7xx_HAL_Driver/Src/stm32h7xx_hal_rcc.c ****     /* RCC Clock Security System interrupt user callback */
1780:Drivers/STM32H7xx_HAL_Driver/Src/stm32h7xx_hal_rcc.c ****     HAL_RCC_CSSCallback();
 3506              		.loc 1 1780 5
 3507 0012 FFF7FEFF 		bl	HAL_RCC_CSSCallback
1781:Drivers/STM32H7xx_HAL_Driver/Src/stm32h7xx_hal_rcc.c **** 
1782:Drivers/STM32H7xx_HAL_Driver/Src/stm32h7xx_hal_rcc.c ****     /* Clear RCC CSS pending bit */
1783:Drivers/STM32H7xx_HAL_Driver/Src/stm32h7xx_hal_rcc.c ****     __HAL_RCC_CLEAR_IT(RCC_IT_CSS);
 3508              		.loc 1 1783 5
 3509 0016 034B     		ldr	r3, .L198
 3510 0018 4FF48062 		mov	r2, #1024
 3511 001c 9A66     		str	r2, [r3, #104]
 3512              	.L197:
1784:Drivers/STM32H7xx_HAL_Driver/Src/stm32h7xx_hal_rcc.c ****   }
1785:Drivers/STM32H7xx_HAL_Driver/Src/stm32h7xx_hal_rcc.c **** }
 3513              		.loc 1 1785 1
 3514 001e 00BF     		nop
 3515 0020 80BD     		pop	{r7, pc}
 3516              	.L199:
 3517 0022 00BF     		.align	2
 3518              	.L198:
 3519 0024 00440258 		.word	1476543488
ARM GAS  C:\Users\fffff\AppData\Local\Temp\ccLkBlD6.s 			page 95


 3520              		.cfi_endproc
 3521              	.LFE156:
 3523              		.section	.text.HAL_RCC_CSSCallback,"ax",%progbits
 3524              		.align	1
 3525              		.weak	HAL_RCC_CSSCallback
 3526              		.syntax unified
 3527              		.thumb
 3528              		.thumb_func
 3530              	HAL_RCC_CSSCallback:
 3531              	.LFB157:
1786:Drivers/STM32H7xx_HAL_Driver/Src/stm32h7xx_hal_rcc.c **** 
1787:Drivers/STM32H7xx_HAL_Driver/Src/stm32h7xx_hal_rcc.c **** /**
1788:Drivers/STM32H7xx_HAL_Driver/Src/stm32h7xx_hal_rcc.c ****   * @brief  RCC Clock Security System interrupt callback
1789:Drivers/STM32H7xx_HAL_Driver/Src/stm32h7xx_hal_rcc.c ****   * @retval none
1790:Drivers/STM32H7xx_HAL_Driver/Src/stm32h7xx_hal_rcc.c ****   */
1791:Drivers/STM32H7xx_HAL_Driver/Src/stm32h7xx_hal_rcc.c **** __weak void HAL_RCC_CSSCallback(void)
1792:Drivers/STM32H7xx_HAL_Driver/Src/stm32h7xx_hal_rcc.c **** {
 3532              		.loc 1 1792 1
 3533              		.cfi_startproc
 3534              		@ args = 0, pretend = 0, frame = 0
 3535              		@ frame_needed = 1, uses_anonymous_args = 0
 3536              		@ link register save eliminated.
 3537 0000 80B4     		push	{r7}
 3538              	.LCFI57:
 3539              		.cfi_def_cfa_offset 4
 3540              		.cfi_offset 7, -4
 3541 0002 00AF     		add	r7, sp, #0
 3542              	.LCFI58:
 3543              		.cfi_def_cfa_register 7
1793:Drivers/STM32H7xx_HAL_Driver/Src/stm32h7xx_hal_rcc.c ****   /* NOTE : This function Should not be modified, when the callback is needed,
1794:Drivers/STM32H7xx_HAL_Driver/Src/stm32h7xx_hal_rcc.c ****             the HAL_RCC_CSSCallback could be implemented in the user file
1795:Drivers/STM32H7xx_HAL_Driver/Src/stm32h7xx_hal_rcc.c ****    */
1796:Drivers/STM32H7xx_HAL_Driver/Src/stm32h7xx_hal_rcc.c **** }
 3544              		.loc 1 1796 1
 3545 0004 00BF     		nop
 3546 0006 BD46     		mov	sp, r7
 3547              	.LCFI59:
 3548              		.cfi_def_cfa_register 13
 3549              		@ sp needed
 3550 0008 5DF8047B 		ldr	r7, [sp], #4
 3551              	.LCFI60:
 3552              		.cfi_restore 7
 3553              		.cfi_def_cfa_offset 0
 3554 000c 7047     		bx	lr
 3555              		.cfi_endproc
 3556              	.LFE157:
 3558              		.text
 3559              	.Letext0:
 3560              		.file 2 "C:/msys64/mingw64/arm-none-eabi/include/machine/_default_types.h"
 3561              		.file 3 "C:/msys64/mingw64/arm-none-eabi/include/sys/_stdint.h"
 3562              		.file 4 "Drivers/CMSIS/Device/ST/STM32H7xx/Include/system_stm32h7xx.h"
 3563              		.file 5 "Drivers/CMSIS/Device/ST/STM32H7xx/Include/stm32h723xx.h"
 3564              		.file 6 "C:/msys64/mingw64/arm-none-eabi/include/math.h"
 3565              		.file 7 "Drivers/STM32H7xx_HAL_Driver/Inc/stm32h7xx_hal_def.h"
 3566              		.file 8 "Drivers/STM32H7xx_HAL_Driver/Inc/stm32h7xx_hal_rcc.h"
 3567              		.file 9 "Drivers/STM32H7xx_HAL_Driver/Inc/stm32h7xx_hal_gpio.h"
 3568              		.file 10 "Drivers/STM32H7xx_HAL_Driver/Inc/stm32h7xx_hal.h"
ARM GAS  C:\Users\fffff\AppData\Local\Temp\ccLkBlD6.s 			page 96


ARM GAS  C:\Users\fffff\AppData\Local\Temp\ccLkBlD6.s 			page 97


DEFINED SYMBOLS
                            *ABS*:00000000 stm32h7xx_hal_rcc.c
C:\Users\fffff\AppData\Local\Temp\ccLkBlD6.s:20     .text.HAL_RCC_DeInit:00000000 $t
C:\Users\fffff\AppData\Local\Temp\ccLkBlD6.s:26     .text.HAL_RCC_DeInit:00000000 HAL_RCC_DeInit
C:\Users\fffff\AppData\Local\Temp\ccLkBlD6.s:394    .text.HAL_RCC_DeInit:0000022c $d
C:\Users\fffff\AppData\Local\Temp\ccLkBlD6.s:408    .text.HAL_RCC_OscConfig:00000000 $t
C:\Users\fffff\AppData\Local\Temp\ccLkBlD6.s:414    .text.HAL_RCC_OscConfig:00000000 HAL_RCC_OscConfig
C:\Users\fffff\AppData\Local\Temp\ccLkBlD6.s:799    .text.HAL_RCC_OscConfig:00000244 $d
C:\Users\fffff\AppData\Local\Temp\ccLkBlD6.s:802    .text.HAL_RCC_OscConfig:00000248 $t
C:\Users\fffff\AppData\Local\Temp\ccLkBlD6.s:1196   .text.HAL_RCC_OscConfig:000004a4 $d
C:\Users\fffff\AppData\Local\Temp\ccLkBlD6.s:1200   .text.HAL_RCC_OscConfig:000004ac $t
C:\Users\fffff\AppData\Local\Temp\ccLkBlD6.s:1510   .text.HAL_RCC_OscConfig:000006c4 $d
C:\Users\fffff\AppData\Local\Temp\ccLkBlD6.s:1515   .text.HAL_RCC_OscConfig:000006d0 $t
C:\Users\fffff\AppData\Local\Temp\ccLkBlD6.s:1669   .text.HAL_RCC_OscConfig:000007ac $d
C:\Users\fffff\AppData\Local\Temp\ccLkBlD6.s:1675   .text.HAL_RCC_ClockConfig:00000000 $t
C:\Users\fffff\AppData\Local\Temp\ccLkBlD6.s:1681   .text.HAL_RCC_ClockConfig:00000000 HAL_RCC_ClockConfig
C:\Users\fffff\AppData\Local\Temp\ccLkBlD6.s:2061   .text.HAL_RCC_ClockConfig:00000240 $d
C:\Users\fffff\AppData\Local\Temp\ccLkBlD6.s:2065   .text.HAL_RCC_ClockConfig:00000248 $t
C:\Users\fffff\AppData\Local\Temp\ccLkBlD6.s:2486   .text.HAL_RCC_GetSysClockFreq:00000000 HAL_RCC_GetSysClockFreq
C:\Users\fffff\AppData\Local\Temp\ccLkBlD6.s:2240   .text.HAL_RCC_ClockConfig:00000358 $d
C:\Users\fffff\AppData\Local\Temp\ccLkBlD6.s:2249   .text.HAL_RCC_MCOConfig:00000000 $t
C:\Users\fffff\AppData\Local\Temp\ccLkBlD6.s:2255   .text.HAL_RCC_MCOConfig:00000000 HAL_RCC_MCOConfig
C:\Users\fffff\AppData\Local\Temp\ccLkBlD6.s:2383   .text.HAL_RCC_MCOConfig:000000c8 $d
C:\Users\fffff\AppData\Local\Temp\ccLkBlD6.s:2390   .text.HAL_RCC_EnableCSS:00000000 $t
C:\Users\fffff\AppData\Local\Temp\ccLkBlD6.s:2396   .text.HAL_RCC_EnableCSS:00000000 HAL_RCC_EnableCSS
C:\Users\fffff\AppData\Local\Temp\ccLkBlD6.s:2430   .text.HAL_RCC_EnableCSS:0000001c $d
C:\Users\fffff\AppData\Local\Temp\ccLkBlD6.s:2435   .text.HAL_RCC_DisableCSS:00000000 $t
C:\Users\fffff\AppData\Local\Temp\ccLkBlD6.s:2441   .text.HAL_RCC_DisableCSS:00000000 HAL_RCC_DisableCSS
C:\Users\fffff\AppData\Local\Temp\ccLkBlD6.s:2475   .text.HAL_RCC_DisableCSS:0000001c $d
C:\Users\fffff\AppData\Local\Temp\ccLkBlD6.s:2480   .text.HAL_RCC_GetSysClockFreq:00000000 $t
C:\Users\fffff\AppData\Local\Temp\ccLkBlD6.s:2515   .text.HAL_RCC_GetSysClockFreq:0000001c $d
C:\Users\fffff\AppData\Local\Temp\ccLkBlD6.s:2540   .text.HAL_RCC_GetSysClockFreq:00000080 $t
C:\Users\fffff\AppData\Local\Temp\ccLkBlD6.s:2856   .text.HAL_RCC_GetSysClockFreq:000002d4 $d
C:\Users\fffff\AppData\Local\Temp\ccLkBlD6.s:2868   .text.HAL_RCC_GetHCLKFreq:00000000 $t
C:\Users\fffff\AppData\Local\Temp\ccLkBlD6.s:2874   .text.HAL_RCC_GetHCLKFreq:00000000 HAL_RCC_GetHCLKFreq
C:\Users\fffff\AppData\Local\Temp\ccLkBlD6.s:2944   .text.HAL_RCC_GetHCLKFreq:00000050 $d
C:\Users\fffff\AppData\Local\Temp\ccLkBlD6.s:2952   .text.HAL_RCC_GetPCLK1Freq:00000000 $t
C:\Users\fffff\AppData\Local\Temp\ccLkBlD6.s:2958   .text.HAL_RCC_GetPCLK1Freq:00000000 HAL_RCC_GetPCLK1Freq
C:\Users\fffff\AppData\Local\Temp\ccLkBlD6.s:2994   .text.HAL_RCC_GetPCLK1Freq:00000024 $d
C:\Users\fffff\AppData\Local\Temp\ccLkBlD6.s:3000   .text.HAL_RCC_GetPCLK2Freq:00000000 $t
C:\Users\fffff\AppData\Local\Temp\ccLkBlD6.s:3006   .text.HAL_RCC_GetPCLK2Freq:00000000 HAL_RCC_GetPCLK2Freq
C:\Users\fffff\AppData\Local\Temp\ccLkBlD6.s:3042   .text.HAL_RCC_GetPCLK2Freq:00000024 $d
C:\Users\fffff\AppData\Local\Temp\ccLkBlD6.s:3048   .text.HAL_RCC_GetOscConfig:00000000 $t
C:\Users\fffff\AppData\Local\Temp\ccLkBlD6.s:3054   .text.HAL_RCC_GetOscConfig:00000000 HAL_RCC_GetOscConfig
C:\Users\fffff\AppData\Local\Temp\ccLkBlD6.s:3358   .text.HAL_RCC_GetOscConfig:000001a0 $d
C:\Users\fffff\AppData\Local\Temp\ccLkBlD6.s:3363   .text.HAL_RCC_GetClockConfig:00000000 $t
C:\Users\fffff\AppData\Local\Temp\ccLkBlD6.s:3369   .text.HAL_RCC_GetClockConfig:00000000 HAL_RCC_GetClockConfig
C:\Users\fffff\AppData\Local\Temp\ccLkBlD6.s:3473   .text.HAL_RCC_GetClockConfig:0000007c $d
C:\Users\fffff\AppData\Local\Temp\ccLkBlD6.s:3479   .text.HAL_RCC_NMI_IRQHandler:00000000 $t
C:\Users\fffff\AppData\Local\Temp\ccLkBlD6.s:3485   .text.HAL_RCC_NMI_IRQHandler:00000000 HAL_RCC_NMI_IRQHandler
C:\Users\fffff\AppData\Local\Temp\ccLkBlD6.s:3530   .text.HAL_RCC_CSSCallback:00000000 HAL_RCC_CSSCallback
C:\Users\fffff\AppData\Local\Temp\ccLkBlD6.s:3519   .text.HAL_RCC_NMI_IRQHandler:00000024 $d
C:\Users\fffff\AppData\Local\Temp\ccLkBlD6.s:3524   .text.HAL_RCC_CSSCallback:00000000 $t

UNDEFINED SYMBOLS
HAL_GetTick
HAL_InitTick
ARM GAS  C:\Users\fffff\AppData\Local\Temp\ccLkBlD6.s 			page 98


SystemCoreClock
SystemD2Clock
uwTickPrio
D1CorePrescTable
HAL_GPIO_Init
