ARM GAS  C:\Users\23671\AppData\Local\Temp\cc8GjZ48.s 			page 1


   1              		.cpu cortex-m7
   2              		.arch armv7e-m
   3              		.fpu fpv5-d16
   4              		.eabi_attribute 28, 1
   5              		.eabi_attribute 20, 1
   6              		.eabi_attribute 21, 1
   7              		.eabi_attribute 23, 3
   8              		.eabi_attribute 24, 1
   9              		.eabi_attribute 25, 1
  10              		.eabi_attribute 26, 1
  11              		.eabi_attribute 30, 6
  12              		.eabi_attribute 34, 1
  13              		.eabi_attribute 18, 4
  14              		.file	"stm32h7xx_hal.c"
  15              		.text
  16              	.Ltext0:
  17              		.cfi_sections	.debug_frame
  18              		.file 1 "Drivers/STM32H7xx_HAL_Driver/Src/stm32h7xx_hal.c"
  19              		.global	uwTick
  20              		.section	.bss.uwTick,"aw",%nobits
  21              		.align	2
  24              	uwTick:
  25 0000 00000000 		.space	4
  26              		.global	uwTickPrio
  27              		.section	.data.uwTickPrio,"aw"
  28              		.align	2
  31              	uwTickPrio:
  32 0000 10000000 		.word	16
  33              		.global	uwTickFreq
  34              		.section	.data.uwTickFreq,"aw"
  37              	uwTickFreq:
  38 0000 01       		.byte	1
  39              		.section	.text.HAL_Init,"ax",%progbits
  40              		.align	1
  41              		.global	HAL_Init
  42              		.syntax unified
  43              		.thumb
  44              		.thumb_func
  46              	HAL_Init:
  47              	.LFB144:
   1:Drivers/STM32H7xx_HAL_Driver/Src/stm32h7xx_hal.c **** /**
   2:Drivers/STM32H7xx_HAL_Driver/Src/stm32h7xx_hal.c ****   ******************************************************************************
   3:Drivers/STM32H7xx_HAL_Driver/Src/stm32h7xx_hal.c ****   * @file    stm32h7xx_hal.c
   4:Drivers/STM32H7xx_HAL_Driver/Src/stm32h7xx_hal.c ****   * @author  MCD Application Team
   5:Drivers/STM32H7xx_HAL_Driver/Src/stm32h7xx_hal.c ****   * @brief   HAL module driver.
   6:Drivers/STM32H7xx_HAL_Driver/Src/stm32h7xx_hal.c ****   *          This is the common part of the HAL initialization
   7:Drivers/STM32H7xx_HAL_Driver/Src/stm32h7xx_hal.c ****   *
   8:Drivers/STM32H7xx_HAL_Driver/Src/stm32h7xx_hal.c ****   ******************************************************************************
   9:Drivers/STM32H7xx_HAL_Driver/Src/stm32h7xx_hal.c ****   * @attention
  10:Drivers/STM32H7xx_HAL_Driver/Src/stm32h7xx_hal.c ****   *
  11:Drivers/STM32H7xx_HAL_Driver/Src/stm32h7xx_hal.c ****   * Copyright (c) 2017 STMicroelectronics.
  12:Drivers/STM32H7xx_HAL_Driver/Src/stm32h7xx_hal.c ****   * All rights reserved.
  13:Drivers/STM32H7xx_HAL_Driver/Src/stm32h7xx_hal.c ****   *
  14:Drivers/STM32H7xx_HAL_Driver/Src/stm32h7xx_hal.c ****   * This software is licensed under terms that can be found in the LICENSE file
  15:Drivers/STM32H7xx_HAL_Driver/Src/stm32h7xx_hal.c ****   * in the root directory of this software component.
  16:Drivers/STM32H7xx_HAL_Driver/Src/stm32h7xx_hal.c ****   * If no LICENSE file comes with this software, it is provided AS-IS.
  17:Drivers/STM32H7xx_HAL_Driver/Src/stm32h7xx_hal.c ****   *
ARM GAS  C:\Users\23671\AppData\Local\Temp\cc8GjZ48.s 			page 2


  18:Drivers/STM32H7xx_HAL_Driver/Src/stm32h7xx_hal.c ****   ******************************************************************************
  19:Drivers/STM32H7xx_HAL_Driver/Src/stm32h7xx_hal.c ****   @verbatim
  20:Drivers/STM32H7xx_HAL_Driver/Src/stm32h7xx_hal.c ****   ==============================================================================
  21:Drivers/STM32H7xx_HAL_Driver/Src/stm32h7xx_hal.c ****                      ##### How to use this driver #####
  22:Drivers/STM32H7xx_HAL_Driver/Src/stm32h7xx_hal.c ****   ==============================================================================
  23:Drivers/STM32H7xx_HAL_Driver/Src/stm32h7xx_hal.c ****     [..]
  24:Drivers/STM32H7xx_HAL_Driver/Src/stm32h7xx_hal.c ****     The common HAL driver contains a set of generic and common APIs that can be
  25:Drivers/STM32H7xx_HAL_Driver/Src/stm32h7xx_hal.c ****     used by the PPP peripheral drivers and the user to start using the HAL.
  26:Drivers/STM32H7xx_HAL_Driver/Src/stm32h7xx_hal.c ****     [..]
  27:Drivers/STM32H7xx_HAL_Driver/Src/stm32h7xx_hal.c ****     The HAL contains two APIs' categories:
  28:Drivers/STM32H7xx_HAL_Driver/Src/stm32h7xx_hal.c ****          (+) Common HAL APIs
  29:Drivers/STM32H7xx_HAL_Driver/Src/stm32h7xx_hal.c ****          (+) Services HAL APIs
  30:Drivers/STM32H7xx_HAL_Driver/Src/stm32h7xx_hal.c **** 
  31:Drivers/STM32H7xx_HAL_Driver/Src/stm32h7xx_hal.c ****   @endverbatim
  32:Drivers/STM32H7xx_HAL_Driver/Src/stm32h7xx_hal.c ****   ******************************************************************************
  33:Drivers/STM32H7xx_HAL_Driver/Src/stm32h7xx_hal.c ****   */
  34:Drivers/STM32H7xx_HAL_Driver/Src/stm32h7xx_hal.c **** 
  35:Drivers/STM32H7xx_HAL_Driver/Src/stm32h7xx_hal.c **** /* Includes ------------------------------------------------------------------*/
  36:Drivers/STM32H7xx_HAL_Driver/Src/stm32h7xx_hal.c **** #include "stm32h7xx_hal.h"
  37:Drivers/STM32H7xx_HAL_Driver/Src/stm32h7xx_hal.c **** 
  38:Drivers/STM32H7xx_HAL_Driver/Src/stm32h7xx_hal.c **** /** @addtogroup STM32H7xx_HAL_Driver
  39:Drivers/STM32H7xx_HAL_Driver/Src/stm32h7xx_hal.c ****   * @{
  40:Drivers/STM32H7xx_HAL_Driver/Src/stm32h7xx_hal.c ****   */
  41:Drivers/STM32H7xx_HAL_Driver/Src/stm32h7xx_hal.c **** 
  42:Drivers/STM32H7xx_HAL_Driver/Src/stm32h7xx_hal.c **** /** @defgroup HAL  HAL
  43:Drivers/STM32H7xx_HAL_Driver/Src/stm32h7xx_hal.c ****   * @brief HAL module driver.
  44:Drivers/STM32H7xx_HAL_Driver/Src/stm32h7xx_hal.c ****   * @{
  45:Drivers/STM32H7xx_HAL_Driver/Src/stm32h7xx_hal.c ****   */
  46:Drivers/STM32H7xx_HAL_Driver/Src/stm32h7xx_hal.c **** 
  47:Drivers/STM32H7xx_HAL_Driver/Src/stm32h7xx_hal.c **** /* Private typedef -----------------------------------------------------------*/
  48:Drivers/STM32H7xx_HAL_Driver/Src/stm32h7xx_hal.c **** /* Private define ------------------------------------------------------------*/
  49:Drivers/STM32H7xx_HAL_Driver/Src/stm32h7xx_hal.c **** /**
  50:Drivers/STM32H7xx_HAL_Driver/Src/stm32h7xx_hal.c ****  * @brief STM32H7xx HAL Driver version number
  51:Drivers/STM32H7xx_HAL_Driver/Src/stm32h7xx_hal.c ****    */
  52:Drivers/STM32H7xx_HAL_Driver/Src/stm32h7xx_hal.c **** #define __STM32H7xx_HAL_VERSION_MAIN   (0x01UL) /*!< [31:24] main version */
  53:Drivers/STM32H7xx_HAL_Driver/Src/stm32h7xx_hal.c **** #define __STM32H7xx_HAL_VERSION_SUB1   (0x0BUL) /*!< [23:16] sub1 version */
  54:Drivers/STM32H7xx_HAL_Driver/Src/stm32h7xx_hal.c **** #define __STM32H7xx_HAL_VERSION_SUB2   (0x05UL) /*!< [15:8]  sub2 version */
  55:Drivers/STM32H7xx_HAL_Driver/Src/stm32h7xx_hal.c **** #define __STM32H7xx_HAL_VERSION_RC     (0x00UL) /*!< [7:0]  release candidate */
  56:Drivers/STM32H7xx_HAL_Driver/Src/stm32h7xx_hal.c **** #define __STM32H7xx_HAL_VERSION         ((__STM32H7xx_HAL_VERSION_MAIN << 24)\
  57:Drivers/STM32H7xx_HAL_Driver/Src/stm32h7xx_hal.c ****                                         |(__STM32H7xx_HAL_VERSION_SUB1 << 16)\
  58:Drivers/STM32H7xx_HAL_Driver/Src/stm32h7xx_hal.c ****                                         |(__STM32H7xx_HAL_VERSION_SUB2 << 8 )\
  59:Drivers/STM32H7xx_HAL_Driver/Src/stm32h7xx_hal.c ****                                         |(__STM32H7xx_HAL_VERSION_RC))
  60:Drivers/STM32H7xx_HAL_Driver/Src/stm32h7xx_hal.c **** 
  61:Drivers/STM32H7xx_HAL_Driver/Src/stm32h7xx_hal.c **** #define IDCODE_DEVID_MASK    ((uint32_t)0x00000FFF)
  62:Drivers/STM32H7xx_HAL_Driver/Src/stm32h7xx_hal.c **** #define VREFBUF_TIMEOUT_VALUE     (uint32_t)10   /* 10 ms  */
  63:Drivers/STM32H7xx_HAL_Driver/Src/stm32h7xx_hal.c **** 
  64:Drivers/STM32H7xx_HAL_Driver/Src/stm32h7xx_hal.c **** /* Private macro -------------------------------------------------------------*/
  65:Drivers/STM32H7xx_HAL_Driver/Src/stm32h7xx_hal.c **** /* Private variables ---------------------------------------------------------*/
  66:Drivers/STM32H7xx_HAL_Driver/Src/stm32h7xx_hal.c **** /* Exported variables --------------------------------------------------------*/
  67:Drivers/STM32H7xx_HAL_Driver/Src/stm32h7xx_hal.c **** 
  68:Drivers/STM32H7xx_HAL_Driver/Src/stm32h7xx_hal.c **** /** @defgroup HAL_Exported_Variables HAL Exported Variables
  69:Drivers/STM32H7xx_HAL_Driver/Src/stm32h7xx_hal.c ****   * @{
  70:Drivers/STM32H7xx_HAL_Driver/Src/stm32h7xx_hal.c ****   */
  71:Drivers/STM32H7xx_HAL_Driver/Src/stm32h7xx_hal.c **** __IO uint32_t uwTick;
  72:Drivers/STM32H7xx_HAL_Driver/Src/stm32h7xx_hal.c **** uint32_t uwTickPrio   = (1UL << __NVIC_PRIO_BITS); /* Invalid PRIO */
  73:Drivers/STM32H7xx_HAL_Driver/Src/stm32h7xx_hal.c **** HAL_TickFreqTypeDef uwTickFreq = HAL_TICK_FREQ_DEFAULT;  /* 1KHz */
  74:Drivers/STM32H7xx_HAL_Driver/Src/stm32h7xx_hal.c **** /**
ARM GAS  C:\Users\23671\AppData\Local\Temp\cc8GjZ48.s 			page 3


  75:Drivers/STM32H7xx_HAL_Driver/Src/stm32h7xx_hal.c ****   * @}
  76:Drivers/STM32H7xx_HAL_Driver/Src/stm32h7xx_hal.c ****   */
  77:Drivers/STM32H7xx_HAL_Driver/Src/stm32h7xx_hal.c **** 
  78:Drivers/STM32H7xx_HAL_Driver/Src/stm32h7xx_hal.c **** /* Private function prototypes -----------------------------------------------*/
  79:Drivers/STM32H7xx_HAL_Driver/Src/stm32h7xx_hal.c **** /* Private functions ---------------------------------------------------------*/
  80:Drivers/STM32H7xx_HAL_Driver/Src/stm32h7xx_hal.c **** 
  81:Drivers/STM32H7xx_HAL_Driver/Src/stm32h7xx_hal.c **** /** @addtogroup HAL_Exported_Functions
  82:Drivers/STM32H7xx_HAL_Driver/Src/stm32h7xx_hal.c ****   * @{
  83:Drivers/STM32H7xx_HAL_Driver/Src/stm32h7xx_hal.c ****   */
  84:Drivers/STM32H7xx_HAL_Driver/Src/stm32h7xx_hal.c **** 
  85:Drivers/STM32H7xx_HAL_Driver/Src/stm32h7xx_hal.c **** /** @addtogroup HAL_Group1
  86:Drivers/STM32H7xx_HAL_Driver/Src/stm32h7xx_hal.c ****  *  @brief    Initialization and de-initialization functions
  87:Drivers/STM32H7xx_HAL_Driver/Src/stm32h7xx_hal.c ****  *
  88:Drivers/STM32H7xx_HAL_Driver/Src/stm32h7xx_hal.c **** @verbatim
  89:Drivers/STM32H7xx_HAL_Driver/Src/stm32h7xx_hal.c ****  ===============================================================================
  90:Drivers/STM32H7xx_HAL_Driver/Src/stm32h7xx_hal.c ****               ##### Initialization and de-initialization functions #####
  91:Drivers/STM32H7xx_HAL_Driver/Src/stm32h7xx_hal.c ****  ===============================================================================
  92:Drivers/STM32H7xx_HAL_Driver/Src/stm32h7xx_hal.c ****     [..]  This section provides functions allowing to:
  93:Drivers/STM32H7xx_HAL_Driver/Src/stm32h7xx_hal.c ****       (+) Initializes the Flash interface the NVIC allocation and initial clock
  94:Drivers/STM32H7xx_HAL_Driver/Src/stm32h7xx_hal.c ****           configuration. It initializes the systick also when timeout is needed
  95:Drivers/STM32H7xx_HAL_Driver/Src/stm32h7xx_hal.c ****           and the backup domain when enabled.
  96:Drivers/STM32H7xx_HAL_Driver/Src/stm32h7xx_hal.c ****       (+) De-Initializes common part of the HAL.
  97:Drivers/STM32H7xx_HAL_Driver/Src/stm32h7xx_hal.c ****       (+) Configure The time base source to have 1ms time base with a dedicated
  98:Drivers/STM32H7xx_HAL_Driver/Src/stm32h7xx_hal.c ****           Tick interrupt priority.
  99:Drivers/STM32H7xx_HAL_Driver/Src/stm32h7xx_hal.c ****         (++) SysTick timer is used by default as source of time base, but user
 100:Drivers/STM32H7xx_HAL_Driver/Src/stm32h7xx_hal.c ****              can eventually implement his proper time base source (a general purpose
 101:Drivers/STM32H7xx_HAL_Driver/Src/stm32h7xx_hal.c ****              timer for example or other time source), keeping in mind that Time base
 102:Drivers/STM32H7xx_HAL_Driver/Src/stm32h7xx_hal.c ****              duration should be kept 1ms since PPP_TIMEOUT_VALUEs are defined and
 103:Drivers/STM32H7xx_HAL_Driver/Src/stm32h7xx_hal.c ****              handled in milliseconds basis.
 104:Drivers/STM32H7xx_HAL_Driver/Src/stm32h7xx_hal.c ****         (++) Time base configuration function (HAL_InitTick ()) is called automatically
 105:Drivers/STM32H7xx_HAL_Driver/Src/stm32h7xx_hal.c ****              at the beginning of the program after reset by HAL_Init() or at any time
 106:Drivers/STM32H7xx_HAL_Driver/Src/stm32h7xx_hal.c ****              when clock is configured, by HAL_RCC_ClockConfig().
 107:Drivers/STM32H7xx_HAL_Driver/Src/stm32h7xx_hal.c ****         (++) Source of time base is configured  to generate interrupts at regular
 108:Drivers/STM32H7xx_HAL_Driver/Src/stm32h7xx_hal.c ****              time intervals. Care must be taken if HAL_Delay() is called from a
 109:Drivers/STM32H7xx_HAL_Driver/Src/stm32h7xx_hal.c ****              peripheral ISR process, the Tick interrupt line must have higher priority
 110:Drivers/STM32H7xx_HAL_Driver/Src/stm32h7xx_hal.c ****             (numerically lower) than the peripheral interrupt. Otherwise the caller
 111:Drivers/STM32H7xx_HAL_Driver/Src/stm32h7xx_hal.c ****             ISR process will be blocked.
 112:Drivers/STM32H7xx_HAL_Driver/Src/stm32h7xx_hal.c ****        (++) functions affecting time base configurations are declared as __weak
 113:Drivers/STM32H7xx_HAL_Driver/Src/stm32h7xx_hal.c ****              to make  override possible  in case of other  implementations in user file.
 114:Drivers/STM32H7xx_HAL_Driver/Src/stm32h7xx_hal.c **** @endverbatim
 115:Drivers/STM32H7xx_HAL_Driver/Src/stm32h7xx_hal.c ****   * @{
 116:Drivers/STM32H7xx_HAL_Driver/Src/stm32h7xx_hal.c ****   */
 117:Drivers/STM32H7xx_HAL_Driver/Src/stm32h7xx_hal.c **** 
 118:Drivers/STM32H7xx_HAL_Driver/Src/stm32h7xx_hal.c **** /**
 119:Drivers/STM32H7xx_HAL_Driver/Src/stm32h7xx_hal.c ****   * @brief  This function is used to initialize the HAL Library; it must be the first
 120:Drivers/STM32H7xx_HAL_Driver/Src/stm32h7xx_hal.c ****   *         instruction to be executed in the main program (before to call any other
 121:Drivers/STM32H7xx_HAL_Driver/Src/stm32h7xx_hal.c ****   *         HAL function), it performs the following:
 122:Drivers/STM32H7xx_HAL_Driver/Src/stm32h7xx_hal.c ****   *           Configures the SysTick to generate an interrupt each 1 millisecond,
 123:Drivers/STM32H7xx_HAL_Driver/Src/stm32h7xx_hal.c ****   *           which is clocked by the HSI (at this stage, the clock is not yet
 124:Drivers/STM32H7xx_HAL_Driver/Src/stm32h7xx_hal.c ****   *           configured and thus the system is running from the internal HSI at 16 MHz).
 125:Drivers/STM32H7xx_HAL_Driver/Src/stm32h7xx_hal.c ****   *           Set NVIC Group Priority to 4.
 126:Drivers/STM32H7xx_HAL_Driver/Src/stm32h7xx_hal.c ****   *           Calls the HAL_MspInit() callback function defined in user file
 127:Drivers/STM32H7xx_HAL_Driver/Src/stm32h7xx_hal.c ****   *           "stm32h7xx_hal_msp.c" to do the global low level hardware initialization
 128:Drivers/STM32H7xx_HAL_Driver/Src/stm32h7xx_hal.c ****   *
 129:Drivers/STM32H7xx_HAL_Driver/Src/stm32h7xx_hal.c ****   * @note   SysTick is used as time base for the HAL_Delay() function, the application
 130:Drivers/STM32H7xx_HAL_Driver/Src/stm32h7xx_hal.c ****   *         need to ensure that the SysTick time base is always set to 1 millisecond
 131:Drivers/STM32H7xx_HAL_Driver/Src/stm32h7xx_hal.c ****   *         to have correct HAL operation.
ARM GAS  C:\Users\23671\AppData\Local\Temp\cc8GjZ48.s 			page 4


 132:Drivers/STM32H7xx_HAL_Driver/Src/stm32h7xx_hal.c ****   * @retval HAL status
 133:Drivers/STM32H7xx_HAL_Driver/Src/stm32h7xx_hal.c ****   */
 134:Drivers/STM32H7xx_HAL_Driver/Src/stm32h7xx_hal.c **** HAL_StatusTypeDef HAL_Init(void)
 135:Drivers/STM32H7xx_HAL_Driver/Src/stm32h7xx_hal.c **** {
  48              		.loc 1 135 1
  49              		.cfi_startproc
  50              		@ args = 0, pretend = 0, frame = 8
  51              		@ frame_needed = 1, uses_anonymous_args = 0
  52 0000 80B5     		push	{r7, lr}
  53              	.LCFI0:
  54              		.cfi_def_cfa_offset 8
  55              		.cfi_offset 7, -8
  56              		.cfi_offset 14, -4
  57 0002 82B0     		sub	sp, sp, #8
  58              	.LCFI1:
  59              		.cfi_def_cfa_offset 16
  60 0004 00AF     		add	r7, sp, #0
  61              	.LCFI2:
  62              		.cfi_def_cfa_register 7
 136:Drivers/STM32H7xx_HAL_Driver/Src/stm32h7xx_hal.c **** 
 137:Drivers/STM32H7xx_HAL_Driver/Src/stm32h7xx_hal.c **** uint32_t common_system_clock;
 138:Drivers/STM32H7xx_HAL_Driver/Src/stm32h7xx_hal.c **** 
 139:Drivers/STM32H7xx_HAL_Driver/Src/stm32h7xx_hal.c **** #if defined(DUAL_CORE) && defined(CORE_CM4)
 140:Drivers/STM32H7xx_HAL_Driver/Src/stm32h7xx_hal.c ****    /* Configure Cortex-M4 Instruction cache through ART accelerator */
 141:Drivers/STM32H7xx_HAL_Driver/Src/stm32h7xx_hal.c ****    __HAL_RCC_ART_CLK_ENABLE();                   /* Enable the Cortex-M4 ART Clock */
 142:Drivers/STM32H7xx_HAL_Driver/Src/stm32h7xx_hal.c ****    __HAL_ART_CONFIG_BASE_ADDRESS(0x08100000UL);  /* Configure the Cortex-M4 ART Base address to the
 143:Drivers/STM32H7xx_HAL_Driver/Src/stm32h7xx_hal.c ****    __HAL_ART_ENABLE();                           /* Enable the Cortex-M4 ART */
 144:Drivers/STM32H7xx_HAL_Driver/Src/stm32h7xx_hal.c **** #endif /* DUAL_CORE &&  CORE_CM4 */
 145:Drivers/STM32H7xx_HAL_Driver/Src/stm32h7xx_hal.c **** 
 146:Drivers/STM32H7xx_HAL_Driver/Src/stm32h7xx_hal.c ****   /* Set Interrupt Group Priority */
 147:Drivers/STM32H7xx_HAL_Driver/Src/stm32h7xx_hal.c ****   HAL_NVIC_SetPriorityGrouping(NVIC_PRIORITYGROUP_4);
  63              		.loc 1 147 3
  64 0006 0320     		movs	r0, #3
  65 0008 FFF7FEFF 		bl	HAL_NVIC_SetPriorityGrouping
 148:Drivers/STM32H7xx_HAL_Driver/Src/stm32h7xx_hal.c **** 
 149:Drivers/STM32H7xx_HAL_Driver/Src/stm32h7xx_hal.c ****   /* Update the SystemCoreClock global variable */
 150:Drivers/STM32H7xx_HAL_Driver/Src/stm32h7xx_hal.c **** #if defined(RCC_D1CFGR_D1CPRE)
 151:Drivers/STM32H7xx_HAL_Driver/Src/stm32h7xx_hal.c ****   common_system_clock = HAL_RCC_GetSysClockFreq() >> ((D1CorePrescTable[(RCC->D1CFGR & RCC_D1CFGR_D
  66              		.loc 1 151 25
  67 000c FFF7FEFF 		bl	HAL_RCC_GetSysClockFreq
  68 0010 0246     		mov	r2, r0
  69              		.loc 1 151 77 discriminator 1
  70 0012 154B     		ldr	r3, .L4
  71 0014 9B69     		ldr	r3, [r3, #24]
  72              		.loc 1 151 106 discriminator 1
  73 0016 1B0A     		lsrs	r3, r3, #8
  74 0018 03F00F03 		and	r3, r3, #15
  75              		.loc 1 151 72 discriminator 1
  76 001c 1349     		ldr	r1, .L4+4
  77 001e CB5C     		ldrb	r3, [r1, r3]	@ zero_extendqisi2
  78              		.loc 1 151 133 discriminator 1
  79 0020 03F01F03 		and	r3, r3, #31
  80              		.loc 1 151 23 discriminator 1
  81 0024 22FA03F3 		lsr	r3, r2, r3
  82 0028 7B60     		str	r3, [r7, #4]
 152:Drivers/STM32H7xx_HAL_Driver/Src/stm32h7xx_hal.c **** #else
 153:Drivers/STM32H7xx_HAL_Driver/Src/stm32h7xx_hal.c ****   common_system_clock = HAL_RCC_GetSysClockFreq() >> ((D1CorePrescTable[(RCC->CDCFGR1 & RCC_CDCFGR1
ARM GAS  C:\Users\23671\AppData\Local\Temp\cc8GjZ48.s 			page 5


 154:Drivers/STM32H7xx_HAL_Driver/Src/stm32h7xx_hal.c **** #endif
 155:Drivers/STM32H7xx_HAL_Driver/Src/stm32h7xx_hal.c **** 
 156:Drivers/STM32H7xx_HAL_Driver/Src/stm32h7xx_hal.c ****   /* Update the SystemD2Clock global variable */
 157:Drivers/STM32H7xx_HAL_Driver/Src/stm32h7xx_hal.c **** #if defined(RCC_D1CFGR_HPRE)
 158:Drivers/STM32H7xx_HAL_Driver/Src/stm32h7xx_hal.c ****   SystemD2Clock = (common_system_clock >> ((D1CorePrescTable[(RCC->D1CFGR & RCC_D1CFGR_HPRE)>> RCC_
  83              		.loc 1 158 66
  84 002a 0F4B     		ldr	r3, .L4
  85 002c 9B69     		ldr	r3, [r3, #24]
  86              		.loc 1 158 93
  87 002e 03F00F03 		and	r3, r3, #15
  88              		.loc 1 158 61
  89 0032 0E4A     		ldr	r2, .L4+4
  90 0034 D35C     		ldrb	r3, [r2, r3]	@ zero_extendqisi2
  91              		.loc 1 158 118
  92 0036 03F01F03 		and	r3, r3, #31
  93              		.loc 1 158 40
  94 003a 7A68     		ldr	r2, [r7, #4]
  95 003c 22FA03F3 		lsr	r3, r2, r3
  96              		.loc 1 158 17
  97 0040 0B4A     		ldr	r2, .L4+8
  98 0042 1360     		str	r3, [r2]
 159:Drivers/STM32H7xx_HAL_Driver/Src/stm32h7xx_hal.c **** #else
 160:Drivers/STM32H7xx_HAL_Driver/Src/stm32h7xx_hal.c ****   SystemD2Clock = (common_system_clock >> ((D1CorePrescTable[(RCC->CDCFGR1 & RCC_CDCFGR1_HPRE)>> RC
 161:Drivers/STM32H7xx_HAL_Driver/Src/stm32h7xx_hal.c **** #endif
 162:Drivers/STM32H7xx_HAL_Driver/Src/stm32h7xx_hal.c **** 
 163:Drivers/STM32H7xx_HAL_Driver/Src/stm32h7xx_hal.c **** #if defined(DUAL_CORE) && defined(CORE_CM4)
 164:Drivers/STM32H7xx_HAL_Driver/Src/stm32h7xx_hal.c ****   SystemCoreClock = SystemD2Clock;
 165:Drivers/STM32H7xx_HAL_Driver/Src/stm32h7xx_hal.c **** #else
 166:Drivers/STM32H7xx_HAL_Driver/Src/stm32h7xx_hal.c ****   SystemCoreClock = common_system_clock;
  99              		.loc 1 166 19
 100 0044 0B4A     		ldr	r2, .L4+12
 101 0046 7B68     		ldr	r3, [r7, #4]
 102 0048 1360     		str	r3, [r2]
 167:Drivers/STM32H7xx_HAL_Driver/Src/stm32h7xx_hal.c **** #endif /* DUAL_CORE && CORE_CM4 */
 168:Drivers/STM32H7xx_HAL_Driver/Src/stm32h7xx_hal.c **** 
 169:Drivers/STM32H7xx_HAL_Driver/Src/stm32h7xx_hal.c ****   /* Use systick as time base source and configure 1ms tick (default clock after Reset is HSI) */
 170:Drivers/STM32H7xx_HAL_Driver/Src/stm32h7xx_hal.c ****   if(HAL_InitTick(TICK_INT_PRIORITY) != HAL_OK)
 103              		.loc 1 170 6
 104 004a 0F20     		movs	r0, #15
 105 004c FFF7FEFF 		bl	HAL_InitTick
 106 0050 0346     		mov	r3, r0
 107              		.loc 1 170 5 discriminator 1
 108 0052 002B     		cmp	r3, #0
 109 0054 01D0     		beq	.L2
 171:Drivers/STM32H7xx_HAL_Driver/Src/stm32h7xx_hal.c ****   {
 172:Drivers/STM32H7xx_HAL_Driver/Src/stm32h7xx_hal.c ****     return HAL_ERROR;
 110              		.loc 1 172 12
 111 0056 0123     		movs	r3, #1
 112 0058 02E0     		b	.L3
 113              	.L2:
 173:Drivers/STM32H7xx_HAL_Driver/Src/stm32h7xx_hal.c ****   }
 174:Drivers/STM32H7xx_HAL_Driver/Src/stm32h7xx_hal.c **** 
 175:Drivers/STM32H7xx_HAL_Driver/Src/stm32h7xx_hal.c ****   /* Init the low level hardware */
 176:Drivers/STM32H7xx_HAL_Driver/Src/stm32h7xx_hal.c ****   HAL_MspInit();
 114              		.loc 1 176 3
 115 005a FFF7FEFF 		bl	HAL_MspInit
 177:Drivers/STM32H7xx_HAL_Driver/Src/stm32h7xx_hal.c **** 
ARM GAS  C:\Users\23671\AppData\Local\Temp\cc8GjZ48.s 			page 6


 178:Drivers/STM32H7xx_HAL_Driver/Src/stm32h7xx_hal.c ****   /* Return function status */
 179:Drivers/STM32H7xx_HAL_Driver/Src/stm32h7xx_hal.c ****   return HAL_OK;
 116              		.loc 1 179 10
 117 005e 0023     		movs	r3, #0
 118              	.L3:
 180:Drivers/STM32H7xx_HAL_Driver/Src/stm32h7xx_hal.c **** }
 119              		.loc 1 180 1
 120 0060 1846     		mov	r0, r3
 121 0062 0837     		adds	r7, r7, #8
 122              	.LCFI3:
 123              		.cfi_def_cfa_offset 8
 124 0064 BD46     		mov	sp, r7
 125              	.LCFI4:
 126              		.cfi_def_cfa_register 13
 127              		@ sp needed
 128 0066 80BD     		pop	{r7, pc}
 129              	.L5:
 130              		.align	2
 131              	.L4:
 132 0068 00440258 		.word	1476543488
 133 006c 00000000 		.word	D1CorePrescTable
 134 0070 00000000 		.word	SystemD2Clock
 135 0074 00000000 		.word	SystemCoreClock
 136              		.cfi_endproc
 137              	.LFE144:
 139              		.section	.text.HAL_DeInit,"ax",%progbits
 140              		.align	1
 141              		.global	HAL_DeInit
 142              		.syntax unified
 143              		.thumb
 144              		.thumb_func
 146              	HAL_DeInit:
 147              	.LFB145:
 181:Drivers/STM32H7xx_HAL_Driver/Src/stm32h7xx_hal.c **** 
 182:Drivers/STM32H7xx_HAL_Driver/Src/stm32h7xx_hal.c **** /**
 183:Drivers/STM32H7xx_HAL_Driver/Src/stm32h7xx_hal.c ****   * @brief  This function de-Initializes common part of the HAL and stops the systick.
 184:Drivers/STM32H7xx_HAL_Driver/Src/stm32h7xx_hal.c ****   *         This function is optional.
 185:Drivers/STM32H7xx_HAL_Driver/Src/stm32h7xx_hal.c ****   * @retval HAL status
 186:Drivers/STM32H7xx_HAL_Driver/Src/stm32h7xx_hal.c ****   */
 187:Drivers/STM32H7xx_HAL_Driver/Src/stm32h7xx_hal.c **** HAL_StatusTypeDef HAL_DeInit(void)
 188:Drivers/STM32H7xx_HAL_Driver/Src/stm32h7xx_hal.c **** {
 148              		.loc 1 188 1
 149              		.cfi_startproc
 150              		@ args = 0, pretend = 0, frame = 0
 151              		@ frame_needed = 1, uses_anonymous_args = 0
 152 0000 80B5     		push	{r7, lr}
 153              	.LCFI5:
 154              		.cfi_def_cfa_offset 8
 155              		.cfi_offset 7, -8
 156              		.cfi_offset 14, -4
 157 0002 00AF     		add	r7, sp, #0
 158              	.LCFI6:
 159              		.cfi_def_cfa_register 7
 189:Drivers/STM32H7xx_HAL_Driver/Src/stm32h7xx_hal.c ****   /* Reset of all peripherals */
 190:Drivers/STM32H7xx_HAL_Driver/Src/stm32h7xx_hal.c ****   __HAL_RCC_AHB3_FORCE_RESET();
 160              		.loc 1 190 3
 161 0004 254B     		ldr	r3, .L8
ARM GAS  C:\Users\23671\AppData\Local\Temp\cc8GjZ48.s 			page 7


 162 0006 264A     		ldr	r2, .L8+4
 163 0008 DA67     		str	r2, [r3, #124]
 191:Drivers/STM32H7xx_HAL_Driver/Src/stm32h7xx_hal.c ****   __HAL_RCC_AHB3_RELEASE_RESET();
 164              		.loc 1 191 3
 165 000a 244B     		ldr	r3, .L8
 166 000c 0022     		movs	r2, #0
 167 000e DA67     		str	r2, [r3, #124]
 192:Drivers/STM32H7xx_HAL_Driver/Src/stm32h7xx_hal.c **** 
 193:Drivers/STM32H7xx_HAL_Driver/Src/stm32h7xx_hal.c ****   __HAL_RCC_AHB1_FORCE_RESET();
 168              		.loc 1 193 3
 169 0010 224B     		ldr	r3, .L8
 170 0012 244A     		ldr	r2, .L8+8
 171 0014 C3F88020 		str	r2, [r3, #128]
 194:Drivers/STM32H7xx_HAL_Driver/Src/stm32h7xx_hal.c ****   __HAL_RCC_AHB1_RELEASE_RESET();
 172              		.loc 1 194 3
 173 0018 204B     		ldr	r3, .L8
 174 001a 0022     		movs	r2, #0
 175 001c C3F88020 		str	r2, [r3, #128]
 195:Drivers/STM32H7xx_HAL_Driver/Src/stm32h7xx_hal.c **** 
 196:Drivers/STM32H7xx_HAL_Driver/Src/stm32h7xx_hal.c ****   __HAL_RCC_AHB2_FORCE_RESET();
 176              		.loc 1 196 3
 177 0020 1E4B     		ldr	r3, .L8
 178 0022 214A     		ldr	r2, .L8+12
 179 0024 C3F88420 		str	r2, [r3, #132]
 197:Drivers/STM32H7xx_HAL_Driver/Src/stm32h7xx_hal.c ****   __HAL_RCC_AHB2_RELEASE_RESET();
 180              		.loc 1 197 3
 181 0028 1C4B     		ldr	r3, .L8
 182 002a 0022     		movs	r2, #0
 183 002c C3F88420 		str	r2, [r3, #132]
 198:Drivers/STM32H7xx_HAL_Driver/Src/stm32h7xx_hal.c **** 
 199:Drivers/STM32H7xx_HAL_Driver/Src/stm32h7xx_hal.c ****   __HAL_RCC_AHB4_FORCE_RESET();
 184              		.loc 1 199 3
 185 0030 1A4B     		ldr	r3, .L8
 186 0032 1E4A     		ldr	r2, .L8+16
 187 0034 C3F88820 		str	r2, [r3, #136]
 200:Drivers/STM32H7xx_HAL_Driver/Src/stm32h7xx_hal.c ****  __HAL_RCC_AHB4_RELEASE_RESET();
 188              		.loc 1 200 2
 189 0038 184B     		ldr	r3, .L8
 190 003a 0022     		movs	r2, #0
 191 003c C3F88820 		str	r2, [r3, #136]
 201:Drivers/STM32H7xx_HAL_Driver/Src/stm32h7xx_hal.c **** 
 202:Drivers/STM32H7xx_HAL_Driver/Src/stm32h7xx_hal.c ****   __HAL_RCC_APB3_FORCE_RESET();
 192              		.loc 1 202 3
 193 0040 164B     		ldr	r3, .L8
 194 0042 0822     		movs	r2, #8
 195 0044 C3F88C20 		str	r2, [r3, #140]
 203:Drivers/STM32H7xx_HAL_Driver/Src/stm32h7xx_hal.c ****   __HAL_RCC_APB3_RELEASE_RESET();
 196              		.loc 1 203 3
 197 0048 144B     		ldr	r3, .L8
 198 004a 0022     		movs	r2, #0
 199 004c C3F88C20 		str	r2, [r3, #140]
 204:Drivers/STM32H7xx_HAL_Driver/Src/stm32h7xx_hal.c **** 
 205:Drivers/STM32H7xx_HAL_Driver/Src/stm32h7xx_hal.c ****   __HAL_RCC_APB1L_FORCE_RESET();
 200              		.loc 1 205 3
 201 0050 124B     		ldr	r3, .L8
 202 0052 174A     		ldr	r2, .L8+20
 203 0054 C3F89020 		str	r2, [r3, #144]
ARM GAS  C:\Users\23671\AppData\Local\Temp\cc8GjZ48.s 			page 8


 206:Drivers/STM32H7xx_HAL_Driver/Src/stm32h7xx_hal.c ****   __HAL_RCC_APB1L_RELEASE_RESET();
 204              		.loc 1 206 3
 205 0058 104B     		ldr	r3, .L8
 206 005a 0022     		movs	r2, #0
 207 005c C3F89020 		str	r2, [r3, #144]
 207:Drivers/STM32H7xx_HAL_Driver/Src/stm32h7xx_hal.c **** 
 208:Drivers/STM32H7xx_HAL_Driver/Src/stm32h7xx_hal.c ****   __HAL_RCC_APB1H_FORCE_RESET();
 208              		.loc 1 208 3
 209 0060 0E4B     		ldr	r3, .L8
 210 0062 144A     		ldr	r2, .L8+24
 211 0064 C3F89420 		str	r2, [r3, #148]
 209:Drivers/STM32H7xx_HAL_Driver/Src/stm32h7xx_hal.c ****   __HAL_RCC_APB1H_RELEASE_RESET();
 212              		.loc 1 209 3
 213 0068 0C4B     		ldr	r3, .L8
 214 006a 0022     		movs	r2, #0
 215 006c C3F89420 		str	r2, [r3, #148]
 210:Drivers/STM32H7xx_HAL_Driver/Src/stm32h7xx_hal.c **** 
 211:Drivers/STM32H7xx_HAL_Driver/Src/stm32h7xx_hal.c ****    __HAL_RCC_APB2_FORCE_RESET();
 216              		.loc 1 211 4
 217 0070 0A4B     		ldr	r3, .L8
 218 0072 114A     		ldr	r2, .L8+28
 219 0074 C3F89820 		str	r2, [r3, #152]
 212:Drivers/STM32H7xx_HAL_Driver/Src/stm32h7xx_hal.c ****    __HAL_RCC_APB2_RELEASE_RESET();
 220              		.loc 1 212 4
 221 0078 084B     		ldr	r3, .L8
 222 007a 0022     		movs	r2, #0
 223 007c C3F89820 		str	r2, [r3, #152]
 213:Drivers/STM32H7xx_HAL_Driver/Src/stm32h7xx_hal.c **** 
 214:Drivers/STM32H7xx_HAL_Driver/Src/stm32h7xx_hal.c ****   __HAL_RCC_APB4_FORCE_RESET();
 224              		.loc 1 214 3
 225 0080 064B     		ldr	r3, .L8
 226 0082 0E4A     		ldr	r2, .L8+32
 227 0084 C3F89C20 		str	r2, [r3, #156]
 215:Drivers/STM32H7xx_HAL_Driver/Src/stm32h7xx_hal.c ****   __HAL_RCC_APB4_RELEASE_RESET();
 228              		.loc 1 215 3
 229 0088 044B     		ldr	r3, .L8
 230 008a 0022     		movs	r2, #0
 231 008c C3F89C20 		str	r2, [r3, #156]
 216:Drivers/STM32H7xx_HAL_Driver/Src/stm32h7xx_hal.c **** 
 217:Drivers/STM32H7xx_HAL_Driver/Src/stm32h7xx_hal.c ****   /* De-Init the low level hardware */
 218:Drivers/STM32H7xx_HAL_Driver/Src/stm32h7xx_hal.c ****   HAL_MspDeInit();
 232              		.loc 1 218 3
 233 0090 FFF7FEFF 		bl	HAL_MspDeInit
 219:Drivers/STM32H7xx_HAL_Driver/Src/stm32h7xx_hal.c **** 
 220:Drivers/STM32H7xx_HAL_Driver/Src/stm32h7xx_hal.c ****   /* Return function status */
 221:Drivers/STM32H7xx_HAL_Driver/Src/stm32h7xx_hal.c ****   return HAL_OK;
 234              		.loc 1 221 10
 235 0094 0023     		movs	r3, #0
 222:Drivers/STM32H7xx_HAL_Driver/Src/stm32h7xx_hal.c **** }
 236              		.loc 1 222 1
 237 0096 1846     		mov	r0, r3
 238 0098 80BD     		pop	{r7, pc}
 239              	.L9:
 240 009a 00BF     		.align	2
 241              	.L8:
 242 009c 00440258 		.word	1476543488
 243 00a0 1150E900 		.word	15290385
ARM GAS  C:\Users\23671\AppData\Local\Temp\cc8GjZ48.s 			page 9


 244 00a4 23800002 		.word	33587235
 245 00a8 71020300 		.word	197233
 246 00ac FF062803 		.word	52954879
 247 00b0 FFC3FFEA 		.word	-352336897
 248 00b4 36010003 		.word	50331958
 249 00b8 F3305740 		.word	1079455987
 250 00bc AADE2004 		.word	69263018
 251              		.cfi_endproc
 252              	.LFE145:
 254              		.section	.text.HAL_MspInit,"ax",%progbits
 255              		.align	1
 256              		.weak	HAL_MspInit
 257              		.syntax unified
 258              		.thumb
 259              		.thumb_func
 261              	HAL_MspInit:
 262              	.LFB146:
 223:Drivers/STM32H7xx_HAL_Driver/Src/stm32h7xx_hal.c **** 
 224:Drivers/STM32H7xx_HAL_Driver/Src/stm32h7xx_hal.c **** /**
 225:Drivers/STM32H7xx_HAL_Driver/Src/stm32h7xx_hal.c ****   * @brief  Initializes the MSP.
 226:Drivers/STM32H7xx_HAL_Driver/Src/stm32h7xx_hal.c ****   * @retval None
 227:Drivers/STM32H7xx_HAL_Driver/Src/stm32h7xx_hal.c ****   */
 228:Drivers/STM32H7xx_HAL_Driver/Src/stm32h7xx_hal.c **** __weak void HAL_MspInit(void)
 229:Drivers/STM32H7xx_HAL_Driver/Src/stm32h7xx_hal.c **** {
 263              		.loc 1 229 1
 264              		.cfi_startproc
 265              		@ args = 0, pretend = 0, frame = 0
 266              		@ frame_needed = 1, uses_anonymous_args = 0
 267              		@ link register save eliminated.
 268 0000 80B4     		push	{r7}
 269              	.LCFI7:
 270              		.cfi_def_cfa_offset 4
 271              		.cfi_offset 7, -4
 272 0002 00AF     		add	r7, sp, #0
 273              	.LCFI8:
 274              		.cfi_def_cfa_register 7
 230:Drivers/STM32H7xx_HAL_Driver/Src/stm32h7xx_hal.c ****   /* NOTE : This function Should not be modified, when the callback is needed,
 231:Drivers/STM32H7xx_HAL_Driver/Src/stm32h7xx_hal.c ****             the HAL_MspInit could be implemented in the user file
 232:Drivers/STM32H7xx_HAL_Driver/Src/stm32h7xx_hal.c ****    */
 233:Drivers/STM32H7xx_HAL_Driver/Src/stm32h7xx_hal.c **** }
 275              		.loc 1 233 1
 276 0004 00BF     		nop
 277 0006 BD46     		mov	sp, r7
 278              	.LCFI9:
 279              		.cfi_def_cfa_register 13
 280              		@ sp needed
 281 0008 5DF8047B 		ldr	r7, [sp], #4
 282              	.LCFI10:
 283              		.cfi_restore 7
 284              		.cfi_def_cfa_offset 0
 285 000c 7047     		bx	lr
 286              		.cfi_endproc
 287              	.LFE146:
 289              		.section	.text.HAL_MspDeInit,"ax",%progbits
 290              		.align	1
 291              		.weak	HAL_MspDeInit
 292              		.syntax unified
ARM GAS  C:\Users\23671\AppData\Local\Temp\cc8GjZ48.s 			page 10


 293              		.thumb
 294              		.thumb_func
 296              	HAL_MspDeInit:
 297              	.LFB147:
 234:Drivers/STM32H7xx_HAL_Driver/Src/stm32h7xx_hal.c **** 
 235:Drivers/STM32H7xx_HAL_Driver/Src/stm32h7xx_hal.c **** /**
 236:Drivers/STM32H7xx_HAL_Driver/Src/stm32h7xx_hal.c ****   * @brief  DeInitializes the MSP.
 237:Drivers/STM32H7xx_HAL_Driver/Src/stm32h7xx_hal.c ****   * @retval None
 238:Drivers/STM32H7xx_HAL_Driver/Src/stm32h7xx_hal.c ****   */
 239:Drivers/STM32H7xx_HAL_Driver/Src/stm32h7xx_hal.c **** __weak void HAL_MspDeInit(void)
 240:Drivers/STM32H7xx_HAL_Driver/Src/stm32h7xx_hal.c **** {
 298              		.loc 1 240 1
 299              		.cfi_startproc
 300              		@ args = 0, pretend = 0, frame = 0
 301              		@ frame_needed = 1, uses_anonymous_args = 0
 302              		@ link register save eliminated.
 303 0000 80B4     		push	{r7}
 304              	.LCFI11:
 305              		.cfi_def_cfa_offset 4
 306              		.cfi_offset 7, -4
 307 0002 00AF     		add	r7, sp, #0
 308              	.LCFI12:
 309              		.cfi_def_cfa_register 7
 241:Drivers/STM32H7xx_HAL_Driver/Src/stm32h7xx_hal.c ****   /* NOTE : This function Should not be modified, when the callback is needed,
 242:Drivers/STM32H7xx_HAL_Driver/Src/stm32h7xx_hal.c ****             the HAL_MspDeInit could be implemented in the user file
 243:Drivers/STM32H7xx_HAL_Driver/Src/stm32h7xx_hal.c ****    */
 244:Drivers/STM32H7xx_HAL_Driver/Src/stm32h7xx_hal.c **** }
 310              		.loc 1 244 1
 311 0004 00BF     		nop
 312 0006 BD46     		mov	sp, r7
 313              	.LCFI13:
 314              		.cfi_def_cfa_register 13
 315              		@ sp needed
 316 0008 5DF8047B 		ldr	r7, [sp], #4
 317              	.LCFI14:
 318              		.cfi_restore 7
 319              		.cfi_def_cfa_offset 0
 320 000c 7047     		bx	lr
 321              		.cfi_endproc
 322              	.LFE147:
 324              		.section	.text.HAL_InitTick,"ax",%progbits
 325              		.align	1
 326              		.weak	HAL_InitTick
 327              		.syntax unified
 328              		.thumb
 329              		.thumb_func
 331              	HAL_InitTick:
 332              	.LFB148:
 245:Drivers/STM32H7xx_HAL_Driver/Src/stm32h7xx_hal.c **** 
 246:Drivers/STM32H7xx_HAL_Driver/Src/stm32h7xx_hal.c **** /**
 247:Drivers/STM32H7xx_HAL_Driver/Src/stm32h7xx_hal.c ****   * @brief This function configures the source of the time base.
 248:Drivers/STM32H7xx_HAL_Driver/Src/stm32h7xx_hal.c ****   *        The time source is configured  to have 1ms time base with a dedicated
 249:Drivers/STM32H7xx_HAL_Driver/Src/stm32h7xx_hal.c ****   *        Tick interrupt priority.
 250:Drivers/STM32H7xx_HAL_Driver/Src/stm32h7xx_hal.c ****   * @note This function is called  automatically at the beginning of program after
 251:Drivers/STM32H7xx_HAL_Driver/Src/stm32h7xx_hal.c ****   *       reset by HAL_Init() or at any time when clock is reconfigured  by HAL_RCC_ClockConfig().
 252:Drivers/STM32H7xx_HAL_Driver/Src/stm32h7xx_hal.c ****   * @note In the default implementation, SysTick timer is the source of time base.
 253:Drivers/STM32H7xx_HAL_Driver/Src/stm32h7xx_hal.c ****   *       It is used to generate interrupts at regular time intervals.
ARM GAS  C:\Users\23671\AppData\Local\Temp\cc8GjZ48.s 			page 11


 254:Drivers/STM32H7xx_HAL_Driver/Src/stm32h7xx_hal.c ****   *       Care must be taken if HAL_Delay() is called from a peripheral ISR process,
 255:Drivers/STM32H7xx_HAL_Driver/Src/stm32h7xx_hal.c ****   *       the SysTick interrupt must have higher priority (numerically lower)
 256:Drivers/STM32H7xx_HAL_Driver/Src/stm32h7xx_hal.c ****   *       than the peripheral interrupt. Otherwise the caller ISR process will be blocked.
 257:Drivers/STM32H7xx_HAL_Driver/Src/stm32h7xx_hal.c ****   *       The function is declared as __weak  to be overwritten  in case of other
 258:Drivers/STM32H7xx_HAL_Driver/Src/stm32h7xx_hal.c ****   *       implementation  in user file.
 259:Drivers/STM32H7xx_HAL_Driver/Src/stm32h7xx_hal.c ****   * @param TickPriority: Tick interrupt priority.
 260:Drivers/STM32H7xx_HAL_Driver/Src/stm32h7xx_hal.c ****   * @retval HAL status
 261:Drivers/STM32H7xx_HAL_Driver/Src/stm32h7xx_hal.c ****   */
 262:Drivers/STM32H7xx_HAL_Driver/Src/stm32h7xx_hal.c **** __weak HAL_StatusTypeDef HAL_InitTick(uint32_t TickPriority)
 263:Drivers/STM32H7xx_HAL_Driver/Src/stm32h7xx_hal.c **** {
 333              		.loc 1 263 1
 334              		.cfi_startproc
 335              		@ args = 0, pretend = 0, frame = 8
 336              		@ frame_needed = 1, uses_anonymous_args = 0
 337 0000 80B5     		push	{r7, lr}
 338              	.LCFI15:
 339              		.cfi_def_cfa_offset 8
 340              		.cfi_offset 7, -8
 341              		.cfi_offset 14, -4
 342 0002 82B0     		sub	sp, sp, #8
 343              	.LCFI16:
 344              		.cfi_def_cfa_offset 16
 345 0004 00AF     		add	r7, sp, #0
 346              	.LCFI17:
 347              		.cfi_def_cfa_register 7
 348 0006 7860     		str	r0, [r7, #4]
 264:Drivers/STM32H7xx_HAL_Driver/Src/stm32h7xx_hal.c ****   /* Check uwTickFreq for MisraC 2012 (even if uwTickFreq is a enum type that don't take the value 
 265:Drivers/STM32H7xx_HAL_Driver/Src/stm32h7xx_hal.c ****   if((uint32_t)uwTickFreq == 0UL)
 349              		.loc 1 265 27
 350 0008 154B     		ldr	r3, .L18
 351 000a 1B78     		ldrb	r3, [r3]	@ zero_extendqisi2
 352              		.loc 1 265 5
 353 000c 002B     		cmp	r3, #0
 354 000e 01D1     		bne	.L13
 266:Drivers/STM32H7xx_HAL_Driver/Src/stm32h7xx_hal.c ****   {
 267:Drivers/STM32H7xx_HAL_Driver/Src/stm32h7xx_hal.c ****     return HAL_ERROR;
 355              		.loc 1 267 12
 356 0010 0123     		movs	r3, #1
 357 0012 21E0     		b	.L14
 358              	.L13:
 268:Drivers/STM32H7xx_HAL_Driver/Src/stm32h7xx_hal.c ****   }
 269:Drivers/STM32H7xx_HAL_Driver/Src/stm32h7xx_hal.c **** 
 270:Drivers/STM32H7xx_HAL_Driver/Src/stm32h7xx_hal.c ****     /* Configure the SysTick to have interrupt in 1ms time basis*/
 271:Drivers/STM32H7xx_HAL_Driver/Src/stm32h7xx_hal.c ****     if (HAL_SYSTICK_Config(SystemCoreClock / (1000UL / (uint32_t)uwTickFreq)) > 0U)
 359              		.loc 1 271 9
 360 0014 134B     		ldr	r3, .L18+4
 361 0016 1A68     		ldr	r2, [r3]
 362              		.loc 1 271 56
 363 0018 114B     		ldr	r3, .L18
 364 001a 1B78     		ldrb	r3, [r3]	@ zero_extendqisi2
 365 001c 1946     		mov	r1, r3
 366              		.loc 1 271 54
 367 001e 4FF47A73 		mov	r3, #1000
 368 0022 B3FBF1F3 		udiv	r3, r3, r1
 369              		.loc 1 271 9
 370 0026 B2FBF3F3 		udiv	r3, r2, r3
 371 002a 1846     		mov	r0, r3
ARM GAS  C:\Users\23671\AppData\Local\Temp\cc8GjZ48.s 			page 12


 372 002c FFF7FEFF 		bl	HAL_SYSTICK_Config
 373 0030 0346     		mov	r3, r0
 374              		.loc 1 271 8 discriminator 1
 375 0032 002B     		cmp	r3, #0
 376 0034 01D0     		beq	.L15
 272:Drivers/STM32H7xx_HAL_Driver/Src/stm32h7xx_hal.c ****     {
 273:Drivers/STM32H7xx_HAL_Driver/Src/stm32h7xx_hal.c ****       return HAL_ERROR;
 377              		.loc 1 273 14
 378 0036 0123     		movs	r3, #1
 379 0038 0EE0     		b	.L14
 380              	.L15:
 274:Drivers/STM32H7xx_HAL_Driver/Src/stm32h7xx_hal.c ****     }
 275:Drivers/STM32H7xx_HAL_Driver/Src/stm32h7xx_hal.c **** 
 276:Drivers/STM32H7xx_HAL_Driver/Src/stm32h7xx_hal.c ****   /* Configure the SysTick IRQ priority */
 277:Drivers/STM32H7xx_HAL_Driver/Src/stm32h7xx_hal.c ****   if (TickPriority < (1UL << __NVIC_PRIO_BITS))
 381              		.loc 1 277 6
 382 003a 7B68     		ldr	r3, [r7, #4]
 383 003c 0F2B     		cmp	r3, #15
 384 003e 0AD8     		bhi	.L16
 278:Drivers/STM32H7xx_HAL_Driver/Src/stm32h7xx_hal.c ****   {
 279:Drivers/STM32H7xx_HAL_Driver/Src/stm32h7xx_hal.c ****     HAL_NVIC_SetPriority(SysTick_IRQn, TickPriority, 0U);
 385              		.loc 1 279 5
 386 0040 0022     		movs	r2, #0
 387 0042 7968     		ldr	r1, [r7, #4]
 388 0044 4FF0FF30 		mov	r0, #-1
 389 0048 FFF7FEFF 		bl	HAL_NVIC_SetPriority
 280:Drivers/STM32H7xx_HAL_Driver/Src/stm32h7xx_hal.c ****     uwTickPrio = TickPriority;
 390              		.loc 1 280 16
 391 004c 064A     		ldr	r2, .L18+8
 392 004e 7B68     		ldr	r3, [r7, #4]
 393 0050 1360     		str	r3, [r2]
 281:Drivers/STM32H7xx_HAL_Driver/Src/stm32h7xx_hal.c ****   }
 282:Drivers/STM32H7xx_HAL_Driver/Src/stm32h7xx_hal.c ****   else
 283:Drivers/STM32H7xx_HAL_Driver/Src/stm32h7xx_hal.c ****   {
 284:Drivers/STM32H7xx_HAL_Driver/Src/stm32h7xx_hal.c ****     return HAL_ERROR;
 285:Drivers/STM32H7xx_HAL_Driver/Src/stm32h7xx_hal.c ****   }
 286:Drivers/STM32H7xx_HAL_Driver/Src/stm32h7xx_hal.c **** 
 287:Drivers/STM32H7xx_HAL_Driver/Src/stm32h7xx_hal.c ****   /* Return function status */
 288:Drivers/STM32H7xx_HAL_Driver/Src/stm32h7xx_hal.c ****   return HAL_OK;
 394              		.loc 1 288 10
 395 0052 0023     		movs	r3, #0
 396 0054 00E0     		b	.L14
 397              	.L16:
 284:Drivers/STM32H7xx_HAL_Driver/Src/stm32h7xx_hal.c ****   }
 398              		.loc 1 284 12
 399 0056 0123     		movs	r3, #1
 400              	.L14:
 289:Drivers/STM32H7xx_HAL_Driver/Src/stm32h7xx_hal.c **** }
 401              		.loc 1 289 1
 402 0058 1846     		mov	r0, r3
 403 005a 0837     		adds	r7, r7, #8
 404              	.LCFI18:
 405              		.cfi_def_cfa_offset 8
 406 005c BD46     		mov	sp, r7
 407              	.LCFI19:
 408              		.cfi_def_cfa_register 13
 409              		@ sp needed
ARM GAS  C:\Users\23671\AppData\Local\Temp\cc8GjZ48.s 			page 13


 410 005e 80BD     		pop	{r7, pc}
 411              	.L19:
 412              		.align	2
 413              	.L18:
 414 0060 00000000 		.word	uwTickFreq
 415 0064 00000000 		.word	SystemCoreClock
 416 0068 00000000 		.word	uwTickPrio
 417              		.cfi_endproc
 418              	.LFE148:
 420              		.section	.text.HAL_IncTick,"ax",%progbits
 421              		.align	1
 422              		.weak	HAL_IncTick
 423              		.syntax unified
 424              		.thumb
 425              		.thumb_func
 427              	HAL_IncTick:
 428              	.LFB149:
 290:Drivers/STM32H7xx_HAL_Driver/Src/stm32h7xx_hal.c **** 
 291:Drivers/STM32H7xx_HAL_Driver/Src/stm32h7xx_hal.c **** /**
 292:Drivers/STM32H7xx_HAL_Driver/Src/stm32h7xx_hal.c ****   * @}
 293:Drivers/STM32H7xx_HAL_Driver/Src/stm32h7xx_hal.c ****   */
 294:Drivers/STM32H7xx_HAL_Driver/Src/stm32h7xx_hal.c **** 
 295:Drivers/STM32H7xx_HAL_Driver/Src/stm32h7xx_hal.c **** /** @addtogroup HAL_Group2
 296:Drivers/STM32H7xx_HAL_Driver/Src/stm32h7xx_hal.c ****  *  @brief    HAL Control functions
 297:Drivers/STM32H7xx_HAL_Driver/Src/stm32h7xx_hal.c ****  *
 298:Drivers/STM32H7xx_HAL_Driver/Src/stm32h7xx_hal.c **** @verbatim
 299:Drivers/STM32H7xx_HAL_Driver/Src/stm32h7xx_hal.c ****  ===============================================================================
 300:Drivers/STM32H7xx_HAL_Driver/Src/stm32h7xx_hal.c ****                       ##### HAL Control functions #####
 301:Drivers/STM32H7xx_HAL_Driver/Src/stm32h7xx_hal.c ****  ===============================================================================
 302:Drivers/STM32H7xx_HAL_Driver/Src/stm32h7xx_hal.c ****     [..]  This section provides functions allowing to:
 303:Drivers/STM32H7xx_HAL_Driver/Src/stm32h7xx_hal.c ****       (+) Provide a tick value in millisecond
 304:Drivers/STM32H7xx_HAL_Driver/Src/stm32h7xx_hal.c ****       (+) Provide a blocking delay in millisecond
 305:Drivers/STM32H7xx_HAL_Driver/Src/stm32h7xx_hal.c ****       (+) Suspend the time base source interrupt
 306:Drivers/STM32H7xx_HAL_Driver/Src/stm32h7xx_hal.c ****       (+) Resume the time base source interrupt
 307:Drivers/STM32H7xx_HAL_Driver/Src/stm32h7xx_hal.c ****       (+) Get the HAL API driver version
 308:Drivers/STM32H7xx_HAL_Driver/Src/stm32h7xx_hal.c ****       (+) Get the device identifier
 309:Drivers/STM32H7xx_HAL_Driver/Src/stm32h7xx_hal.c ****       (+) Get the device revision identifier
 310:Drivers/STM32H7xx_HAL_Driver/Src/stm32h7xx_hal.c ****       (+) Enable/Disable Debug module during SLEEP mode
 311:Drivers/STM32H7xx_HAL_Driver/Src/stm32h7xx_hal.c ****       (+) Enable/Disable Debug module during STOP mode
 312:Drivers/STM32H7xx_HAL_Driver/Src/stm32h7xx_hal.c ****       (+) Enable/Disable Debug module during STANDBY mode
 313:Drivers/STM32H7xx_HAL_Driver/Src/stm32h7xx_hal.c **** 
 314:Drivers/STM32H7xx_HAL_Driver/Src/stm32h7xx_hal.c **** @endverbatim
 315:Drivers/STM32H7xx_HAL_Driver/Src/stm32h7xx_hal.c ****   * @{
 316:Drivers/STM32H7xx_HAL_Driver/Src/stm32h7xx_hal.c ****   */
 317:Drivers/STM32H7xx_HAL_Driver/Src/stm32h7xx_hal.c **** 
 318:Drivers/STM32H7xx_HAL_Driver/Src/stm32h7xx_hal.c **** /**
 319:Drivers/STM32H7xx_HAL_Driver/Src/stm32h7xx_hal.c ****   * @brief This function is called to increment  a global variable "uwTick"
 320:Drivers/STM32H7xx_HAL_Driver/Src/stm32h7xx_hal.c ****   *        used as application time base.
 321:Drivers/STM32H7xx_HAL_Driver/Src/stm32h7xx_hal.c ****   * @note In the default implementation, this variable is incremented each 1ms
 322:Drivers/STM32H7xx_HAL_Driver/Src/stm32h7xx_hal.c ****   *       in Systick ISR.
 323:Drivers/STM32H7xx_HAL_Driver/Src/stm32h7xx_hal.c ****  * @note This function is declared as __weak to be overwritten in case of other
 324:Drivers/STM32H7xx_HAL_Driver/Src/stm32h7xx_hal.c ****   *      implementations in user file.
 325:Drivers/STM32H7xx_HAL_Driver/Src/stm32h7xx_hal.c ****   * @retval None
 326:Drivers/STM32H7xx_HAL_Driver/Src/stm32h7xx_hal.c ****   */
 327:Drivers/STM32H7xx_HAL_Driver/Src/stm32h7xx_hal.c **** __weak void HAL_IncTick(void)
 328:Drivers/STM32H7xx_HAL_Driver/Src/stm32h7xx_hal.c **** {
 429              		.loc 1 328 1
ARM GAS  C:\Users\23671\AppData\Local\Temp\cc8GjZ48.s 			page 14


 430              		.cfi_startproc
 431              		@ args = 0, pretend = 0, frame = 0
 432              		@ frame_needed = 1, uses_anonymous_args = 0
 433              		@ link register save eliminated.
 434 0000 80B4     		push	{r7}
 435              	.LCFI20:
 436              		.cfi_def_cfa_offset 4
 437              		.cfi_offset 7, -4
 438 0002 00AF     		add	r7, sp, #0
 439              	.LCFI21:
 440              		.cfi_def_cfa_register 7
 329:Drivers/STM32H7xx_HAL_Driver/Src/stm32h7xx_hal.c ****   uwTick += (uint32_t)uwTickFreq;
 441              		.loc 1 329 13
 442 0004 064B     		ldr	r3, .L21
 443 0006 1B78     		ldrb	r3, [r3]	@ zero_extendqisi2
 444 0008 1A46     		mov	r2, r3
 445              		.loc 1 329 10
 446 000a 064B     		ldr	r3, .L21+4
 447 000c 1B68     		ldr	r3, [r3]
 448 000e 1344     		add	r3, r3, r2
 449 0010 044A     		ldr	r2, .L21+4
 450 0012 1360     		str	r3, [r2]
 330:Drivers/STM32H7xx_HAL_Driver/Src/stm32h7xx_hal.c **** }
 451              		.loc 1 330 1
 452 0014 00BF     		nop
 453 0016 BD46     		mov	sp, r7
 454              	.LCFI22:
 455              		.cfi_def_cfa_register 13
 456              		@ sp needed
 457 0018 5DF8047B 		ldr	r7, [sp], #4
 458              	.LCFI23:
 459              		.cfi_restore 7
 460              		.cfi_def_cfa_offset 0
 461 001c 7047     		bx	lr
 462              	.L22:
 463 001e 00BF     		.align	2
 464              	.L21:
 465 0020 00000000 		.word	uwTickFreq
 466 0024 00000000 		.word	uwTick
 467              		.cfi_endproc
 468              	.LFE149:
 470              		.section	.text.HAL_GetTick,"ax",%progbits
 471              		.align	1
 472              		.weak	HAL_GetTick
 473              		.syntax unified
 474              		.thumb
 475              		.thumb_func
 477              	HAL_GetTick:
 478              	.LFB150:
 331:Drivers/STM32H7xx_HAL_Driver/Src/stm32h7xx_hal.c **** 
 332:Drivers/STM32H7xx_HAL_Driver/Src/stm32h7xx_hal.c **** /**
 333:Drivers/STM32H7xx_HAL_Driver/Src/stm32h7xx_hal.c ****   * @brief Provides a tick value in millisecond.
 334:Drivers/STM32H7xx_HAL_Driver/Src/stm32h7xx_hal.c ****   * @note This function is declared as __weak to be overwritten in case of other
 335:Drivers/STM32H7xx_HAL_Driver/Src/stm32h7xx_hal.c ****   *       implementations in user file.
 336:Drivers/STM32H7xx_HAL_Driver/Src/stm32h7xx_hal.c ****   * @retval tick value
 337:Drivers/STM32H7xx_HAL_Driver/Src/stm32h7xx_hal.c ****   */
 338:Drivers/STM32H7xx_HAL_Driver/Src/stm32h7xx_hal.c **** __weak uint32_t HAL_GetTick(void)
ARM GAS  C:\Users\23671\AppData\Local\Temp\cc8GjZ48.s 			page 15


 339:Drivers/STM32H7xx_HAL_Driver/Src/stm32h7xx_hal.c **** {
 479              		.loc 1 339 1
 480              		.cfi_startproc
 481              		@ args = 0, pretend = 0, frame = 0
 482              		@ frame_needed = 1, uses_anonymous_args = 0
 483              		@ link register save eliminated.
 484 0000 80B4     		push	{r7}
 485              	.LCFI24:
 486              		.cfi_def_cfa_offset 4
 487              		.cfi_offset 7, -4
 488 0002 00AF     		add	r7, sp, #0
 489              	.LCFI25:
 490              		.cfi_def_cfa_register 7
 340:Drivers/STM32H7xx_HAL_Driver/Src/stm32h7xx_hal.c ****   return uwTick;
 491              		.loc 1 340 10
 492 0004 034B     		ldr	r3, .L25
 493 0006 1B68     		ldr	r3, [r3]
 341:Drivers/STM32H7xx_HAL_Driver/Src/stm32h7xx_hal.c **** }
 494              		.loc 1 341 1
 495 0008 1846     		mov	r0, r3
 496 000a BD46     		mov	sp, r7
 497              	.LCFI26:
 498              		.cfi_def_cfa_register 13
 499              		@ sp needed
 500 000c 5DF8047B 		ldr	r7, [sp], #4
 501              	.LCFI27:
 502              		.cfi_restore 7
 503              		.cfi_def_cfa_offset 0
 504 0010 7047     		bx	lr
 505              	.L26:
 506 0012 00BF     		.align	2
 507              	.L25:
 508 0014 00000000 		.word	uwTick
 509              		.cfi_endproc
 510              	.LFE150:
 512              		.section	.text.HAL_GetTickPrio,"ax",%progbits
 513              		.align	1
 514              		.global	HAL_GetTickPrio
 515              		.syntax unified
 516              		.thumb
 517              		.thumb_func
 519              	HAL_GetTickPrio:
 520              	.LFB151:
 342:Drivers/STM32H7xx_HAL_Driver/Src/stm32h7xx_hal.c **** 
 343:Drivers/STM32H7xx_HAL_Driver/Src/stm32h7xx_hal.c **** /**
 344:Drivers/STM32H7xx_HAL_Driver/Src/stm32h7xx_hal.c ****   * @brief This function returns a tick priority.
 345:Drivers/STM32H7xx_HAL_Driver/Src/stm32h7xx_hal.c ****   * @retval tick priority
 346:Drivers/STM32H7xx_HAL_Driver/Src/stm32h7xx_hal.c ****   */
 347:Drivers/STM32H7xx_HAL_Driver/Src/stm32h7xx_hal.c **** uint32_t HAL_GetTickPrio(void)
 348:Drivers/STM32H7xx_HAL_Driver/Src/stm32h7xx_hal.c **** {
 521              		.loc 1 348 1
 522              		.cfi_startproc
 523              		@ args = 0, pretend = 0, frame = 0
 524              		@ frame_needed = 1, uses_anonymous_args = 0
 525              		@ link register save eliminated.
 526 0000 80B4     		push	{r7}
 527              	.LCFI28:
ARM GAS  C:\Users\23671\AppData\Local\Temp\cc8GjZ48.s 			page 16


 528              		.cfi_def_cfa_offset 4
 529              		.cfi_offset 7, -4
 530 0002 00AF     		add	r7, sp, #0
 531              	.LCFI29:
 532              		.cfi_def_cfa_register 7
 349:Drivers/STM32H7xx_HAL_Driver/Src/stm32h7xx_hal.c ****   return uwTickPrio;
 533              		.loc 1 349 10
 534 0004 034B     		ldr	r3, .L29
 535 0006 1B68     		ldr	r3, [r3]
 350:Drivers/STM32H7xx_HAL_Driver/Src/stm32h7xx_hal.c **** }
 536              		.loc 1 350 1
 537 0008 1846     		mov	r0, r3
 538 000a BD46     		mov	sp, r7
 539              	.LCFI30:
 540              		.cfi_def_cfa_register 13
 541              		@ sp needed
 542 000c 5DF8047B 		ldr	r7, [sp], #4
 543              	.LCFI31:
 544              		.cfi_restore 7
 545              		.cfi_def_cfa_offset 0
 546 0010 7047     		bx	lr
 547              	.L30:
 548 0012 00BF     		.align	2
 549              	.L29:
 550 0014 00000000 		.word	uwTickPrio
 551              		.cfi_endproc
 552              	.LFE151:
 554              		.section	.text.HAL_SetTickFreq,"ax",%progbits
 555              		.align	1
 556              		.global	HAL_SetTickFreq
 557              		.syntax unified
 558              		.thumb
 559              		.thumb_func
 561              	HAL_SetTickFreq:
 562              	.LFB152:
 351:Drivers/STM32H7xx_HAL_Driver/Src/stm32h7xx_hal.c **** 
 352:Drivers/STM32H7xx_HAL_Driver/Src/stm32h7xx_hal.c **** /**
 353:Drivers/STM32H7xx_HAL_Driver/Src/stm32h7xx_hal.c ****   * @brief Set new tick Freq.
 354:Drivers/STM32H7xx_HAL_Driver/Src/stm32h7xx_hal.c ****   * @retval Status
 355:Drivers/STM32H7xx_HAL_Driver/Src/stm32h7xx_hal.c ****   */
 356:Drivers/STM32H7xx_HAL_Driver/Src/stm32h7xx_hal.c **** HAL_StatusTypeDef HAL_SetTickFreq(HAL_TickFreqTypeDef Freq)
 357:Drivers/STM32H7xx_HAL_Driver/Src/stm32h7xx_hal.c **** {
 563              		.loc 1 357 1
 564              		.cfi_startproc
 565              		@ args = 0, pretend = 0, frame = 16
 566              		@ frame_needed = 1, uses_anonymous_args = 0
 567 0000 80B5     		push	{r7, lr}
 568              	.LCFI32:
 569              		.cfi_def_cfa_offset 8
 570              		.cfi_offset 7, -8
 571              		.cfi_offset 14, -4
 572 0002 84B0     		sub	sp, sp, #16
 573              	.LCFI33:
 574              		.cfi_def_cfa_offset 24
 575 0004 00AF     		add	r7, sp, #0
 576              	.LCFI34:
 577              		.cfi_def_cfa_register 7
ARM GAS  C:\Users\23671\AppData\Local\Temp\cc8GjZ48.s 			page 17


 578 0006 0346     		mov	r3, r0
 579 0008 FB71     		strb	r3, [r7, #7]
 358:Drivers/STM32H7xx_HAL_Driver/Src/stm32h7xx_hal.c ****   HAL_StatusTypeDef status  = HAL_OK;
 580              		.loc 1 358 21
 581 000a 0023     		movs	r3, #0
 582 000c FB73     		strb	r3, [r7, #15]
 359:Drivers/STM32H7xx_HAL_Driver/Src/stm32h7xx_hal.c ****   HAL_TickFreqTypeDef prevTickFreq;
 360:Drivers/STM32H7xx_HAL_Driver/Src/stm32h7xx_hal.c **** 
 361:Drivers/STM32H7xx_HAL_Driver/Src/stm32h7xx_hal.c ****   assert_param(IS_TICKFREQ(Freq));
 362:Drivers/STM32H7xx_HAL_Driver/Src/stm32h7xx_hal.c **** 
 363:Drivers/STM32H7xx_HAL_Driver/Src/stm32h7xx_hal.c ****   if (uwTickFreq != Freq)
 583              		.loc 1 363 18
 584 000e 0E4B     		ldr	r3, .L34
 585 0010 1B78     		ldrb	r3, [r3]	@ zero_extendqisi2
 586              		.loc 1 363 6
 587 0012 FA79     		ldrb	r2, [r7, #7]	@ zero_extendqisi2
 588 0014 9A42     		cmp	r2, r3
 589 0016 12D0     		beq	.L32
 364:Drivers/STM32H7xx_HAL_Driver/Src/stm32h7xx_hal.c ****   {
 365:Drivers/STM32H7xx_HAL_Driver/Src/stm32h7xx_hal.c **** 
 366:Drivers/STM32H7xx_HAL_Driver/Src/stm32h7xx_hal.c ****     /* Back up uwTickFreq frequency */
 367:Drivers/STM32H7xx_HAL_Driver/Src/stm32h7xx_hal.c ****     prevTickFreq = uwTickFreq;
 590              		.loc 1 367 18
 591 0018 0B4B     		ldr	r3, .L34
 592 001a 1B78     		ldrb	r3, [r3]
 593 001c BB73     		strb	r3, [r7, #14]
 368:Drivers/STM32H7xx_HAL_Driver/Src/stm32h7xx_hal.c **** 
 369:Drivers/STM32H7xx_HAL_Driver/Src/stm32h7xx_hal.c ****     /* Update uwTickFreq global variable used by HAL_InitTick() */
 370:Drivers/STM32H7xx_HAL_Driver/Src/stm32h7xx_hal.c ****     uwTickFreq = Freq;
 594              		.loc 1 370 16
 595 001e 0A4A     		ldr	r2, .L34
 596 0020 FB79     		ldrb	r3, [r7, #7]
 597 0022 1370     		strb	r3, [r2]
 371:Drivers/STM32H7xx_HAL_Driver/Src/stm32h7xx_hal.c **** 
 372:Drivers/STM32H7xx_HAL_Driver/Src/stm32h7xx_hal.c ****     /* Apply the new tick Freq  */
 373:Drivers/STM32H7xx_HAL_Driver/Src/stm32h7xx_hal.c ****     status = HAL_InitTick(uwTickPrio);
 598              		.loc 1 373 14
 599 0024 094B     		ldr	r3, .L34+4
 600 0026 1B68     		ldr	r3, [r3]
 601 0028 1846     		mov	r0, r3
 602 002a FFF7FEFF 		bl	HAL_InitTick
 603 002e 0346     		mov	r3, r0
 604 0030 FB73     		strb	r3, [r7, #15]
 374:Drivers/STM32H7xx_HAL_Driver/Src/stm32h7xx_hal.c ****     if (status != HAL_OK)
 605              		.loc 1 374 8
 606 0032 FB7B     		ldrb	r3, [r7, #15]	@ zero_extendqisi2
 607 0034 002B     		cmp	r3, #0
 608 0036 02D0     		beq	.L32
 375:Drivers/STM32H7xx_HAL_Driver/Src/stm32h7xx_hal.c ****     {
 376:Drivers/STM32H7xx_HAL_Driver/Src/stm32h7xx_hal.c ****       /* Restore previous tick frequency */
 377:Drivers/STM32H7xx_HAL_Driver/Src/stm32h7xx_hal.c ****       uwTickFreq = prevTickFreq;
 609              		.loc 1 377 18
 610 0038 034A     		ldr	r2, .L34
 611 003a BB7B     		ldrb	r3, [r7, #14]
 612 003c 1370     		strb	r3, [r2]
 613              	.L32:
 378:Drivers/STM32H7xx_HAL_Driver/Src/stm32h7xx_hal.c ****     }
ARM GAS  C:\Users\23671\AppData\Local\Temp\cc8GjZ48.s 			page 18


 379:Drivers/STM32H7xx_HAL_Driver/Src/stm32h7xx_hal.c ****   }
 380:Drivers/STM32H7xx_HAL_Driver/Src/stm32h7xx_hal.c **** 
 381:Drivers/STM32H7xx_HAL_Driver/Src/stm32h7xx_hal.c ****   return status;
 614              		.loc 1 381 10
 615 003e FB7B     		ldrb	r3, [r7, #15]	@ zero_extendqisi2
 382:Drivers/STM32H7xx_HAL_Driver/Src/stm32h7xx_hal.c **** }
 616              		.loc 1 382 1
 617 0040 1846     		mov	r0, r3
 618 0042 1037     		adds	r7, r7, #16
 619              	.LCFI35:
 620              		.cfi_def_cfa_offset 8
 621 0044 BD46     		mov	sp, r7
 622              	.LCFI36:
 623              		.cfi_def_cfa_register 13
 624              		@ sp needed
 625 0046 80BD     		pop	{r7, pc}
 626              	.L35:
 627              		.align	2
 628              	.L34:
 629 0048 00000000 		.word	uwTickFreq
 630 004c 00000000 		.word	uwTickPrio
 631              		.cfi_endproc
 632              	.LFE152:
 634              		.section	.text.HAL_GetTickFreq,"ax",%progbits
 635              		.align	1
 636              		.global	HAL_GetTickFreq
 637              		.syntax unified
 638              		.thumb
 639              		.thumb_func
 641              	HAL_GetTickFreq:
 642              	.LFB153:
 383:Drivers/STM32H7xx_HAL_Driver/Src/stm32h7xx_hal.c **** 
 384:Drivers/STM32H7xx_HAL_Driver/Src/stm32h7xx_hal.c **** /**
 385:Drivers/STM32H7xx_HAL_Driver/Src/stm32h7xx_hal.c ****   * @brief Return tick frequency.
 386:Drivers/STM32H7xx_HAL_Driver/Src/stm32h7xx_hal.c ****   * @retval Tick frequency.
 387:Drivers/STM32H7xx_HAL_Driver/Src/stm32h7xx_hal.c ****   *         Value of @ref HAL_TickFreqTypeDef.
 388:Drivers/STM32H7xx_HAL_Driver/Src/stm32h7xx_hal.c ****   */
 389:Drivers/STM32H7xx_HAL_Driver/Src/stm32h7xx_hal.c **** HAL_TickFreqTypeDef HAL_GetTickFreq(void)
 390:Drivers/STM32H7xx_HAL_Driver/Src/stm32h7xx_hal.c **** {
 643              		.loc 1 390 1
 644              		.cfi_startproc
 645              		@ args = 0, pretend = 0, frame = 0
 646              		@ frame_needed = 1, uses_anonymous_args = 0
 647              		@ link register save eliminated.
 648 0000 80B4     		push	{r7}
 649              	.LCFI37:
 650              		.cfi_def_cfa_offset 4
 651              		.cfi_offset 7, -4
 652 0002 00AF     		add	r7, sp, #0
 653              	.LCFI38:
 654              		.cfi_def_cfa_register 7
 391:Drivers/STM32H7xx_HAL_Driver/Src/stm32h7xx_hal.c ****   return uwTickFreq;
 655              		.loc 1 391 10
 656 0004 034B     		ldr	r3, .L38
 657 0006 1B78     		ldrb	r3, [r3]	@ zero_extendqisi2
 392:Drivers/STM32H7xx_HAL_Driver/Src/stm32h7xx_hal.c **** }
 658              		.loc 1 392 1
ARM GAS  C:\Users\23671\AppData\Local\Temp\cc8GjZ48.s 			page 19


 659 0008 1846     		mov	r0, r3
 660 000a BD46     		mov	sp, r7
 661              	.LCFI39:
 662              		.cfi_def_cfa_register 13
 663              		@ sp needed
 664 000c 5DF8047B 		ldr	r7, [sp], #4
 665              	.LCFI40:
 666              		.cfi_restore 7
 667              		.cfi_def_cfa_offset 0
 668 0010 7047     		bx	lr
 669              	.L39:
 670 0012 00BF     		.align	2
 671              	.L38:
 672 0014 00000000 		.word	uwTickFreq
 673              		.cfi_endproc
 674              	.LFE153:
 676              		.section	.text.HAL_Delay,"ax",%progbits
 677              		.align	1
 678              		.weak	HAL_Delay
 679              		.syntax unified
 680              		.thumb
 681              		.thumb_func
 683              	HAL_Delay:
 684              	.LFB154:
 393:Drivers/STM32H7xx_HAL_Driver/Src/stm32h7xx_hal.c **** 
 394:Drivers/STM32H7xx_HAL_Driver/Src/stm32h7xx_hal.c **** /**
 395:Drivers/STM32H7xx_HAL_Driver/Src/stm32h7xx_hal.c ****   * @brief This function provides minimum delay (in milliseconds) based
 396:Drivers/STM32H7xx_HAL_Driver/Src/stm32h7xx_hal.c ****   *        on variable incremented.
 397:Drivers/STM32H7xx_HAL_Driver/Src/stm32h7xx_hal.c ****   * @note In the default implementation , SysTick timer is the source of time base.
 398:Drivers/STM32H7xx_HAL_Driver/Src/stm32h7xx_hal.c ****   *       It is used to generate interrupts at regular time intervals where uwTick
 399:Drivers/STM32H7xx_HAL_Driver/Src/stm32h7xx_hal.c ****   *       is incremented.
 400:Drivers/STM32H7xx_HAL_Driver/Src/stm32h7xx_hal.c ****   * @note This function is declared as __weak to be overwritten in case of other
 401:Drivers/STM32H7xx_HAL_Driver/Src/stm32h7xx_hal.c ****   *       implementations in user file.
 402:Drivers/STM32H7xx_HAL_Driver/Src/stm32h7xx_hal.c ****   * @param Delay  specifies the delay time length, in milliseconds.
 403:Drivers/STM32H7xx_HAL_Driver/Src/stm32h7xx_hal.c ****   * @retval None
 404:Drivers/STM32H7xx_HAL_Driver/Src/stm32h7xx_hal.c ****   */
 405:Drivers/STM32H7xx_HAL_Driver/Src/stm32h7xx_hal.c **** __weak void HAL_Delay(uint32_t Delay)
 406:Drivers/STM32H7xx_HAL_Driver/Src/stm32h7xx_hal.c **** {
 685              		.loc 1 406 1
 686              		.cfi_startproc
 687              		@ args = 0, pretend = 0, frame = 16
 688              		@ frame_needed = 1, uses_anonymous_args = 0
 689 0000 80B5     		push	{r7, lr}
 690              	.LCFI41:
 691              		.cfi_def_cfa_offset 8
 692              		.cfi_offset 7, -8
 693              		.cfi_offset 14, -4
 694 0002 84B0     		sub	sp, sp, #16
 695              	.LCFI42:
 696              		.cfi_def_cfa_offset 24
 697 0004 00AF     		add	r7, sp, #0
 698              	.LCFI43:
 699              		.cfi_def_cfa_register 7
 700 0006 7860     		str	r0, [r7, #4]
 407:Drivers/STM32H7xx_HAL_Driver/Src/stm32h7xx_hal.c ****   uint32_t tickstart = HAL_GetTick();
 701              		.loc 1 407 24
 702 0008 FFF7FEFF 		bl	HAL_GetTick
ARM GAS  C:\Users\23671\AppData\Local\Temp\cc8GjZ48.s 			page 20


 703 000c B860     		str	r0, [r7, #8]
 408:Drivers/STM32H7xx_HAL_Driver/Src/stm32h7xx_hal.c ****   uint32_t wait = Delay;
 704              		.loc 1 408 12
 705 000e 7B68     		ldr	r3, [r7, #4]
 706 0010 FB60     		str	r3, [r7, #12]
 409:Drivers/STM32H7xx_HAL_Driver/Src/stm32h7xx_hal.c **** 
 410:Drivers/STM32H7xx_HAL_Driver/Src/stm32h7xx_hal.c ****   /* Add a freq to guarantee minimum wait */
 411:Drivers/STM32H7xx_HAL_Driver/Src/stm32h7xx_hal.c ****   if (wait < HAL_MAX_DELAY)
 707              		.loc 1 411 6
 708 0012 FB68     		ldr	r3, [r7, #12]
 709 0014 B3F1FF3F 		cmp	r3, #-1
 710 0018 05D0     		beq	.L43
 412:Drivers/STM32H7xx_HAL_Driver/Src/stm32h7xx_hal.c ****   {
 413:Drivers/STM32H7xx_HAL_Driver/Src/stm32h7xx_hal.c ****     wait += (uint32_t)(uwTickFreq);
 711              		.loc 1 413 13
 712 001a 0A4B     		ldr	r3, .L44
 713 001c 1B78     		ldrb	r3, [r3]	@ zero_extendqisi2
 714 001e 1A46     		mov	r2, r3
 715              		.loc 1 413 10
 716 0020 FB68     		ldr	r3, [r7, #12]
 717 0022 1344     		add	r3, r3, r2
 718 0024 FB60     		str	r3, [r7, #12]
 719              	.L43:
 414:Drivers/STM32H7xx_HAL_Driver/Src/stm32h7xx_hal.c ****   }
 415:Drivers/STM32H7xx_HAL_Driver/Src/stm32h7xx_hal.c **** 
 416:Drivers/STM32H7xx_HAL_Driver/Src/stm32h7xx_hal.c ****   while ((HAL_GetTick() - tickstart) < wait)
 720              		.loc 1 416 9
 721 0026 00BF     		nop
 722              	.L42:
 723              		.loc 1 416 11 discriminator 1
 724 0028 FFF7FEFF 		bl	HAL_GetTick
 725 002c 0246     		mov	r2, r0
 726              		.loc 1 416 25 discriminator 1
 727 002e BB68     		ldr	r3, [r7, #8]
 728 0030 D31A     		subs	r3, r2, r3
 729              		.loc 1 416 38 discriminator 1
 730 0032 FA68     		ldr	r2, [r7, #12]
 731 0034 9A42     		cmp	r2, r3
 732 0036 F7D8     		bhi	.L42
 417:Drivers/STM32H7xx_HAL_Driver/Src/stm32h7xx_hal.c ****   {
 418:Drivers/STM32H7xx_HAL_Driver/Src/stm32h7xx_hal.c ****   }
 419:Drivers/STM32H7xx_HAL_Driver/Src/stm32h7xx_hal.c **** }
 733              		.loc 1 419 1
 734 0038 00BF     		nop
 735 003a 00BF     		nop
 736 003c 1037     		adds	r7, r7, #16
 737              	.LCFI44:
 738              		.cfi_def_cfa_offset 8
 739 003e BD46     		mov	sp, r7
 740              	.LCFI45:
 741              		.cfi_def_cfa_register 13
 742              		@ sp needed
 743 0040 80BD     		pop	{r7, pc}
 744              	.L45:
 745 0042 00BF     		.align	2
 746              	.L44:
 747 0044 00000000 		.word	uwTickFreq
ARM GAS  C:\Users\23671\AppData\Local\Temp\cc8GjZ48.s 			page 21


 748              		.cfi_endproc
 749              	.LFE154:
 751              		.section	.text.HAL_SuspendTick,"ax",%progbits
 752              		.align	1
 753              		.weak	HAL_SuspendTick
 754              		.syntax unified
 755              		.thumb
 756              		.thumb_func
 758              	HAL_SuspendTick:
 759              	.LFB155:
 420:Drivers/STM32H7xx_HAL_Driver/Src/stm32h7xx_hal.c **** 
 421:Drivers/STM32H7xx_HAL_Driver/Src/stm32h7xx_hal.c **** /**
 422:Drivers/STM32H7xx_HAL_Driver/Src/stm32h7xx_hal.c ****   * @brief Suspend Tick increment.
 423:Drivers/STM32H7xx_HAL_Driver/Src/stm32h7xx_hal.c ****   * @note In the default implementation , SysTick timer is the source of time base. It is
 424:Drivers/STM32H7xx_HAL_Driver/Src/stm32h7xx_hal.c ****   *       used to generate interrupts at regular time intervals. Once HAL_SuspendTick()
 425:Drivers/STM32H7xx_HAL_Driver/Src/stm32h7xx_hal.c ****   *       is called, the SysTick interrupt will be disabled and so Tick increment
 426:Drivers/STM32H7xx_HAL_Driver/Src/stm32h7xx_hal.c ****   *       is suspended.
 427:Drivers/STM32H7xx_HAL_Driver/Src/stm32h7xx_hal.c ****   * @note This function is declared as __weak to be overwritten in case of other
 428:Drivers/STM32H7xx_HAL_Driver/Src/stm32h7xx_hal.c ****   *       implementations in user file.
 429:Drivers/STM32H7xx_HAL_Driver/Src/stm32h7xx_hal.c ****   * @retval None
 430:Drivers/STM32H7xx_HAL_Driver/Src/stm32h7xx_hal.c ****   */
 431:Drivers/STM32H7xx_HAL_Driver/Src/stm32h7xx_hal.c **** __weak void HAL_SuspendTick(void)
 432:Drivers/STM32H7xx_HAL_Driver/Src/stm32h7xx_hal.c **** {
 760              		.loc 1 432 1
 761              		.cfi_startproc
 762              		@ args = 0, pretend = 0, frame = 0
 763              		@ frame_needed = 1, uses_anonymous_args = 0
 764              		@ link register save eliminated.
 765 0000 80B4     		push	{r7}
 766              	.LCFI46:
 767              		.cfi_def_cfa_offset 4
 768              		.cfi_offset 7, -4
 769 0002 00AF     		add	r7, sp, #0
 770              	.LCFI47:
 771              		.cfi_def_cfa_register 7
 433:Drivers/STM32H7xx_HAL_Driver/Src/stm32h7xx_hal.c ****   /* Disable SysTick Interrupt */
 434:Drivers/STM32H7xx_HAL_Driver/Src/stm32h7xx_hal.c ****   SysTick->CTRL &= ~SysTick_CTRL_TICKINT_Msk;
 772              		.loc 1 434 10
 773 0004 054B     		ldr	r3, .L47
 774 0006 1B68     		ldr	r3, [r3]
 775 0008 044A     		ldr	r2, .L47
 776              		.loc 1 434 17
 777 000a 23F00203 		bic	r3, r3, #2
 778 000e 1360     		str	r3, [r2]
 435:Drivers/STM32H7xx_HAL_Driver/Src/stm32h7xx_hal.c **** }
 779              		.loc 1 435 1
 780 0010 00BF     		nop
 781 0012 BD46     		mov	sp, r7
 782              	.LCFI48:
 783              		.cfi_def_cfa_register 13
 784              		@ sp needed
 785 0014 5DF8047B 		ldr	r7, [sp], #4
 786              	.LCFI49:
 787              		.cfi_restore 7
 788              		.cfi_def_cfa_offset 0
 789 0018 7047     		bx	lr
 790              	.L48:
ARM GAS  C:\Users\23671\AppData\Local\Temp\cc8GjZ48.s 			page 22


 791 001a 00BF     		.align	2
 792              	.L47:
 793 001c 10E000E0 		.word	-536813552
 794              		.cfi_endproc
 795              	.LFE155:
 797              		.section	.text.HAL_ResumeTick,"ax",%progbits
 798              		.align	1
 799              		.weak	HAL_ResumeTick
 800              		.syntax unified
 801              		.thumb
 802              		.thumb_func
 804              	HAL_ResumeTick:
 805              	.LFB156:
 436:Drivers/STM32H7xx_HAL_Driver/Src/stm32h7xx_hal.c **** 
 437:Drivers/STM32H7xx_HAL_Driver/Src/stm32h7xx_hal.c **** /**
 438:Drivers/STM32H7xx_HAL_Driver/Src/stm32h7xx_hal.c ****   * @brief Resume Tick increment.
 439:Drivers/STM32H7xx_HAL_Driver/Src/stm32h7xx_hal.c ****   * @note In the default implementation , SysTick timer is the source of time base. It is
 440:Drivers/STM32H7xx_HAL_Driver/Src/stm32h7xx_hal.c ****   *       used to generate interrupts at regular time intervals. Once HAL_ResumeTick()
 441:Drivers/STM32H7xx_HAL_Driver/Src/stm32h7xx_hal.c ****   *       is called, the SysTick interrupt will be enabled and so Tick increment
 442:Drivers/STM32H7xx_HAL_Driver/Src/stm32h7xx_hal.c ****   *       is resumed.
 443:Drivers/STM32H7xx_HAL_Driver/Src/stm32h7xx_hal.c ****   * @note This function is declared as __weak to be overwritten in case of other
 444:Drivers/STM32H7xx_HAL_Driver/Src/stm32h7xx_hal.c ****   *       implementations in user file.
 445:Drivers/STM32H7xx_HAL_Driver/Src/stm32h7xx_hal.c ****   * @retval None
 446:Drivers/STM32H7xx_HAL_Driver/Src/stm32h7xx_hal.c ****   */
 447:Drivers/STM32H7xx_HAL_Driver/Src/stm32h7xx_hal.c **** __weak void HAL_ResumeTick(void)
 448:Drivers/STM32H7xx_HAL_Driver/Src/stm32h7xx_hal.c **** {
 806              		.loc 1 448 1
 807              		.cfi_startproc
 808              		@ args = 0, pretend = 0, frame = 0
 809              		@ frame_needed = 1, uses_anonymous_args = 0
 810              		@ link register save eliminated.
 811 0000 80B4     		push	{r7}
 812              	.LCFI50:
 813              		.cfi_def_cfa_offset 4
 814              		.cfi_offset 7, -4
 815 0002 00AF     		add	r7, sp, #0
 816              	.LCFI51:
 817              		.cfi_def_cfa_register 7
 449:Drivers/STM32H7xx_HAL_Driver/Src/stm32h7xx_hal.c ****   /* Enable SysTick Interrupt */
 450:Drivers/STM32H7xx_HAL_Driver/Src/stm32h7xx_hal.c ****   SysTick->CTRL  |= SysTick_CTRL_TICKINT_Msk;
 818              		.loc 1 450 10
 819 0004 054B     		ldr	r3, .L50
 820 0006 1B68     		ldr	r3, [r3]
 821 0008 044A     		ldr	r2, .L50
 822              		.loc 1 450 18
 823 000a 43F00203 		orr	r3, r3, #2
 824 000e 1360     		str	r3, [r2]
 451:Drivers/STM32H7xx_HAL_Driver/Src/stm32h7xx_hal.c **** }
 825              		.loc 1 451 1
 826 0010 00BF     		nop
 827 0012 BD46     		mov	sp, r7
 828              	.LCFI52:
 829              		.cfi_def_cfa_register 13
 830              		@ sp needed
 831 0014 5DF8047B 		ldr	r7, [sp], #4
 832              	.LCFI53:
 833              		.cfi_restore 7
ARM GAS  C:\Users\23671\AppData\Local\Temp\cc8GjZ48.s 			page 23


 834              		.cfi_def_cfa_offset 0
 835 0018 7047     		bx	lr
 836              	.L51:
 837 001a 00BF     		.align	2
 838              	.L50:
 839 001c 10E000E0 		.word	-536813552
 840              		.cfi_endproc
 841              	.LFE156:
 843              		.section	.text.HAL_GetHalVersion,"ax",%progbits
 844              		.align	1
 845              		.global	HAL_GetHalVersion
 846              		.syntax unified
 847              		.thumb
 848              		.thumb_func
 850              	HAL_GetHalVersion:
 851              	.LFB157:
 452:Drivers/STM32H7xx_HAL_Driver/Src/stm32h7xx_hal.c **** 
 453:Drivers/STM32H7xx_HAL_Driver/Src/stm32h7xx_hal.c **** /**
 454:Drivers/STM32H7xx_HAL_Driver/Src/stm32h7xx_hal.c ****   * @brief  Returns the HAL revision
 455:Drivers/STM32H7xx_HAL_Driver/Src/stm32h7xx_hal.c ****   * @retval version : 0xXYZR (8bits for each decimal, R for RC)
 456:Drivers/STM32H7xx_HAL_Driver/Src/stm32h7xx_hal.c ****   */
 457:Drivers/STM32H7xx_HAL_Driver/Src/stm32h7xx_hal.c **** uint32_t HAL_GetHalVersion(void)
 458:Drivers/STM32H7xx_HAL_Driver/Src/stm32h7xx_hal.c **** {
 852              		.loc 1 458 1
 853              		.cfi_startproc
 854              		@ args = 0, pretend = 0, frame = 0
 855              		@ frame_needed = 1, uses_anonymous_args = 0
 856              		@ link register save eliminated.
 857 0000 80B4     		push	{r7}
 858              	.LCFI54:
 859              		.cfi_def_cfa_offset 4
 860              		.cfi_offset 7, -4
 861 0002 00AF     		add	r7, sp, #0
 862              	.LCFI55:
 863              		.cfi_def_cfa_register 7
 459:Drivers/STM32H7xx_HAL_Driver/Src/stm32h7xx_hal.c ****  return __STM32H7xx_HAL_VERSION;
 864              		.loc 1 459 9
 865 0004 024B     		ldr	r3, .L54
 460:Drivers/STM32H7xx_HAL_Driver/Src/stm32h7xx_hal.c **** }
 866              		.loc 1 460 1
 867 0006 1846     		mov	r0, r3
 868 0008 BD46     		mov	sp, r7
 869              	.LCFI56:
 870              		.cfi_def_cfa_register 13
 871              		@ sp needed
 872 000a 5DF8047B 		ldr	r7, [sp], #4
 873              	.LCFI57:
 874              		.cfi_restore 7
 875              		.cfi_def_cfa_offset 0
 876 000e 7047     		bx	lr
 877              	.L55:
 878              		.align	2
 879              	.L54:
 880 0010 00050B01 		.word	17499392
 881              		.cfi_endproc
 882              	.LFE157:
 884              		.section	.text.HAL_GetREVID,"ax",%progbits
ARM GAS  C:\Users\23671\AppData\Local\Temp\cc8GjZ48.s 			page 24


 885              		.align	1
 886              		.global	HAL_GetREVID
 887              		.syntax unified
 888              		.thumb
 889              		.thumb_func
 891              	HAL_GetREVID:
 892              	.LFB158:
 461:Drivers/STM32H7xx_HAL_Driver/Src/stm32h7xx_hal.c **** 
 462:Drivers/STM32H7xx_HAL_Driver/Src/stm32h7xx_hal.c **** /**
 463:Drivers/STM32H7xx_HAL_Driver/Src/stm32h7xx_hal.c ****   * @brief  Returns the device revision identifier.
 464:Drivers/STM32H7xx_HAL_Driver/Src/stm32h7xx_hal.c ****   * @retval Device revision identifier
 465:Drivers/STM32H7xx_HAL_Driver/Src/stm32h7xx_hal.c ****   */
 466:Drivers/STM32H7xx_HAL_Driver/Src/stm32h7xx_hal.c **** uint32_t HAL_GetREVID(void)
 467:Drivers/STM32H7xx_HAL_Driver/Src/stm32h7xx_hal.c **** {
 893              		.loc 1 467 1
 894              		.cfi_startproc
 895              		@ args = 0, pretend = 0, frame = 0
 896              		@ frame_needed = 1, uses_anonymous_args = 0
 897              		@ link register save eliminated.
 898 0000 80B4     		push	{r7}
 899              	.LCFI58:
 900              		.cfi_def_cfa_offset 4
 901              		.cfi_offset 7, -4
 902 0002 00AF     		add	r7, sp, #0
 903              	.LCFI59:
 904              		.cfi_def_cfa_register 7
 468:Drivers/STM32H7xx_HAL_Driver/Src/stm32h7xx_hal.c ****    return((DBGMCU->IDCODE) >> 16);
 905              		.loc 1 468 18
 906 0004 034B     		ldr	r3, .L58
 907 0006 1B68     		ldr	r3, [r3]
 908              		.loc 1 468 28
 909 0008 1B0C     		lsrs	r3, r3, #16
 469:Drivers/STM32H7xx_HAL_Driver/Src/stm32h7xx_hal.c **** }
 910              		.loc 1 469 1
 911 000a 1846     		mov	r0, r3
 912 000c BD46     		mov	sp, r7
 913              	.LCFI60:
 914              		.cfi_def_cfa_register 13
 915              		@ sp needed
 916 000e 5DF8047B 		ldr	r7, [sp], #4
 917              	.LCFI61:
 918              		.cfi_restore 7
 919              		.cfi_def_cfa_offset 0
 920 0012 7047     		bx	lr
 921              	.L59:
 922              		.align	2
 923              	.L58:
 924 0014 0010005C 		.word	1543507968
 925              		.cfi_endproc
 926              	.LFE158:
 928              		.section	.text.HAL_GetDEVID,"ax",%progbits
 929              		.align	1
 930              		.global	HAL_GetDEVID
 931              		.syntax unified
 932              		.thumb
 933              		.thumb_func
 935              	HAL_GetDEVID:
ARM GAS  C:\Users\23671\AppData\Local\Temp\cc8GjZ48.s 			page 25


 936              	.LFB159:
 470:Drivers/STM32H7xx_HAL_Driver/Src/stm32h7xx_hal.c **** 
 471:Drivers/STM32H7xx_HAL_Driver/Src/stm32h7xx_hal.c **** /**
 472:Drivers/STM32H7xx_HAL_Driver/Src/stm32h7xx_hal.c ****   * @brief  Returns the device identifier.
 473:Drivers/STM32H7xx_HAL_Driver/Src/stm32h7xx_hal.c ****   * @retval Device identifier
 474:Drivers/STM32H7xx_HAL_Driver/Src/stm32h7xx_hal.c ****   */
 475:Drivers/STM32H7xx_HAL_Driver/Src/stm32h7xx_hal.c **** uint32_t HAL_GetDEVID(void)
 476:Drivers/STM32H7xx_HAL_Driver/Src/stm32h7xx_hal.c **** {
 937              		.loc 1 476 1
 938              		.cfi_startproc
 939              		@ args = 0, pretend = 0, frame = 0
 940              		@ frame_needed = 1, uses_anonymous_args = 0
 941              		@ link register save eliminated.
 942 0000 80B4     		push	{r7}
 943              	.LCFI62:
 944              		.cfi_def_cfa_offset 4
 945              		.cfi_offset 7, -4
 946 0002 00AF     		add	r7, sp, #0
 947              	.LCFI63:
 948              		.cfi_def_cfa_register 7
 477:Drivers/STM32H7xx_HAL_Driver/Src/stm32h7xx_hal.c ****    return((DBGMCU->IDCODE) & IDCODE_DEVID_MASK);
 949              		.loc 1 477 18
 950 0004 044B     		ldr	r3, .L62
 951 0006 1B68     		ldr	r3, [r3]
 952              		.loc 1 477 28
 953 0008 C3F30B03 		ubfx	r3, r3, #0, #12
 478:Drivers/STM32H7xx_HAL_Driver/Src/stm32h7xx_hal.c **** }
 954              		.loc 1 478 1
 955 000c 1846     		mov	r0, r3
 956 000e BD46     		mov	sp, r7
 957              	.LCFI64:
 958              		.cfi_def_cfa_register 13
 959              		@ sp needed
 960 0010 5DF8047B 		ldr	r7, [sp], #4
 961              	.LCFI65:
 962              		.cfi_restore 7
 963              		.cfi_def_cfa_offset 0
 964 0014 7047     		bx	lr
 965              	.L63:
 966 0016 00BF     		.align	2
 967              	.L62:
 968 0018 0010005C 		.word	1543507968
 969              		.cfi_endproc
 970              	.LFE159:
 972              		.section	.text.HAL_GetUIDw0,"ax",%progbits
 973              		.align	1
 974              		.global	HAL_GetUIDw0
 975              		.syntax unified
 976              		.thumb
 977              		.thumb_func
 979              	HAL_GetUIDw0:
 980              	.LFB160:
 479:Drivers/STM32H7xx_HAL_Driver/Src/stm32h7xx_hal.c **** 
 480:Drivers/STM32H7xx_HAL_Driver/Src/stm32h7xx_hal.c **** /**
 481:Drivers/STM32H7xx_HAL_Driver/Src/stm32h7xx_hal.c ****   * @brief  Return the first word of the unique device identifier (UID based on 96 bits)
 482:Drivers/STM32H7xx_HAL_Driver/Src/stm32h7xx_hal.c ****   * @retval Device identifier
 483:Drivers/STM32H7xx_HAL_Driver/Src/stm32h7xx_hal.c ****   */
ARM GAS  C:\Users\23671\AppData\Local\Temp\cc8GjZ48.s 			page 26


 484:Drivers/STM32H7xx_HAL_Driver/Src/stm32h7xx_hal.c **** uint32_t HAL_GetUIDw0(void)
 485:Drivers/STM32H7xx_HAL_Driver/Src/stm32h7xx_hal.c **** {
 981              		.loc 1 485 1
 982              		.cfi_startproc
 983              		@ args = 0, pretend = 0, frame = 0
 984              		@ frame_needed = 1, uses_anonymous_args = 0
 985              		@ link register save eliminated.
 986 0000 80B4     		push	{r7}
 987              	.LCFI66:
 988              		.cfi_def_cfa_offset 4
 989              		.cfi_offset 7, -4
 990 0002 00AF     		add	r7, sp, #0
 991              	.LCFI67:
 992              		.cfi_def_cfa_register 7
 486:Drivers/STM32H7xx_HAL_Driver/Src/stm32h7xx_hal.c ****   return(READ_REG(*((uint32_t *)UID_BASE)));
 993              		.loc 1 486 10
 994 0004 034B     		ldr	r3, .L66
 995 0006 1B68     		ldr	r3, [r3]
 487:Drivers/STM32H7xx_HAL_Driver/Src/stm32h7xx_hal.c **** }
 996              		.loc 1 487 1
 997 0008 1846     		mov	r0, r3
 998 000a BD46     		mov	sp, r7
 999              	.LCFI68:
 1000              		.cfi_def_cfa_register 13
 1001              		@ sp needed
 1002 000c 5DF8047B 		ldr	r7, [sp], #4
 1003              	.LCFI69:
 1004              		.cfi_restore 7
 1005              		.cfi_def_cfa_offset 0
 1006 0010 7047     		bx	lr
 1007              	.L67:
 1008 0012 00BF     		.align	2
 1009              	.L66:
 1010 0014 00E8F11F 		.word	535947264
 1011              		.cfi_endproc
 1012              	.LFE160:
 1014              		.section	.text.HAL_GetUIDw1,"ax",%progbits
 1015              		.align	1
 1016              		.global	HAL_GetUIDw1
 1017              		.syntax unified
 1018              		.thumb
 1019              		.thumb_func
 1021              	HAL_GetUIDw1:
 1022              	.LFB161:
 488:Drivers/STM32H7xx_HAL_Driver/Src/stm32h7xx_hal.c **** 
 489:Drivers/STM32H7xx_HAL_Driver/Src/stm32h7xx_hal.c **** /**
 490:Drivers/STM32H7xx_HAL_Driver/Src/stm32h7xx_hal.c ****   * @brief  Return the second word of the unique device identifier (UID based on 96 bits)
 491:Drivers/STM32H7xx_HAL_Driver/Src/stm32h7xx_hal.c ****   * @retval Device identifier
 492:Drivers/STM32H7xx_HAL_Driver/Src/stm32h7xx_hal.c ****   */
 493:Drivers/STM32H7xx_HAL_Driver/Src/stm32h7xx_hal.c **** uint32_t HAL_GetUIDw1(void)
 494:Drivers/STM32H7xx_HAL_Driver/Src/stm32h7xx_hal.c **** {
 1023              		.loc 1 494 1
 1024              		.cfi_startproc
 1025              		@ args = 0, pretend = 0, frame = 0
 1026              		@ frame_needed = 1, uses_anonymous_args = 0
 1027              		@ link register save eliminated.
 1028 0000 80B4     		push	{r7}
ARM GAS  C:\Users\23671\AppData\Local\Temp\cc8GjZ48.s 			page 27


 1029              	.LCFI70:
 1030              		.cfi_def_cfa_offset 4
 1031              		.cfi_offset 7, -4
 1032 0002 00AF     		add	r7, sp, #0
 1033              	.LCFI71:
 1034              		.cfi_def_cfa_register 7
 495:Drivers/STM32H7xx_HAL_Driver/Src/stm32h7xx_hal.c ****   return(READ_REG(*((uint32_t *)(UID_BASE + 4U))));
 1035              		.loc 1 495 10
 1036 0004 034B     		ldr	r3, .L70
 1037 0006 1B68     		ldr	r3, [r3]
 496:Drivers/STM32H7xx_HAL_Driver/Src/stm32h7xx_hal.c **** }
 1038              		.loc 1 496 1
 1039 0008 1846     		mov	r0, r3
 1040 000a BD46     		mov	sp, r7
 1041              	.LCFI72:
 1042              		.cfi_def_cfa_register 13
 1043              		@ sp needed
 1044 000c 5DF8047B 		ldr	r7, [sp], #4
 1045              	.LCFI73:
 1046              		.cfi_restore 7
 1047              		.cfi_def_cfa_offset 0
 1048 0010 7047     		bx	lr
 1049              	.L71:
 1050 0012 00BF     		.align	2
 1051              	.L70:
 1052 0014 04E8F11F 		.word	535947268
 1053              		.cfi_endproc
 1054              	.LFE161:
 1056              		.section	.text.HAL_GetUIDw2,"ax",%progbits
 1057              		.align	1
 1058              		.global	HAL_GetUIDw2
 1059              		.syntax unified
 1060              		.thumb
 1061              		.thumb_func
 1063              	HAL_GetUIDw2:
 1064              	.LFB162:
 497:Drivers/STM32H7xx_HAL_Driver/Src/stm32h7xx_hal.c **** 
 498:Drivers/STM32H7xx_HAL_Driver/Src/stm32h7xx_hal.c **** /**
 499:Drivers/STM32H7xx_HAL_Driver/Src/stm32h7xx_hal.c ****   * @brief  Return the third word of the unique device identifier (UID based on 96 bits)
 500:Drivers/STM32H7xx_HAL_Driver/Src/stm32h7xx_hal.c ****   * @retval Device identifier
 501:Drivers/STM32H7xx_HAL_Driver/Src/stm32h7xx_hal.c ****   */
 502:Drivers/STM32H7xx_HAL_Driver/Src/stm32h7xx_hal.c **** uint32_t HAL_GetUIDw2(void)
 503:Drivers/STM32H7xx_HAL_Driver/Src/stm32h7xx_hal.c **** {
 1065              		.loc 1 503 1
 1066              		.cfi_startproc
 1067              		@ args = 0, pretend = 0, frame = 0
 1068              		@ frame_needed = 1, uses_anonymous_args = 0
 1069              		@ link register save eliminated.
 1070 0000 80B4     		push	{r7}
 1071              	.LCFI74:
 1072              		.cfi_def_cfa_offset 4
 1073              		.cfi_offset 7, -4
 1074 0002 00AF     		add	r7, sp, #0
 1075              	.LCFI75:
 1076              		.cfi_def_cfa_register 7
 504:Drivers/STM32H7xx_HAL_Driver/Src/stm32h7xx_hal.c ****   return(READ_REG(*((uint32_t *)(UID_BASE + 8U))));
 1077              		.loc 1 504 10
ARM GAS  C:\Users\23671\AppData\Local\Temp\cc8GjZ48.s 			page 28


 1078 0004 034B     		ldr	r3, .L74
 1079 0006 1B68     		ldr	r3, [r3]
 505:Drivers/STM32H7xx_HAL_Driver/Src/stm32h7xx_hal.c **** }
 1080              		.loc 1 505 1
 1081 0008 1846     		mov	r0, r3
 1082 000a BD46     		mov	sp, r7
 1083              	.LCFI76:
 1084              		.cfi_def_cfa_register 13
 1085              		@ sp needed
 1086 000c 5DF8047B 		ldr	r7, [sp], #4
 1087              	.LCFI77:
 1088              		.cfi_restore 7
 1089              		.cfi_def_cfa_offset 0
 1090 0010 7047     		bx	lr
 1091              	.L75:
 1092 0012 00BF     		.align	2
 1093              	.L74:
 1094 0014 08E8F11F 		.word	535947272
 1095              		.cfi_endproc
 1096              	.LFE162:
 1098              		.section	.text.HAL_SYSCFG_VREFBUF_VoltageScalingConfig,"ax",%progbits
 1099              		.align	1
 1100              		.global	HAL_SYSCFG_VREFBUF_VoltageScalingConfig
 1101              		.syntax unified
 1102              		.thumb
 1103              		.thumb_func
 1105              	HAL_SYSCFG_VREFBUF_VoltageScalingConfig:
 1106              	.LFB163:
 506:Drivers/STM32H7xx_HAL_Driver/Src/stm32h7xx_hal.c **** 
 507:Drivers/STM32H7xx_HAL_Driver/Src/stm32h7xx_hal.c **** /**
 508:Drivers/STM32H7xx_HAL_Driver/Src/stm32h7xx_hal.c ****   * @brief Configure the internal voltage reference buffer voltage scale.
 509:Drivers/STM32H7xx_HAL_Driver/Src/stm32h7xx_hal.c ****   * @param VoltageScaling  specifies the output voltage to achieve
 510:Drivers/STM32H7xx_HAL_Driver/Src/stm32h7xx_hal.c ****   *          This parameter can be one of the following values:
 511:Drivers/STM32H7xx_HAL_Driver/Src/stm32h7xx_hal.c ****   *            @arg SYSCFG_VREFBUF_VOLTAGE_SCALE0: VREF_OUT1 around 2.5 V.
 512:Drivers/STM32H7xx_HAL_Driver/Src/stm32h7xx_hal.c ****   *                                                This requires VDDA equal to or higher than 2.8 V
 513:Drivers/STM32H7xx_HAL_Driver/Src/stm32h7xx_hal.c ****   *            @arg SYSCFG_VREFBUF_VOLTAGE_SCALE1: VREF_OUT2 around 2.048 V.
 514:Drivers/STM32H7xx_HAL_Driver/Src/stm32h7xx_hal.c ****   *                                                This requires VDDA equal to or higher than 2.4 V
 515:Drivers/STM32H7xx_HAL_Driver/Src/stm32h7xx_hal.c ****   *            @arg SYSCFG_VREFBUF_VOLTAGE_SCALE2: VREF_OUT3 around 1.8 V.
 516:Drivers/STM32H7xx_HAL_Driver/Src/stm32h7xx_hal.c ****   *                                                This requires VDDA equal to or higher than 2.1 V
 517:Drivers/STM32H7xx_HAL_Driver/Src/stm32h7xx_hal.c ****   *            @arg SYSCFG_VREFBUF_VOLTAGE_SCALE3: VREF_OUT4 around 1.5 V.
 518:Drivers/STM32H7xx_HAL_Driver/Src/stm32h7xx_hal.c ****   *                                                This requires VDDA equal to or higher than 1.8 V
 519:Drivers/STM32H7xx_HAL_Driver/Src/stm32h7xx_hal.c ****   * @retval None
 520:Drivers/STM32H7xx_HAL_Driver/Src/stm32h7xx_hal.c ****   */
 521:Drivers/STM32H7xx_HAL_Driver/Src/stm32h7xx_hal.c **** void HAL_SYSCFG_VREFBUF_VoltageScalingConfig(uint32_t VoltageScaling)
 522:Drivers/STM32H7xx_HAL_Driver/Src/stm32h7xx_hal.c **** {
 1107              		.loc 1 522 1
 1108              		.cfi_startproc
 1109              		@ args = 0, pretend = 0, frame = 8
 1110              		@ frame_needed = 1, uses_anonymous_args = 0
 1111              		@ link register save eliminated.
 1112 0000 80B4     		push	{r7}
 1113              	.LCFI78:
 1114              		.cfi_def_cfa_offset 4
 1115              		.cfi_offset 7, -4
 1116 0002 83B0     		sub	sp, sp, #12
 1117              	.LCFI79:
 1118              		.cfi_def_cfa_offset 16
ARM GAS  C:\Users\23671\AppData\Local\Temp\cc8GjZ48.s 			page 29


 1119 0004 00AF     		add	r7, sp, #0
 1120              	.LCFI80:
 1121              		.cfi_def_cfa_register 7
 1122 0006 7860     		str	r0, [r7, #4]
 523:Drivers/STM32H7xx_HAL_Driver/Src/stm32h7xx_hal.c ****   /* Check the parameters */
 524:Drivers/STM32H7xx_HAL_Driver/Src/stm32h7xx_hal.c ****   assert_param(IS_SYSCFG_VREFBUF_VOLTAGE_SCALE(VoltageScaling));
 525:Drivers/STM32H7xx_HAL_Driver/Src/stm32h7xx_hal.c **** 
 526:Drivers/STM32H7xx_HAL_Driver/Src/stm32h7xx_hal.c ****   MODIFY_REG(VREFBUF->CSR, VREFBUF_CSR_VRS, VoltageScaling);
 1123              		.loc 1 526 3
 1124 0008 064B     		ldr	r3, .L77
 1125 000a 1B68     		ldr	r3, [r3]
 1126 000c 23F07002 		bic	r2, r3, #112
 1127 0010 0449     		ldr	r1, .L77
 1128 0012 7B68     		ldr	r3, [r7, #4]
 1129 0014 1343     		orrs	r3, r3, r2
 1130 0016 0B60     		str	r3, [r1]
 527:Drivers/STM32H7xx_HAL_Driver/Src/stm32h7xx_hal.c **** }
 1131              		.loc 1 527 1
 1132 0018 00BF     		nop
 1133 001a 0C37     		adds	r7, r7, #12
 1134              	.LCFI81:
 1135              		.cfi_def_cfa_offset 4
 1136 001c BD46     		mov	sp, r7
 1137              	.LCFI82:
 1138              		.cfi_def_cfa_register 13
 1139              		@ sp needed
 1140 001e 5DF8047B 		ldr	r7, [sp], #4
 1141              	.LCFI83:
 1142              		.cfi_restore 7
 1143              		.cfi_def_cfa_offset 0
 1144 0022 7047     		bx	lr
 1145              	.L78:
 1146              		.align	2
 1147              	.L77:
 1148 0024 003C0058 		.word	1476410368
 1149              		.cfi_endproc
 1150              	.LFE163:
 1152              		.section	.text.HAL_SYSCFG_VREFBUF_HighImpedanceConfig,"ax",%progbits
 1153              		.align	1
 1154              		.global	HAL_SYSCFG_VREFBUF_HighImpedanceConfig
 1155              		.syntax unified
 1156              		.thumb
 1157              		.thumb_func
 1159              	HAL_SYSCFG_VREFBUF_HighImpedanceConfig:
 1160              	.LFB164:
 528:Drivers/STM32H7xx_HAL_Driver/Src/stm32h7xx_hal.c **** 
 529:Drivers/STM32H7xx_HAL_Driver/Src/stm32h7xx_hal.c **** /**
 530:Drivers/STM32H7xx_HAL_Driver/Src/stm32h7xx_hal.c ****   * @brief Configure the internal voltage reference buffer high impedance mode.
 531:Drivers/STM32H7xx_HAL_Driver/Src/stm32h7xx_hal.c ****   * @param Mode  specifies the high impedance mode
 532:Drivers/STM32H7xx_HAL_Driver/Src/stm32h7xx_hal.c ****   *          This parameter can be one of the following values:
 533:Drivers/STM32H7xx_HAL_Driver/Src/stm32h7xx_hal.c ****   *            @arg SYSCFG_VREFBUF_HIGH_IMPEDANCE_DISABLE: VREF+ pin is internally connect to VREFI
 534:Drivers/STM32H7xx_HAL_Driver/Src/stm32h7xx_hal.c ****   *            @arg SYSCFG_VREFBUF_HIGH_IMPEDANCE_ENABLE: VREF+ pin is high impedance.
 535:Drivers/STM32H7xx_HAL_Driver/Src/stm32h7xx_hal.c ****   * @retval None
 536:Drivers/STM32H7xx_HAL_Driver/Src/stm32h7xx_hal.c ****   */
 537:Drivers/STM32H7xx_HAL_Driver/Src/stm32h7xx_hal.c **** void HAL_SYSCFG_VREFBUF_HighImpedanceConfig(uint32_t Mode)
 538:Drivers/STM32H7xx_HAL_Driver/Src/stm32h7xx_hal.c **** {
 1161              		.loc 1 538 1
ARM GAS  C:\Users\23671\AppData\Local\Temp\cc8GjZ48.s 			page 30


 1162              		.cfi_startproc
 1163              		@ args = 0, pretend = 0, frame = 8
 1164              		@ frame_needed = 1, uses_anonymous_args = 0
 1165              		@ link register save eliminated.
 1166 0000 80B4     		push	{r7}
 1167              	.LCFI84:
 1168              		.cfi_def_cfa_offset 4
 1169              		.cfi_offset 7, -4
 1170 0002 83B0     		sub	sp, sp, #12
 1171              	.LCFI85:
 1172              		.cfi_def_cfa_offset 16
 1173 0004 00AF     		add	r7, sp, #0
 1174              	.LCFI86:
 1175              		.cfi_def_cfa_register 7
 1176 0006 7860     		str	r0, [r7, #4]
 539:Drivers/STM32H7xx_HAL_Driver/Src/stm32h7xx_hal.c ****   /* Check the parameters */
 540:Drivers/STM32H7xx_HAL_Driver/Src/stm32h7xx_hal.c ****   assert_param(IS_SYSCFG_VREFBUF_HIGH_IMPEDANCE(Mode));
 541:Drivers/STM32H7xx_HAL_Driver/Src/stm32h7xx_hal.c **** 
 542:Drivers/STM32H7xx_HAL_Driver/Src/stm32h7xx_hal.c ****   MODIFY_REG(VREFBUF->CSR, VREFBUF_CSR_HIZ, Mode);
 1177              		.loc 1 542 3
 1178 0008 064B     		ldr	r3, .L80
 1179 000a 1B68     		ldr	r3, [r3]
 1180 000c 23F00202 		bic	r2, r3, #2
 1181 0010 0449     		ldr	r1, .L80
 1182 0012 7B68     		ldr	r3, [r7, #4]
 1183 0014 1343     		orrs	r3, r3, r2
 1184 0016 0B60     		str	r3, [r1]
 543:Drivers/STM32H7xx_HAL_Driver/Src/stm32h7xx_hal.c **** }
 1185              		.loc 1 543 1
 1186 0018 00BF     		nop
 1187 001a 0C37     		adds	r7, r7, #12
 1188              	.LCFI87:
 1189              		.cfi_def_cfa_offset 4
 1190 001c BD46     		mov	sp, r7
 1191              	.LCFI88:
 1192              		.cfi_def_cfa_register 13
 1193              		@ sp needed
 1194 001e 5DF8047B 		ldr	r7, [sp], #4
 1195              	.LCFI89:
 1196              		.cfi_restore 7
 1197              		.cfi_def_cfa_offset 0
 1198 0022 7047     		bx	lr
 1199              	.L81:
 1200              		.align	2
 1201              	.L80:
 1202 0024 003C0058 		.word	1476410368
 1203              		.cfi_endproc
 1204              	.LFE164:
 1206              		.section	.text.HAL_SYSCFG_VREFBUF_TrimmingConfig,"ax",%progbits
 1207              		.align	1
 1208              		.global	HAL_SYSCFG_VREFBUF_TrimmingConfig
 1209              		.syntax unified
 1210              		.thumb
 1211              		.thumb_func
 1213              	HAL_SYSCFG_VREFBUF_TrimmingConfig:
 1214              	.LFB165:
 544:Drivers/STM32H7xx_HAL_Driver/Src/stm32h7xx_hal.c **** 
ARM GAS  C:\Users\23671\AppData\Local\Temp\cc8GjZ48.s 			page 31


 545:Drivers/STM32H7xx_HAL_Driver/Src/stm32h7xx_hal.c **** /**
 546:Drivers/STM32H7xx_HAL_Driver/Src/stm32h7xx_hal.c ****   * @brief  Tune the Internal Voltage Reference buffer (VREFBUF).
 547:Drivers/STM32H7xx_HAL_Driver/Src/stm32h7xx_hal.c ****   * @retval None
 548:Drivers/STM32H7xx_HAL_Driver/Src/stm32h7xx_hal.c ****   */
 549:Drivers/STM32H7xx_HAL_Driver/Src/stm32h7xx_hal.c **** void HAL_SYSCFG_VREFBUF_TrimmingConfig(uint32_t TrimmingValue)
 550:Drivers/STM32H7xx_HAL_Driver/Src/stm32h7xx_hal.c **** {
 1215              		.loc 1 550 1
 1216              		.cfi_startproc
 1217              		@ args = 0, pretend = 0, frame = 8
 1218              		@ frame_needed = 1, uses_anonymous_args = 0
 1219              		@ link register save eliminated.
 1220 0000 80B4     		push	{r7}
 1221              	.LCFI90:
 1222              		.cfi_def_cfa_offset 4
 1223              		.cfi_offset 7, -4
 1224 0002 83B0     		sub	sp, sp, #12
 1225              	.LCFI91:
 1226              		.cfi_def_cfa_offset 16
 1227 0004 00AF     		add	r7, sp, #0
 1228              	.LCFI92:
 1229              		.cfi_def_cfa_register 7
 1230 0006 7860     		str	r0, [r7, #4]
 551:Drivers/STM32H7xx_HAL_Driver/Src/stm32h7xx_hal.c ****   /* Check the parameters */
 552:Drivers/STM32H7xx_HAL_Driver/Src/stm32h7xx_hal.c ****   assert_param(IS_SYSCFG_VREFBUF_TRIMMING(TrimmingValue));
 553:Drivers/STM32H7xx_HAL_Driver/Src/stm32h7xx_hal.c **** 
 554:Drivers/STM32H7xx_HAL_Driver/Src/stm32h7xx_hal.c ****   MODIFY_REG(VREFBUF->CCR, VREFBUF_CCR_TRIM, TrimmingValue);
 1231              		.loc 1 554 3
 1232 0008 064B     		ldr	r3, .L83
 1233 000a 5B68     		ldr	r3, [r3, #4]
 1234 000c 23F03F02 		bic	r2, r3, #63
 1235 0010 0449     		ldr	r1, .L83
 1236 0012 7B68     		ldr	r3, [r7, #4]
 1237 0014 1343     		orrs	r3, r3, r2
 1238 0016 4B60     		str	r3, [r1, #4]
 555:Drivers/STM32H7xx_HAL_Driver/Src/stm32h7xx_hal.c **** }
 1239              		.loc 1 555 1
 1240 0018 00BF     		nop
 1241 001a 0C37     		adds	r7, r7, #12
 1242              	.LCFI93:
 1243              		.cfi_def_cfa_offset 4
 1244 001c BD46     		mov	sp, r7
 1245              	.LCFI94:
 1246              		.cfi_def_cfa_register 13
 1247              		@ sp needed
 1248 001e 5DF8047B 		ldr	r7, [sp], #4
 1249              	.LCFI95:
 1250              		.cfi_restore 7
 1251              		.cfi_def_cfa_offset 0
 1252 0022 7047     		bx	lr
 1253              	.L84:
 1254              		.align	2
 1255              	.L83:
 1256 0024 003C0058 		.word	1476410368
 1257              		.cfi_endproc
 1258              	.LFE165:
 1260              		.section	.text.HAL_SYSCFG_EnableVREFBUF,"ax",%progbits
 1261              		.align	1
ARM GAS  C:\Users\23671\AppData\Local\Temp\cc8GjZ48.s 			page 32


 1262              		.global	HAL_SYSCFG_EnableVREFBUF
 1263              		.syntax unified
 1264              		.thumb
 1265              		.thumb_func
 1267              	HAL_SYSCFG_EnableVREFBUF:
 1268              	.LFB166:
 556:Drivers/STM32H7xx_HAL_Driver/Src/stm32h7xx_hal.c **** 
 557:Drivers/STM32H7xx_HAL_Driver/Src/stm32h7xx_hal.c **** /**
 558:Drivers/STM32H7xx_HAL_Driver/Src/stm32h7xx_hal.c ****   * @brief  Enable the Internal Voltage Reference buffer (VREFBUF).
 559:Drivers/STM32H7xx_HAL_Driver/Src/stm32h7xx_hal.c ****   * @retval HAL_OK/HAL_TIMEOUT
 560:Drivers/STM32H7xx_HAL_Driver/Src/stm32h7xx_hal.c ****   */
 561:Drivers/STM32H7xx_HAL_Driver/Src/stm32h7xx_hal.c **** HAL_StatusTypeDef HAL_SYSCFG_EnableVREFBUF(void)
 562:Drivers/STM32H7xx_HAL_Driver/Src/stm32h7xx_hal.c **** {
 1269              		.loc 1 562 1
 1270              		.cfi_startproc
 1271              		@ args = 0, pretend = 0, frame = 8
 1272              		@ frame_needed = 1, uses_anonymous_args = 0
 1273 0000 80B5     		push	{r7, lr}
 1274              	.LCFI96:
 1275              		.cfi_def_cfa_offset 8
 1276              		.cfi_offset 7, -8
 1277              		.cfi_offset 14, -4
 1278 0002 82B0     		sub	sp, sp, #8
 1279              	.LCFI97:
 1280              		.cfi_def_cfa_offset 16
 1281 0004 00AF     		add	r7, sp, #0
 1282              	.LCFI98:
 1283              		.cfi_def_cfa_register 7
 563:Drivers/STM32H7xx_HAL_Driver/Src/stm32h7xx_hal.c ****   uint32_t  tickstart;
 564:Drivers/STM32H7xx_HAL_Driver/Src/stm32h7xx_hal.c **** 
 565:Drivers/STM32H7xx_HAL_Driver/Src/stm32h7xx_hal.c ****   SET_BIT(VREFBUF->CSR, VREFBUF_CSR_ENVR);
 1284              		.loc 1 565 3
 1285 0006 0F4B     		ldr	r3, .L89
 1286 0008 1B68     		ldr	r3, [r3]
 1287 000a 0E4A     		ldr	r2, .L89
 1288 000c 43F00103 		orr	r3, r3, #1
 1289 0010 1360     		str	r3, [r2]
 566:Drivers/STM32H7xx_HAL_Driver/Src/stm32h7xx_hal.c **** 
 567:Drivers/STM32H7xx_HAL_Driver/Src/stm32h7xx_hal.c ****   /* Get Start Tick*/
 568:Drivers/STM32H7xx_HAL_Driver/Src/stm32h7xx_hal.c ****   tickstart = HAL_GetTick();
 1290              		.loc 1 568 15
 1291 0012 FFF7FEFF 		bl	HAL_GetTick
 1292 0016 7860     		str	r0, [r7, #4]
 569:Drivers/STM32H7xx_HAL_Driver/Src/stm32h7xx_hal.c **** 
 570:Drivers/STM32H7xx_HAL_Driver/Src/stm32h7xx_hal.c ****   /* Wait for VRR bit  */
 571:Drivers/STM32H7xx_HAL_Driver/Src/stm32h7xx_hal.c ****   while(READ_BIT(VREFBUF->CSR, VREFBUF_CSR_VRR) == 0UL)
 1293              		.loc 1 571 8
 1294 0018 08E0     		b	.L86
 1295              	.L88:
 572:Drivers/STM32H7xx_HAL_Driver/Src/stm32h7xx_hal.c ****   {
 573:Drivers/STM32H7xx_HAL_Driver/Src/stm32h7xx_hal.c ****     if((HAL_GetTick() - tickstart) > VREFBUF_TIMEOUT_VALUE)
 1296              		.loc 1 573 9
 1297 001a FFF7FEFF 		bl	HAL_GetTick
 1298 001e 0246     		mov	r2, r0
 1299              		.loc 1 573 23 discriminator 1
 1300 0020 7B68     		ldr	r3, [r7, #4]
 1301 0022 D31A     		subs	r3, r2, r3
ARM GAS  C:\Users\23671\AppData\Local\Temp\cc8GjZ48.s 			page 33


 1302              		.loc 1 573 7 discriminator 1
 1303 0024 0A2B     		cmp	r3, #10
 1304 0026 01D9     		bls	.L86
 574:Drivers/STM32H7xx_HAL_Driver/Src/stm32h7xx_hal.c ****     {
 575:Drivers/STM32H7xx_HAL_Driver/Src/stm32h7xx_hal.c ****       return HAL_TIMEOUT;
 1305              		.loc 1 575 14
 1306 0028 0323     		movs	r3, #3
 1307 002a 06E0     		b	.L87
 1308              	.L86:
 571:Drivers/STM32H7xx_HAL_Driver/Src/stm32h7xx_hal.c ****   {
 1309              		.loc 1 571 9
 1310 002c 054B     		ldr	r3, .L89
 1311 002e 1B68     		ldr	r3, [r3]
 1312 0030 03F00803 		and	r3, r3, #8
 571:Drivers/STM32H7xx_HAL_Driver/Src/stm32h7xx_hal.c ****   {
 1313              		.loc 1 571 49
 1314 0034 002B     		cmp	r3, #0
 1315 0036 F0D0     		beq	.L88
 576:Drivers/STM32H7xx_HAL_Driver/Src/stm32h7xx_hal.c ****     }
 577:Drivers/STM32H7xx_HAL_Driver/Src/stm32h7xx_hal.c ****   }
 578:Drivers/STM32H7xx_HAL_Driver/Src/stm32h7xx_hal.c **** 
 579:Drivers/STM32H7xx_HAL_Driver/Src/stm32h7xx_hal.c ****   return HAL_OK;
 1316              		.loc 1 579 10
 1317 0038 0023     		movs	r3, #0
 1318              	.L87:
 580:Drivers/STM32H7xx_HAL_Driver/Src/stm32h7xx_hal.c **** }
 1319              		.loc 1 580 1
 1320 003a 1846     		mov	r0, r3
 1321 003c 0837     		adds	r7, r7, #8
 1322              	.LCFI99:
 1323              		.cfi_def_cfa_offset 8
 1324 003e BD46     		mov	sp, r7
 1325              	.LCFI100:
 1326              		.cfi_def_cfa_register 13
 1327              		@ sp needed
 1328 0040 80BD     		pop	{r7, pc}
 1329              	.L90:
 1330 0042 00BF     		.align	2
 1331              	.L89:
 1332 0044 003C0058 		.word	1476410368
 1333              		.cfi_endproc
 1334              	.LFE166:
 1336              		.section	.text.HAL_SYSCFG_DisableVREFBUF,"ax",%progbits
 1337              		.align	1
 1338              		.global	HAL_SYSCFG_DisableVREFBUF
 1339              		.syntax unified
 1340              		.thumb
 1341              		.thumb_func
 1343              	HAL_SYSCFG_DisableVREFBUF:
 1344              	.LFB167:
 581:Drivers/STM32H7xx_HAL_Driver/Src/stm32h7xx_hal.c **** 
 582:Drivers/STM32H7xx_HAL_Driver/Src/stm32h7xx_hal.c **** /**
 583:Drivers/STM32H7xx_HAL_Driver/Src/stm32h7xx_hal.c ****   * @brief  Disable the Internal Voltage Reference buffer (VREFBUF).
 584:Drivers/STM32H7xx_HAL_Driver/Src/stm32h7xx_hal.c ****   *
 585:Drivers/STM32H7xx_HAL_Driver/Src/stm32h7xx_hal.c ****   * @retval None
 586:Drivers/STM32H7xx_HAL_Driver/Src/stm32h7xx_hal.c ****   */
 587:Drivers/STM32H7xx_HAL_Driver/Src/stm32h7xx_hal.c **** void HAL_SYSCFG_DisableVREFBUF(void)
ARM GAS  C:\Users\23671\AppData\Local\Temp\cc8GjZ48.s 			page 34


 588:Drivers/STM32H7xx_HAL_Driver/Src/stm32h7xx_hal.c **** {
 1345              		.loc 1 588 1
 1346              		.cfi_startproc
 1347              		@ args = 0, pretend = 0, frame = 0
 1348              		@ frame_needed = 1, uses_anonymous_args = 0
 1349              		@ link register save eliminated.
 1350 0000 80B4     		push	{r7}
 1351              	.LCFI101:
 1352              		.cfi_def_cfa_offset 4
 1353              		.cfi_offset 7, -4
 1354 0002 00AF     		add	r7, sp, #0
 1355              	.LCFI102:
 1356              		.cfi_def_cfa_register 7
 589:Drivers/STM32H7xx_HAL_Driver/Src/stm32h7xx_hal.c ****   CLEAR_BIT(VREFBUF->CSR, VREFBUF_CSR_ENVR);
 1357              		.loc 1 589 3
 1358 0004 054B     		ldr	r3, .L92
 1359 0006 1B68     		ldr	r3, [r3]
 1360 0008 044A     		ldr	r2, .L92
 1361 000a 23F00103 		bic	r3, r3, #1
 1362 000e 1360     		str	r3, [r2]
 590:Drivers/STM32H7xx_HAL_Driver/Src/stm32h7xx_hal.c **** }
 1363              		.loc 1 590 1
 1364 0010 00BF     		nop
 1365 0012 BD46     		mov	sp, r7
 1366              	.LCFI103:
 1367              		.cfi_def_cfa_register 13
 1368              		@ sp needed
 1369 0014 5DF8047B 		ldr	r7, [sp], #4
 1370              	.LCFI104:
 1371              		.cfi_restore 7
 1372              		.cfi_def_cfa_offset 0
 1373 0018 7047     		bx	lr
 1374              	.L93:
 1375 001a 00BF     		.align	2
 1376              	.L92:
 1377 001c 003C0058 		.word	1476410368
 1378              		.cfi_endproc
 1379              	.LFE167:
 1381              		.section	.text.HAL_SYSCFG_ETHInterfaceSelect,"ax",%progbits
 1382              		.align	1
 1383              		.global	HAL_SYSCFG_ETHInterfaceSelect
 1384              		.syntax unified
 1385              		.thumb
 1386              		.thumb_func
 1388              	HAL_SYSCFG_ETHInterfaceSelect:
 1389              	.LFB168:
 591:Drivers/STM32H7xx_HAL_Driver/Src/stm32h7xx_hal.c **** 
 592:Drivers/STM32H7xx_HAL_Driver/Src/stm32h7xx_hal.c **** #if defined(SYSCFG_PMCR_EPIS_SEL)
 593:Drivers/STM32H7xx_HAL_Driver/Src/stm32h7xx_hal.c **** /**
 594:Drivers/STM32H7xx_HAL_Driver/Src/stm32h7xx_hal.c ****   * @brief  Ethernet PHY Interface Selection either MII or RMII
 595:Drivers/STM32H7xx_HAL_Driver/Src/stm32h7xx_hal.c ****   * @param  SYSCFG_ETHInterface: Selects the Ethernet PHY interface
 596:Drivers/STM32H7xx_HAL_Driver/Src/stm32h7xx_hal.c ****   *   This parameter can be one of the following values:
 597:Drivers/STM32H7xx_HAL_Driver/Src/stm32h7xx_hal.c ****   *   @arg SYSCFG_ETH_MII : Select the Media Independent Interface
 598:Drivers/STM32H7xx_HAL_Driver/Src/stm32h7xx_hal.c ****   *   @arg SYSCFG_ETH_RMII: Select the Reduced Media Independent Interface
 599:Drivers/STM32H7xx_HAL_Driver/Src/stm32h7xx_hal.c ****   * @retval None
 600:Drivers/STM32H7xx_HAL_Driver/Src/stm32h7xx_hal.c ****   */
 601:Drivers/STM32H7xx_HAL_Driver/Src/stm32h7xx_hal.c **** void HAL_SYSCFG_ETHInterfaceSelect(uint32_t SYSCFG_ETHInterface)
ARM GAS  C:\Users\23671\AppData\Local\Temp\cc8GjZ48.s 			page 35


 602:Drivers/STM32H7xx_HAL_Driver/Src/stm32h7xx_hal.c **** {
 1390              		.loc 1 602 1
 1391              		.cfi_startproc
 1392              		@ args = 0, pretend = 0, frame = 8
 1393              		@ frame_needed = 1, uses_anonymous_args = 0
 1394              		@ link register save eliminated.
 1395 0000 80B4     		push	{r7}
 1396              	.LCFI105:
 1397              		.cfi_def_cfa_offset 4
 1398              		.cfi_offset 7, -4
 1399 0002 83B0     		sub	sp, sp, #12
 1400              	.LCFI106:
 1401              		.cfi_def_cfa_offset 16
 1402 0004 00AF     		add	r7, sp, #0
 1403              	.LCFI107:
 1404              		.cfi_def_cfa_register 7
 1405 0006 7860     		str	r0, [r7, #4]
 603:Drivers/STM32H7xx_HAL_Driver/Src/stm32h7xx_hal.c ****   /* Check the parameter */
 604:Drivers/STM32H7xx_HAL_Driver/Src/stm32h7xx_hal.c ****   assert_param(IS_SYSCFG_ETHERNET_CONFIG(SYSCFG_ETHInterface));
 605:Drivers/STM32H7xx_HAL_Driver/Src/stm32h7xx_hal.c **** 
 606:Drivers/STM32H7xx_HAL_Driver/Src/stm32h7xx_hal.c ****   MODIFY_REG(SYSCFG->PMCR, SYSCFG_PMCR_EPIS_SEL, (uint32_t)(SYSCFG_ETHInterface));
 1406              		.loc 1 606 3
 1407 0008 064B     		ldr	r3, .L95
 1408 000a 5B68     		ldr	r3, [r3, #4]
 1409 000c 23F46002 		bic	r2, r3, #14680064
 1410 0010 0449     		ldr	r1, .L95
 1411 0012 7B68     		ldr	r3, [r7, #4]
 1412 0014 1343     		orrs	r3, r3, r2
 1413 0016 4B60     		str	r3, [r1, #4]
 607:Drivers/STM32H7xx_HAL_Driver/Src/stm32h7xx_hal.c **** }
 1414              		.loc 1 607 1
 1415 0018 00BF     		nop
 1416 001a 0C37     		adds	r7, r7, #12
 1417              	.LCFI108:
 1418              		.cfi_def_cfa_offset 4
 1419 001c BD46     		mov	sp, r7
 1420              	.LCFI109:
 1421              		.cfi_def_cfa_register 13
 1422              		@ sp needed
 1423 001e 5DF8047B 		ldr	r7, [sp], #4
 1424              	.LCFI110:
 1425              		.cfi_restore 7
 1426              		.cfi_def_cfa_offset 0
 1427 0022 7047     		bx	lr
 1428              	.L96:
 1429              		.align	2
 1430              	.L95:
 1431 0024 00040058 		.word	1476396032
 1432              		.cfi_endproc
 1433              	.LFE168:
 1435              		.section	.text.HAL_SYSCFG_AnalogSwitchConfig,"ax",%progbits
 1436              		.align	1
 1437              		.global	HAL_SYSCFG_AnalogSwitchConfig
 1438              		.syntax unified
 1439              		.thumb
 1440              		.thumb_func
 1442              	HAL_SYSCFG_AnalogSwitchConfig:
ARM GAS  C:\Users\23671\AppData\Local\Temp\cc8GjZ48.s 			page 36


 1443              	.LFB169:
 608:Drivers/STM32H7xx_HAL_Driver/Src/stm32h7xx_hal.c **** #endif /* SYSCFG_PMCR_EPIS_SEL */
 609:Drivers/STM32H7xx_HAL_Driver/Src/stm32h7xx_hal.c **** 
 610:Drivers/STM32H7xx_HAL_Driver/Src/stm32h7xx_hal.c **** /**
 611:Drivers/STM32H7xx_HAL_Driver/Src/stm32h7xx_hal.c ****   * @brief  Analog Switch control for dual analog pads.
 612:Drivers/STM32H7xx_HAL_Driver/Src/stm32h7xx_hal.c ****   * @param  SYSCFG_AnalogSwitch: Selects the analog pad
 613:Drivers/STM32H7xx_HAL_Driver/Src/stm32h7xx_hal.c ****   *   This parameter can be one or a combination of the following values:
 614:Drivers/STM32H7xx_HAL_Driver/Src/stm32h7xx_hal.c ****   *   @arg SYSCFG_SWITCH_PA0 : Select PA0 analog switch
 615:Drivers/STM32H7xx_HAL_Driver/Src/stm32h7xx_hal.c ****   *   @arg SYSCFG_SWITCH_PA1:  Select PA1 analog switch
 616:Drivers/STM32H7xx_HAL_Driver/Src/stm32h7xx_hal.c ****   *   @arg SYSCFG_SWITCH_PC2 : Select PC2 analog switch
 617:Drivers/STM32H7xx_HAL_Driver/Src/stm32h7xx_hal.c ****   *   @arg SYSCFG_SWITCH_PC3:  Select PC3 analog switch
 618:Drivers/STM32H7xx_HAL_Driver/Src/stm32h7xx_hal.c ****   * @param  SYSCFG_SwitchState: Open or Close the analog switch between dual pads (PXn and PXn_C)
 619:Drivers/STM32H7xx_HAL_Driver/Src/stm32h7xx_hal.c ****   *   This parameter can be one or a combination of the following values:
 620:Drivers/STM32H7xx_HAL_Driver/Src/stm32h7xx_hal.c ****   *   @arg SYSCFG_SWITCH_PA0_OPEN
 621:Drivers/STM32H7xx_HAL_Driver/Src/stm32h7xx_hal.c ****   *   @arg SYSCFG_SWITCH_PA0_CLOSE
 622:Drivers/STM32H7xx_HAL_Driver/Src/stm32h7xx_hal.c ****   *   @arg SYSCFG_SWITCH_PA1_OPEN
 623:Drivers/STM32H7xx_HAL_Driver/Src/stm32h7xx_hal.c ****   *   @arg SYSCFG_SWITCH_PA1_CLOSE
 624:Drivers/STM32H7xx_HAL_Driver/Src/stm32h7xx_hal.c ****   *   @arg SYSCFG_SWITCH_PC2_OPEN
 625:Drivers/STM32H7xx_HAL_Driver/Src/stm32h7xx_hal.c ****   *   @arg SYSCFG_SWITCH_PC2_CLOSE
 626:Drivers/STM32H7xx_HAL_Driver/Src/stm32h7xx_hal.c ****   *   @arg SYSCFG_SWITCH_PC3_OPEN
 627:Drivers/STM32H7xx_HAL_Driver/Src/stm32h7xx_hal.c ****   *   @arg SYSCFG_SWITCH_PC3_CLOSE
 628:Drivers/STM32H7xx_HAL_Driver/Src/stm32h7xx_hal.c ****   * @retval None
 629:Drivers/STM32H7xx_HAL_Driver/Src/stm32h7xx_hal.c ****   */
 630:Drivers/STM32H7xx_HAL_Driver/Src/stm32h7xx_hal.c **** 
 631:Drivers/STM32H7xx_HAL_Driver/Src/stm32h7xx_hal.c **** void HAL_SYSCFG_AnalogSwitchConfig(uint32_t SYSCFG_AnalogSwitch , uint32_t SYSCFG_SwitchState )
 632:Drivers/STM32H7xx_HAL_Driver/Src/stm32h7xx_hal.c **** {
 1444              		.loc 1 632 1
 1445              		.cfi_startproc
 1446              		@ args = 0, pretend = 0, frame = 8
 1447              		@ frame_needed = 1, uses_anonymous_args = 0
 1448              		@ link register save eliminated.
 1449 0000 80B4     		push	{r7}
 1450              	.LCFI111:
 1451              		.cfi_def_cfa_offset 4
 1452              		.cfi_offset 7, -4
 1453 0002 83B0     		sub	sp, sp, #12
 1454              	.LCFI112:
 1455              		.cfi_def_cfa_offset 16
 1456 0004 00AF     		add	r7, sp, #0
 1457              	.LCFI113:
 1458              		.cfi_def_cfa_register 7
 1459 0006 7860     		str	r0, [r7, #4]
 1460 0008 3960     		str	r1, [r7]
 633:Drivers/STM32H7xx_HAL_Driver/Src/stm32h7xx_hal.c ****   /* Check the parameter */
 634:Drivers/STM32H7xx_HAL_Driver/Src/stm32h7xx_hal.c ****   assert_param(IS_SYSCFG_ANALOG_SWITCH(SYSCFG_AnalogSwitch));
 635:Drivers/STM32H7xx_HAL_Driver/Src/stm32h7xx_hal.c ****   assert_param(IS_SYSCFG_SWITCH_STATE(SYSCFG_SwitchState));
 636:Drivers/STM32H7xx_HAL_Driver/Src/stm32h7xx_hal.c **** 
 637:Drivers/STM32H7xx_HAL_Driver/Src/stm32h7xx_hal.c ****   MODIFY_REG(SYSCFG->PMCR, (uint32_t) SYSCFG_AnalogSwitch, (uint32_t)(SYSCFG_SwitchState));
 1461              		.loc 1 637 3
 1462 000a 074B     		ldr	r3, .L98
 1463 000c 5A68     		ldr	r2, [r3, #4]
 1464 000e 7B68     		ldr	r3, [r7, #4]
 1465 0010 DB43     		mvns	r3, r3
 1466 0012 1A40     		ands	r2, r2, r3
 1467 0014 0449     		ldr	r1, .L98
 1468 0016 3B68     		ldr	r3, [r7]
 1469 0018 1343     		orrs	r3, r3, r2
ARM GAS  C:\Users\23671\AppData\Local\Temp\cc8GjZ48.s 			page 37


 1470 001a 4B60     		str	r3, [r1, #4]
 638:Drivers/STM32H7xx_HAL_Driver/Src/stm32h7xx_hal.c **** }
 1471              		.loc 1 638 1
 1472 001c 00BF     		nop
 1473 001e 0C37     		adds	r7, r7, #12
 1474              	.LCFI114:
 1475              		.cfi_def_cfa_offset 4
 1476 0020 BD46     		mov	sp, r7
 1477              	.LCFI115:
 1478              		.cfi_def_cfa_register 13
 1479              		@ sp needed
 1480 0022 5DF8047B 		ldr	r7, [sp], #4
 1481              	.LCFI116:
 1482              		.cfi_restore 7
 1483              		.cfi_def_cfa_offset 0
 1484 0026 7047     		bx	lr
 1485              	.L99:
 1486              		.align	2
 1487              	.L98:
 1488 0028 00040058 		.word	1476396032
 1489              		.cfi_endproc
 1490              	.LFE169:
 1492              		.section	.text.HAL_SYSCFG_EnableBOOST,"ax",%progbits
 1493              		.align	1
 1494              		.global	HAL_SYSCFG_EnableBOOST
 1495              		.syntax unified
 1496              		.thumb
 1497              		.thumb_func
 1499              	HAL_SYSCFG_EnableBOOST:
 1500              	.LFB170:
 639:Drivers/STM32H7xx_HAL_Driver/Src/stm32h7xx_hal.c **** 
 640:Drivers/STM32H7xx_HAL_Driver/Src/stm32h7xx_hal.c **** #if defined(SYSCFG_PMCR_BOOSTEN)
 641:Drivers/STM32H7xx_HAL_Driver/Src/stm32h7xx_hal.c **** /**
 642:Drivers/STM32H7xx_HAL_Driver/Src/stm32h7xx_hal.c ****   * @brief  Enables the booster to reduce the total harmonic distortion of the analog
 643:Drivers/STM32H7xx_HAL_Driver/Src/stm32h7xx_hal.c ****   *         switch when the supply voltage is lower than 2.7 V.
 644:Drivers/STM32H7xx_HAL_Driver/Src/stm32h7xx_hal.c ****   * @note   Activating the booster allows to guaranty the analog switch AC performance
 645:Drivers/STM32H7xx_HAL_Driver/Src/stm32h7xx_hal.c ****   *         when the supply voltage is below 2.7 V: in this case, the analog switch
 646:Drivers/STM32H7xx_HAL_Driver/Src/stm32h7xx_hal.c ****   *         performance is the same on the full voltage range
 647:Drivers/STM32H7xx_HAL_Driver/Src/stm32h7xx_hal.c ****   * @retval None
 648:Drivers/STM32H7xx_HAL_Driver/Src/stm32h7xx_hal.c ****   */
 649:Drivers/STM32H7xx_HAL_Driver/Src/stm32h7xx_hal.c **** void HAL_SYSCFG_EnableBOOST(void)
 650:Drivers/STM32H7xx_HAL_Driver/Src/stm32h7xx_hal.c **** {
 1501              		.loc 1 650 1
 1502              		.cfi_startproc
 1503              		@ args = 0, pretend = 0, frame = 0
 1504              		@ frame_needed = 1, uses_anonymous_args = 0
 1505              		@ link register save eliminated.
 1506 0000 80B4     		push	{r7}
 1507              	.LCFI117:
 1508              		.cfi_def_cfa_offset 4
 1509              		.cfi_offset 7, -4
 1510 0002 00AF     		add	r7, sp, #0
 1511              	.LCFI118:
 1512              		.cfi_def_cfa_register 7
 651:Drivers/STM32H7xx_HAL_Driver/Src/stm32h7xx_hal.c ****  SET_BIT(SYSCFG->PMCR, SYSCFG_PMCR_BOOSTEN) ;
 1513              		.loc 1 651 2
 1514 0004 054B     		ldr	r3, .L101
ARM GAS  C:\Users\23671\AppData\Local\Temp\cc8GjZ48.s 			page 38


 1515 0006 5B68     		ldr	r3, [r3, #4]
 1516 0008 044A     		ldr	r2, .L101
 1517 000a 43F48073 		orr	r3, r3, #256
 1518 000e 5360     		str	r3, [r2, #4]
 652:Drivers/STM32H7xx_HAL_Driver/Src/stm32h7xx_hal.c **** }
 1519              		.loc 1 652 1
 1520 0010 00BF     		nop
 1521 0012 BD46     		mov	sp, r7
 1522              	.LCFI119:
 1523              		.cfi_def_cfa_register 13
 1524              		@ sp needed
 1525 0014 5DF8047B 		ldr	r7, [sp], #4
 1526              	.LCFI120:
 1527              		.cfi_restore 7
 1528              		.cfi_def_cfa_offset 0
 1529 0018 7047     		bx	lr
 1530              	.L102:
 1531 001a 00BF     		.align	2
 1532              	.L101:
 1533 001c 00040058 		.word	1476396032
 1534              		.cfi_endproc
 1535              	.LFE170:
 1537              		.section	.text.HAL_SYSCFG_DisableBOOST,"ax",%progbits
 1538              		.align	1
 1539              		.global	HAL_SYSCFG_DisableBOOST
 1540              		.syntax unified
 1541              		.thumb
 1542              		.thumb_func
 1544              	HAL_SYSCFG_DisableBOOST:
 1545              	.LFB171:
 653:Drivers/STM32H7xx_HAL_Driver/Src/stm32h7xx_hal.c **** 
 654:Drivers/STM32H7xx_HAL_Driver/Src/stm32h7xx_hal.c **** /**
 655:Drivers/STM32H7xx_HAL_Driver/Src/stm32h7xx_hal.c ****   * @brief  Disables the booster
 656:Drivers/STM32H7xx_HAL_Driver/Src/stm32h7xx_hal.c ****   * @note   Activating the booster allows to guaranty the analog switch AC performance
 657:Drivers/STM32H7xx_HAL_Driver/Src/stm32h7xx_hal.c ****   *         when the supply voltage is below 2.7 V: in this case, the analog switch
 658:Drivers/STM32H7xx_HAL_Driver/Src/stm32h7xx_hal.c ****   *         performance is the same on the full voltage range
 659:Drivers/STM32H7xx_HAL_Driver/Src/stm32h7xx_hal.c ****   * @retval None
 660:Drivers/STM32H7xx_HAL_Driver/Src/stm32h7xx_hal.c ****   */
 661:Drivers/STM32H7xx_HAL_Driver/Src/stm32h7xx_hal.c **** void HAL_SYSCFG_DisableBOOST(void)
 662:Drivers/STM32H7xx_HAL_Driver/Src/stm32h7xx_hal.c **** {
 1546              		.loc 1 662 1
 1547              		.cfi_startproc
 1548              		@ args = 0, pretend = 0, frame = 0
 1549              		@ frame_needed = 1, uses_anonymous_args = 0
 1550              		@ link register save eliminated.
 1551 0000 80B4     		push	{r7}
 1552              	.LCFI121:
 1553              		.cfi_def_cfa_offset 4
 1554              		.cfi_offset 7, -4
 1555 0002 00AF     		add	r7, sp, #0
 1556              	.LCFI122:
 1557              		.cfi_def_cfa_register 7
 663:Drivers/STM32H7xx_HAL_Driver/Src/stm32h7xx_hal.c ****  CLEAR_BIT(SYSCFG->PMCR, SYSCFG_PMCR_BOOSTEN) ;
 1558              		.loc 1 663 2
 1559 0004 054B     		ldr	r3, .L104
 1560 0006 5B68     		ldr	r3, [r3, #4]
 1561 0008 044A     		ldr	r2, .L104
ARM GAS  C:\Users\23671\AppData\Local\Temp\cc8GjZ48.s 			page 39


 1562 000a 23F48073 		bic	r3, r3, #256
 1563 000e 5360     		str	r3, [r2, #4]
 664:Drivers/STM32H7xx_HAL_Driver/Src/stm32h7xx_hal.c **** }
 1564              		.loc 1 664 1
 1565 0010 00BF     		nop
 1566 0012 BD46     		mov	sp, r7
 1567              	.LCFI123:
 1568              		.cfi_def_cfa_register 13
 1569              		@ sp needed
 1570 0014 5DF8047B 		ldr	r7, [sp], #4
 1571              	.LCFI124:
 1572              		.cfi_restore 7
 1573              		.cfi_def_cfa_offset 0
 1574 0018 7047     		bx	lr
 1575              	.L105:
 1576 001a 00BF     		.align	2
 1577              	.L104:
 1578 001c 00040058 		.word	1476396032
 1579              		.cfi_endproc
 1580              	.LFE171:
 1582              		.section	.text.HAL_SYSCFG_CM7BootAddConfig,"ax",%progbits
 1583              		.align	1
 1584              		.global	HAL_SYSCFG_CM7BootAddConfig
 1585              		.syntax unified
 1586              		.thumb
 1587              		.thumb_func
 1589              	HAL_SYSCFG_CM7BootAddConfig:
 1590              	.LFB172:
 665:Drivers/STM32H7xx_HAL_Driver/Src/stm32h7xx_hal.c **** #endif /* SYSCFG_PMCR_BOOSTEN */
 666:Drivers/STM32H7xx_HAL_Driver/Src/stm32h7xx_hal.c **** 
 667:Drivers/STM32H7xx_HAL_Driver/Src/stm32h7xx_hal.c **** #if defined (SYSCFG_UR2_BOOT_ADD0) ||  defined (SYSCFG_UR2_BCM7_ADD0)
 668:Drivers/STM32H7xx_HAL_Driver/Src/stm32h7xx_hal.c **** /**
 669:Drivers/STM32H7xx_HAL_Driver/Src/stm32h7xx_hal.c ****   * @brief  BootCM7 address 0 configuration
 670:Drivers/STM32H7xx_HAL_Driver/Src/stm32h7xx_hal.c ****   * @param  BootRegister :Specifies the Boot Address register (Address0 or Address1)
 671:Drivers/STM32H7xx_HAL_Driver/Src/stm32h7xx_hal.c ****   *   This parameter can be one of the following values:
 672:Drivers/STM32H7xx_HAL_Driver/Src/stm32h7xx_hal.c ****   *   @arg SYSCFG_BOOT_ADDR0 : Select the boot address0
 673:Drivers/STM32H7xx_HAL_Driver/Src/stm32h7xx_hal.c ****   *   @arg SYSCFG_BOOT_ADDR1:  Select the boot address1
 674:Drivers/STM32H7xx_HAL_Driver/Src/stm32h7xx_hal.c ****   * @param  BootAddress :Specifies the CM7 Boot Address to be loaded in Address0 or Address1
 675:Drivers/STM32H7xx_HAL_Driver/Src/stm32h7xx_hal.c ****   * @retval None
 676:Drivers/STM32H7xx_HAL_Driver/Src/stm32h7xx_hal.c ****   */
 677:Drivers/STM32H7xx_HAL_Driver/Src/stm32h7xx_hal.c **** void HAL_SYSCFG_CM7BootAddConfig(uint32_t BootRegister, uint32_t BootAddress)
 678:Drivers/STM32H7xx_HAL_Driver/Src/stm32h7xx_hal.c **** {
 1591              		.loc 1 678 1
 1592              		.cfi_startproc
 1593              		@ args = 0, pretend = 0, frame = 8
 1594              		@ frame_needed = 1, uses_anonymous_args = 0
 1595              		@ link register save eliminated.
 1596 0000 80B4     		push	{r7}
 1597              	.LCFI125:
 1598              		.cfi_def_cfa_offset 4
 1599              		.cfi_offset 7, -4
 1600 0002 83B0     		sub	sp, sp, #12
 1601              	.LCFI126:
 1602              		.cfi_def_cfa_offset 16
 1603 0004 00AF     		add	r7, sp, #0
 1604              	.LCFI127:
 1605              		.cfi_def_cfa_register 7
ARM GAS  C:\Users\23671\AppData\Local\Temp\cc8GjZ48.s 			page 40


 1606 0006 7860     		str	r0, [r7, #4]
 1607 0008 3960     		str	r1, [r7]
 679:Drivers/STM32H7xx_HAL_Driver/Src/stm32h7xx_hal.c ****   /* Check the parameters */
 680:Drivers/STM32H7xx_HAL_Driver/Src/stm32h7xx_hal.c ****   assert_param(IS_SYSCFG_BOOT_REGISTER(BootRegister));
 681:Drivers/STM32H7xx_HAL_Driver/Src/stm32h7xx_hal.c ****   assert_param(IS_SYSCFG_BOOT_ADDRESS(BootAddress));
 682:Drivers/STM32H7xx_HAL_Driver/Src/stm32h7xx_hal.c ****   if ( BootRegister == SYSCFG_BOOT_ADDR0 )
 1608              		.loc 1 682 6
 1609 000a 7B68     		ldr	r3, [r7, #4]
 1610 000c 002B     		cmp	r3, #0
 1611 000e 0BD1     		bne	.L107
 683:Drivers/STM32H7xx_HAL_Driver/Src/stm32h7xx_hal.c ****   {
 684:Drivers/STM32H7xx_HAL_Driver/Src/stm32h7xx_hal.c ****     /* Configure CM7 BOOT ADD0 */
 685:Drivers/STM32H7xx_HAL_Driver/Src/stm32h7xx_hal.c **** #if defined(DUAL_CORE)
 686:Drivers/STM32H7xx_HAL_Driver/Src/stm32h7xx_hal.c ****     MODIFY_REG(SYSCFG->UR2, SYSCFG_UR2_BCM7_ADD0, ((BootAddress >> 16) << SYSCFG_UR2_BCM7_ADD0_Pos)
 687:Drivers/STM32H7xx_HAL_Driver/Src/stm32h7xx_hal.c **** #else
 688:Drivers/STM32H7xx_HAL_Driver/Src/stm32h7xx_hal.c ****     MODIFY_REG(SYSCFG->UR2, SYSCFG_UR2_BOOT_ADD0, ((BootAddress >> 16) << SYSCFG_UR2_BOOT_ADD0_Pos)
 1612              		.loc 1 688 5
 1613 0010 0E4B     		ldr	r3, .L110
 1614 0012 D3F80833 		ldr	r3, [r3, #776]
 1615 0016 9AB2     		uxth	r2, r3
 1616 0018 3B68     		ldr	r3, [r7]
 1617 001a 1B0C     		lsrs	r3, r3, #16
 1618 001c 1B04     		lsls	r3, r3, #16
 1619 001e 0B49     		ldr	r1, .L110
 1620 0020 1343     		orrs	r3, r3, r2
 1621 0022 C1F80833 		str	r3, [r1, #776]
 689:Drivers/STM32H7xx_HAL_Driver/Src/stm32h7xx_hal.c **** #endif /*DUAL_CORE*/
 690:Drivers/STM32H7xx_HAL_Driver/Src/stm32h7xx_hal.c ****   }
 691:Drivers/STM32H7xx_HAL_Driver/Src/stm32h7xx_hal.c ****   else
 692:Drivers/STM32H7xx_HAL_Driver/Src/stm32h7xx_hal.c ****   {
 693:Drivers/STM32H7xx_HAL_Driver/Src/stm32h7xx_hal.c ****     /* Configure CM7 BOOT ADD1 */
 694:Drivers/STM32H7xx_HAL_Driver/Src/stm32h7xx_hal.c **** #if defined(DUAL_CORE)
 695:Drivers/STM32H7xx_HAL_Driver/Src/stm32h7xx_hal.c ****     MODIFY_REG(SYSCFG->UR3, SYSCFG_UR3_BCM7_ADD1, (BootAddress >> 16));
 696:Drivers/STM32H7xx_HAL_Driver/Src/stm32h7xx_hal.c **** #else
 697:Drivers/STM32H7xx_HAL_Driver/Src/stm32h7xx_hal.c ****     MODIFY_REG(SYSCFG->UR3, SYSCFG_UR3_BOOT_ADD1, (BootAddress >> 16));
 698:Drivers/STM32H7xx_HAL_Driver/Src/stm32h7xx_hal.c **** #endif /*DUAL_CORE*/
 699:Drivers/STM32H7xx_HAL_Driver/Src/stm32h7xx_hal.c ****   }
 700:Drivers/STM32H7xx_HAL_Driver/Src/stm32h7xx_hal.c **** }
 1622              		.loc 1 700 1
 1623 0026 0AE0     		b	.L109
 1624              	.L107:
 697:Drivers/STM32H7xx_HAL_Driver/Src/stm32h7xx_hal.c **** #endif /*DUAL_CORE*/
 1625              		.loc 1 697 5
 1626 0028 084B     		ldr	r3, .L110
 1627 002a D3F80C23 		ldr	r2, [r3, #780]
 1628 002e 084B     		ldr	r3, .L110+4
 1629 0030 1340     		ands	r3, r3, r2
 1630 0032 3A68     		ldr	r2, [r7]
 1631 0034 120C     		lsrs	r2, r2, #16
 1632 0036 0549     		ldr	r1, .L110
 1633 0038 1343     		orrs	r3, r3, r2
 1634 003a C1F80C33 		str	r3, [r1, #780]
 1635              	.L109:
 1636              		.loc 1 700 1
 1637 003e 00BF     		nop
 1638 0040 0C37     		adds	r7, r7, #12
 1639              	.LCFI128:
ARM GAS  C:\Users\23671\AppData\Local\Temp\cc8GjZ48.s 			page 41


 1640              		.cfi_def_cfa_offset 4
 1641 0042 BD46     		mov	sp, r7
 1642              	.LCFI129:
 1643              		.cfi_def_cfa_register 13
 1644              		@ sp needed
 1645 0044 5DF8047B 		ldr	r7, [sp], #4
 1646              	.LCFI130:
 1647              		.cfi_restore 7
 1648              		.cfi_def_cfa_offset 0
 1649 0048 7047     		bx	lr
 1650              	.L111:
 1651 004a 00BF     		.align	2
 1652              	.L110:
 1653 004c 00040058 		.word	1476396032
 1654 0050 0000FFFF 		.word	-65536
 1655              		.cfi_endproc
 1656              	.LFE172:
 1658              		.section	.text.HAL_EnableCompensationCell,"ax",%progbits
 1659              		.align	1
 1660              		.global	HAL_EnableCompensationCell
 1661              		.syntax unified
 1662              		.thumb
 1663              		.thumb_func
 1665              	HAL_EnableCompensationCell:
 1666              	.LFB173:
 701:Drivers/STM32H7xx_HAL_Driver/Src/stm32h7xx_hal.c **** #endif /* SYSCFG_UR2_BOOT_ADD0 || SYSCFG_UR2_BCM7_ADD0 */
 702:Drivers/STM32H7xx_HAL_Driver/Src/stm32h7xx_hal.c **** 
 703:Drivers/STM32H7xx_HAL_Driver/Src/stm32h7xx_hal.c **** #if defined(DUAL_CORE)
 704:Drivers/STM32H7xx_HAL_Driver/Src/stm32h7xx_hal.c **** /**
 705:Drivers/STM32H7xx_HAL_Driver/Src/stm32h7xx_hal.c ****   * @brief  BootCM4 address 0 configuration
 706:Drivers/STM32H7xx_HAL_Driver/Src/stm32h7xx_hal.c ****   * @param  BootRegister :Specifies the Boot Address register (Address0 or Address1)
 707:Drivers/STM32H7xx_HAL_Driver/Src/stm32h7xx_hal.c ****   *   This parameter can be one of the following values:
 708:Drivers/STM32H7xx_HAL_Driver/Src/stm32h7xx_hal.c ****   *   @arg SYSCFG_BOOT_ADDR0 : Select the boot address0
 709:Drivers/STM32H7xx_HAL_Driver/Src/stm32h7xx_hal.c ****   *   @arg SYSCFG_BOOT_ADDR1:  Select the boot address1
 710:Drivers/STM32H7xx_HAL_Driver/Src/stm32h7xx_hal.c ****   * @param  BootAddress :Specifies the CM4 Boot Address to be loaded in Address0 or Address1
 711:Drivers/STM32H7xx_HAL_Driver/Src/stm32h7xx_hal.c ****   * @retval None
 712:Drivers/STM32H7xx_HAL_Driver/Src/stm32h7xx_hal.c ****   */
 713:Drivers/STM32H7xx_HAL_Driver/Src/stm32h7xx_hal.c **** void HAL_SYSCFG_CM4BootAddConfig(uint32_t BootRegister, uint32_t BootAddress)
 714:Drivers/STM32H7xx_HAL_Driver/Src/stm32h7xx_hal.c **** {
 715:Drivers/STM32H7xx_HAL_Driver/Src/stm32h7xx_hal.c ****   /* Check the parameters */
 716:Drivers/STM32H7xx_HAL_Driver/Src/stm32h7xx_hal.c ****   assert_param(IS_SYSCFG_BOOT_REGISTER(BootRegister));
 717:Drivers/STM32H7xx_HAL_Driver/Src/stm32h7xx_hal.c ****   assert_param(IS_SYSCFG_BOOT_ADDRESS(BootAddress));
 718:Drivers/STM32H7xx_HAL_Driver/Src/stm32h7xx_hal.c **** 
 719:Drivers/STM32H7xx_HAL_Driver/Src/stm32h7xx_hal.c ****   if ( BootRegister == SYSCFG_BOOT_ADDR0 )
 720:Drivers/STM32H7xx_HAL_Driver/Src/stm32h7xx_hal.c ****   {
 721:Drivers/STM32H7xx_HAL_Driver/Src/stm32h7xx_hal.c ****     /* Configure CM4 BOOT ADD0 */
 722:Drivers/STM32H7xx_HAL_Driver/Src/stm32h7xx_hal.c ****     MODIFY_REG(SYSCFG->UR3, SYSCFG_UR3_BCM4_ADD0, ((BootAddress >> 16)<< SYSCFG_UR3_BCM4_ADD0_Pos))
 723:Drivers/STM32H7xx_HAL_Driver/Src/stm32h7xx_hal.c ****   }
 724:Drivers/STM32H7xx_HAL_Driver/Src/stm32h7xx_hal.c **** 
 725:Drivers/STM32H7xx_HAL_Driver/Src/stm32h7xx_hal.c ****   else
 726:Drivers/STM32H7xx_HAL_Driver/Src/stm32h7xx_hal.c ****   {
 727:Drivers/STM32H7xx_HAL_Driver/Src/stm32h7xx_hal.c ****     /* Configure CM4 BOOT ADD1 */
 728:Drivers/STM32H7xx_HAL_Driver/Src/stm32h7xx_hal.c ****     MODIFY_REG(SYSCFG->UR4, SYSCFG_UR4_BCM4_ADD1, (BootAddress >> 16));
 729:Drivers/STM32H7xx_HAL_Driver/Src/stm32h7xx_hal.c ****   }
 730:Drivers/STM32H7xx_HAL_Driver/Src/stm32h7xx_hal.c **** }
 731:Drivers/STM32H7xx_HAL_Driver/Src/stm32h7xx_hal.c **** 
 732:Drivers/STM32H7xx_HAL_Driver/Src/stm32h7xx_hal.c **** /**
ARM GAS  C:\Users\23671\AppData\Local\Temp\cc8GjZ48.s 			page 42


 733:Drivers/STM32H7xx_HAL_Driver/Src/stm32h7xx_hal.c ****   * @brief  Enables the Cortex-M7 boot
 734:Drivers/STM32H7xx_HAL_Driver/Src/stm32h7xx_hal.c ****   * @retval None
 735:Drivers/STM32H7xx_HAL_Driver/Src/stm32h7xx_hal.c ****   */
 736:Drivers/STM32H7xx_HAL_Driver/Src/stm32h7xx_hal.c **** void HAL_SYSCFG_EnableCM7BOOT(void)
 737:Drivers/STM32H7xx_HAL_Driver/Src/stm32h7xx_hal.c **** {
 738:Drivers/STM32H7xx_HAL_Driver/Src/stm32h7xx_hal.c ****  SET_BIT(SYSCFG->UR1, SYSCFG_UR1_BCM7);
 739:Drivers/STM32H7xx_HAL_Driver/Src/stm32h7xx_hal.c **** }
 740:Drivers/STM32H7xx_HAL_Driver/Src/stm32h7xx_hal.c **** 
 741:Drivers/STM32H7xx_HAL_Driver/Src/stm32h7xx_hal.c **** /**
 742:Drivers/STM32H7xx_HAL_Driver/Src/stm32h7xx_hal.c ****   * @brief  Disables the Cortex-M7 boot
 743:Drivers/STM32H7xx_HAL_Driver/Src/stm32h7xx_hal.c ****   * @note   Disabling the boot will gate the CPU clock
 744:Drivers/STM32H7xx_HAL_Driver/Src/stm32h7xx_hal.c ****   * @retval None
 745:Drivers/STM32H7xx_HAL_Driver/Src/stm32h7xx_hal.c ****   */
 746:Drivers/STM32H7xx_HAL_Driver/Src/stm32h7xx_hal.c **** void HAL_SYSCFG_DisableCM7BOOT(void)
 747:Drivers/STM32H7xx_HAL_Driver/Src/stm32h7xx_hal.c **** {
 748:Drivers/STM32H7xx_HAL_Driver/Src/stm32h7xx_hal.c ****  CLEAR_BIT(SYSCFG->UR1, SYSCFG_UR1_BCM7) ;
 749:Drivers/STM32H7xx_HAL_Driver/Src/stm32h7xx_hal.c **** }
 750:Drivers/STM32H7xx_HAL_Driver/Src/stm32h7xx_hal.c **** 
 751:Drivers/STM32H7xx_HAL_Driver/Src/stm32h7xx_hal.c **** /**
 752:Drivers/STM32H7xx_HAL_Driver/Src/stm32h7xx_hal.c ****   * @brief  Enables the Cortex-M4 boot
 753:Drivers/STM32H7xx_HAL_Driver/Src/stm32h7xx_hal.c ****   * @retval None
 754:Drivers/STM32H7xx_HAL_Driver/Src/stm32h7xx_hal.c ****   */
 755:Drivers/STM32H7xx_HAL_Driver/Src/stm32h7xx_hal.c **** void HAL_SYSCFG_EnableCM4BOOT(void)
 756:Drivers/STM32H7xx_HAL_Driver/Src/stm32h7xx_hal.c **** {
 757:Drivers/STM32H7xx_HAL_Driver/Src/stm32h7xx_hal.c ****  SET_BIT(SYSCFG->UR1, SYSCFG_UR1_BCM4);
 758:Drivers/STM32H7xx_HAL_Driver/Src/stm32h7xx_hal.c **** }
 759:Drivers/STM32H7xx_HAL_Driver/Src/stm32h7xx_hal.c **** 
 760:Drivers/STM32H7xx_HAL_Driver/Src/stm32h7xx_hal.c **** /**
 761:Drivers/STM32H7xx_HAL_Driver/Src/stm32h7xx_hal.c ****   * @brief  Disables the Cortex-M4 boot
 762:Drivers/STM32H7xx_HAL_Driver/Src/stm32h7xx_hal.c ****   * @note   Disabling the boot will gate the CPU clock
 763:Drivers/STM32H7xx_HAL_Driver/Src/stm32h7xx_hal.c ****   * @retval None
 764:Drivers/STM32H7xx_HAL_Driver/Src/stm32h7xx_hal.c ****   */
 765:Drivers/STM32H7xx_HAL_Driver/Src/stm32h7xx_hal.c **** void HAL_SYSCFG_DisableCM4BOOT(void)
 766:Drivers/STM32H7xx_HAL_Driver/Src/stm32h7xx_hal.c **** {
 767:Drivers/STM32H7xx_HAL_Driver/Src/stm32h7xx_hal.c ****   CLEAR_BIT(SYSCFG->UR1, SYSCFG_UR1_BCM4);
 768:Drivers/STM32H7xx_HAL_Driver/Src/stm32h7xx_hal.c **** }
 769:Drivers/STM32H7xx_HAL_Driver/Src/stm32h7xx_hal.c **** #endif /*DUAL_CORE*/
 770:Drivers/STM32H7xx_HAL_Driver/Src/stm32h7xx_hal.c **** /**
 771:Drivers/STM32H7xx_HAL_Driver/Src/stm32h7xx_hal.c ****   * @brief  Enables the I/O Compensation Cell.
 772:Drivers/STM32H7xx_HAL_Driver/Src/stm32h7xx_hal.c ****   * @note   The I/O compensation cell can be used only when the device supply
 773:Drivers/STM32H7xx_HAL_Driver/Src/stm32h7xx_hal.c ****   *         voltage ranges from 1.62 to 2.0 V and from 2.7 to 3.6 V.
 774:Drivers/STM32H7xx_HAL_Driver/Src/stm32h7xx_hal.c ****   * @retval None
 775:Drivers/STM32H7xx_HAL_Driver/Src/stm32h7xx_hal.c ****   */
 776:Drivers/STM32H7xx_HAL_Driver/Src/stm32h7xx_hal.c **** void HAL_EnableCompensationCell(void)
 777:Drivers/STM32H7xx_HAL_Driver/Src/stm32h7xx_hal.c **** {
 1667              		.loc 1 777 1
 1668              		.cfi_startproc
 1669              		@ args = 0, pretend = 0, frame = 0
 1670              		@ frame_needed = 1, uses_anonymous_args = 0
 1671              		@ link register save eliminated.
 1672 0000 80B4     		push	{r7}
 1673              	.LCFI131:
 1674              		.cfi_def_cfa_offset 4
 1675              		.cfi_offset 7, -4
 1676 0002 00AF     		add	r7, sp, #0
 1677              	.LCFI132:
 1678              		.cfi_def_cfa_register 7
ARM GAS  C:\Users\23671\AppData\Local\Temp\cc8GjZ48.s 			page 43


 778:Drivers/STM32H7xx_HAL_Driver/Src/stm32h7xx_hal.c ****   SET_BIT(SYSCFG->CCCSR, SYSCFG_CCCSR_EN) ;
 1679              		.loc 1 778 3
 1680 0004 054B     		ldr	r3, .L113
 1681 0006 1B6A     		ldr	r3, [r3, #32]
 1682 0008 044A     		ldr	r2, .L113
 1683 000a 43F00103 		orr	r3, r3, #1
 1684 000e 1362     		str	r3, [r2, #32]
 779:Drivers/STM32H7xx_HAL_Driver/Src/stm32h7xx_hal.c **** }
 1685              		.loc 1 779 1
 1686 0010 00BF     		nop
 1687 0012 BD46     		mov	sp, r7
 1688              	.LCFI133:
 1689              		.cfi_def_cfa_register 13
 1690              		@ sp needed
 1691 0014 5DF8047B 		ldr	r7, [sp], #4
 1692              	.LCFI134:
 1693              		.cfi_restore 7
 1694              		.cfi_def_cfa_offset 0
 1695 0018 7047     		bx	lr
 1696              	.L114:
 1697 001a 00BF     		.align	2
 1698              	.L113:
 1699 001c 00040058 		.word	1476396032
 1700              		.cfi_endproc
 1701              	.LFE173:
 1703              		.section	.text.HAL_DisableCompensationCell,"ax",%progbits
 1704              		.align	1
 1705              		.global	HAL_DisableCompensationCell
 1706              		.syntax unified
 1707              		.thumb
 1708              		.thumb_func
 1710              	HAL_DisableCompensationCell:
 1711              	.LFB174:
 780:Drivers/STM32H7xx_HAL_Driver/Src/stm32h7xx_hal.c **** 
 781:Drivers/STM32H7xx_HAL_Driver/Src/stm32h7xx_hal.c **** /**
 782:Drivers/STM32H7xx_HAL_Driver/Src/stm32h7xx_hal.c ****   * @brief  Power-down the I/O Compensation Cell.
 783:Drivers/STM32H7xx_HAL_Driver/Src/stm32h7xx_hal.c ****   * @note   The I/O compensation cell can be used only when the device supply
 784:Drivers/STM32H7xx_HAL_Driver/Src/stm32h7xx_hal.c ****   *         voltage ranges from 1.62 to 2.0 V and from 2.7 to 3.6 V.
 785:Drivers/STM32H7xx_HAL_Driver/Src/stm32h7xx_hal.c ****   * @retval None
 786:Drivers/STM32H7xx_HAL_Driver/Src/stm32h7xx_hal.c ****   */
 787:Drivers/STM32H7xx_HAL_Driver/Src/stm32h7xx_hal.c **** void HAL_DisableCompensationCell(void)
 788:Drivers/STM32H7xx_HAL_Driver/Src/stm32h7xx_hal.c **** {
 1712              		.loc 1 788 1
 1713              		.cfi_startproc
 1714              		@ args = 0, pretend = 0, frame = 0
 1715              		@ frame_needed = 1, uses_anonymous_args = 0
 1716              		@ link register save eliminated.
 1717 0000 80B4     		push	{r7}
 1718              	.LCFI135:
 1719              		.cfi_def_cfa_offset 4
 1720              		.cfi_offset 7, -4
 1721 0002 00AF     		add	r7, sp, #0
 1722              	.LCFI136:
 1723              		.cfi_def_cfa_register 7
 789:Drivers/STM32H7xx_HAL_Driver/Src/stm32h7xx_hal.c ****   CLEAR_BIT(SYSCFG->CCCSR, SYSCFG_CCCSR_EN);
 1724              		.loc 1 789 3
 1725 0004 054B     		ldr	r3, .L116
ARM GAS  C:\Users\23671\AppData\Local\Temp\cc8GjZ48.s 			page 44


 1726 0006 1B6A     		ldr	r3, [r3, #32]
 1727 0008 044A     		ldr	r2, .L116
 1728 000a 23F00103 		bic	r3, r3, #1
 1729 000e 1362     		str	r3, [r2, #32]
 790:Drivers/STM32H7xx_HAL_Driver/Src/stm32h7xx_hal.c **** }
 1730              		.loc 1 790 1
 1731 0010 00BF     		nop
 1732 0012 BD46     		mov	sp, r7
 1733              	.LCFI137:
 1734              		.cfi_def_cfa_register 13
 1735              		@ sp needed
 1736 0014 5DF8047B 		ldr	r7, [sp], #4
 1737              	.LCFI138:
 1738              		.cfi_restore 7
 1739              		.cfi_def_cfa_offset 0
 1740 0018 7047     		bx	lr
 1741              	.L117:
 1742 001a 00BF     		.align	2
 1743              	.L116:
 1744 001c 00040058 		.word	1476396032
 1745              		.cfi_endproc
 1746              	.LFE174:
 1748              		.section	.text.HAL_SYSCFG_EnableIOSpeedOptimize,"ax",%progbits
 1749              		.align	1
 1750              		.global	HAL_SYSCFG_EnableIOSpeedOptimize
 1751              		.syntax unified
 1752              		.thumb
 1753              		.thumb_func
 1755              	HAL_SYSCFG_EnableIOSpeedOptimize:
 1756              	.LFB175:
 791:Drivers/STM32H7xx_HAL_Driver/Src/stm32h7xx_hal.c **** 
 792:Drivers/STM32H7xx_HAL_Driver/Src/stm32h7xx_hal.c **** 
 793:Drivers/STM32H7xx_HAL_Driver/Src/stm32h7xx_hal.c **** /**
 794:Drivers/STM32H7xx_HAL_Driver/Src/stm32h7xx_hal.c ****   * @brief  To Enable optimize the I/O speed when the product voltage is low.
 795:Drivers/STM32H7xx_HAL_Driver/Src/stm32h7xx_hal.c ****   * @note   This bit is active only if PRODUCT_BELOW_25V user option bit is set. It must be
 796:Drivers/STM32H7xx_HAL_Driver/Src/stm32h7xx_hal.c ****   *         used only if the product supply voltage is below 2.5 V. Setting this bit when VDD is
 797:Drivers/STM32H7xx_HAL_Driver/Src/stm32h7xx_hal.c ****   *         higher than 2.5 V might be destructive.
 798:Drivers/STM32H7xx_HAL_Driver/Src/stm32h7xx_hal.c ****   * @retval None
 799:Drivers/STM32H7xx_HAL_Driver/Src/stm32h7xx_hal.c ****   */
 800:Drivers/STM32H7xx_HAL_Driver/Src/stm32h7xx_hal.c **** void HAL_SYSCFG_EnableIOSpeedOptimize(void)
 801:Drivers/STM32H7xx_HAL_Driver/Src/stm32h7xx_hal.c **** {
 1757              		.loc 1 801 1
 1758              		.cfi_startproc
 1759              		@ args = 0, pretend = 0, frame = 0
 1760              		@ frame_needed = 1, uses_anonymous_args = 0
 1761              		@ link register save eliminated.
 1762 0000 80B4     		push	{r7}
 1763              	.LCFI139:
 1764              		.cfi_def_cfa_offset 4
 1765              		.cfi_offset 7, -4
 1766 0002 00AF     		add	r7, sp, #0
 1767              	.LCFI140:
 1768              		.cfi_def_cfa_register 7
 802:Drivers/STM32H7xx_HAL_Driver/Src/stm32h7xx_hal.c **** #if defined(SYSCFG_CCCSR_HSLV)
 803:Drivers/STM32H7xx_HAL_Driver/Src/stm32h7xx_hal.c ****   SET_BIT(SYSCFG->CCCSR, SYSCFG_CCCSR_HSLV);
 1769              		.loc 1 803 3
 1770 0004 054B     		ldr	r3, .L119
ARM GAS  C:\Users\23671\AppData\Local\Temp\cc8GjZ48.s 			page 45


 1771 0006 1B6A     		ldr	r3, [r3, #32]
 1772 0008 044A     		ldr	r2, .L119
 1773 000a 43F48033 		orr	r3, r3, #65536
 1774 000e 1362     		str	r3, [r2, #32]
 804:Drivers/STM32H7xx_HAL_Driver/Src/stm32h7xx_hal.c **** #else
 805:Drivers/STM32H7xx_HAL_Driver/Src/stm32h7xx_hal.c ****   SET_BIT(SYSCFG->CCCSR, (SYSCFG_CCCSR_HSLV0| SYSCFG_CCCSR_HSLV1 | SYSCFG_CCCSR_HSLV2  | SYSCFG_CCC
 806:Drivers/STM32H7xx_HAL_Driver/Src/stm32h7xx_hal.c **** #endif   /* SYSCFG_CCCSR_HSLV */
 807:Drivers/STM32H7xx_HAL_Driver/Src/stm32h7xx_hal.c **** }
 1775              		.loc 1 807 1
 1776 0010 00BF     		nop
 1777 0012 BD46     		mov	sp, r7
 1778              	.LCFI141:
 1779              		.cfi_def_cfa_register 13
 1780              		@ sp needed
 1781 0014 5DF8047B 		ldr	r7, [sp], #4
 1782              	.LCFI142:
 1783              		.cfi_restore 7
 1784              		.cfi_def_cfa_offset 0
 1785 0018 7047     		bx	lr
 1786              	.L120:
 1787 001a 00BF     		.align	2
 1788              	.L119:
 1789 001c 00040058 		.word	1476396032
 1790              		.cfi_endproc
 1791              	.LFE175:
 1793              		.section	.text.HAL_SYSCFG_DisableIOSpeedOptimize,"ax",%progbits
 1794              		.align	1
 1795              		.global	HAL_SYSCFG_DisableIOSpeedOptimize
 1796              		.syntax unified
 1797              		.thumb
 1798              		.thumb_func
 1800              	HAL_SYSCFG_DisableIOSpeedOptimize:
 1801              	.LFB176:
 808:Drivers/STM32H7xx_HAL_Driver/Src/stm32h7xx_hal.c **** 
 809:Drivers/STM32H7xx_HAL_Driver/Src/stm32h7xx_hal.c **** /**
 810:Drivers/STM32H7xx_HAL_Driver/Src/stm32h7xx_hal.c ****   * @brief  To Disable optimize the I/O speed when the product voltage is low.
 811:Drivers/STM32H7xx_HAL_Driver/Src/stm32h7xx_hal.c ****   * @note   This bit is active only if PRODUCT_BELOW_25V user option bit is set. It must be
 812:Drivers/STM32H7xx_HAL_Driver/Src/stm32h7xx_hal.c ****   *         used only if the product supply voltage is below 2.5 V. Setting this bit when VDD is
 813:Drivers/STM32H7xx_HAL_Driver/Src/stm32h7xx_hal.c ****   *         higher than 2.5 V might be destructive.
 814:Drivers/STM32H7xx_HAL_Driver/Src/stm32h7xx_hal.c ****   * @retval None
 815:Drivers/STM32H7xx_HAL_Driver/Src/stm32h7xx_hal.c ****   */
 816:Drivers/STM32H7xx_HAL_Driver/Src/stm32h7xx_hal.c **** void HAL_SYSCFG_DisableIOSpeedOptimize(void)
 817:Drivers/STM32H7xx_HAL_Driver/Src/stm32h7xx_hal.c **** {
 1802              		.loc 1 817 1
 1803              		.cfi_startproc
 1804              		@ args = 0, pretend = 0, frame = 0
 1805              		@ frame_needed = 1, uses_anonymous_args = 0
 1806              		@ link register save eliminated.
 1807 0000 80B4     		push	{r7}
 1808              	.LCFI143:
 1809              		.cfi_def_cfa_offset 4
 1810              		.cfi_offset 7, -4
 1811 0002 00AF     		add	r7, sp, #0
 1812              	.LCFI144:
 1813              		.cfi_def_cfa_register 7
 818:Drivers/STM32H7xx_HAL_Driver/Src/stm32h7xx_hal.c **** #if defined(SYSCFG_CCCSR_HSLV)
 819:Drivers/STM32H7xx_HAL_Driver/Src/stm32h7xx_hal.c ****   CLEAR_BIT(SYSCFG->CCCSR, SYSCFG_CCCSR_HSLV);
ARM GAS  C:\Users\23671\AppData\Local\Temp\cc8GjZ48.s 			page 46


 1814              		.loc 1 819 3
 1815 0004 054B     		ldr	r3, .L122
 1816 0006 1B6A     		ldr	r3, [r3, #32]
 1817 0008 044A     		ldr	r2, .L122
 1818 000a 23F48033 		bic	r3, r3, #65536
 1819 000e 1362     		str	r3, [r2, #32]
 820:Drivers/STM32H7xx_HAL_Driver/Src/stm32h7xx_hal.c **** #else
 821:Drivers/STM32H7xx_HAL_Driver/Src/stm32h7xx_hal.c ****   CLEAR_BIT(SYSCFG->CCCSR, (SYSCFG_CCCSR_HSLV0| SYSCFG_CCCSR_HSLV1 | SYSCFG_CCCSR_HSLV2  | SYSCFG_C
 822:Drivers/STM32H7xx_HAL_Driver/Src/stm32h7xx_hal.c **** #endif   /* SYSCFG_CCCSR_HSLV */
 823:Drivers/STM32H7xx_HAL_Driver/Src/stm32h7xx_hal.c **** }
 1820              		.loc 1 823 1
 1821 0010 00BF     		nop
 1822 0012 BD46     		mov	sp, r7
 1823              	.LCFI145:
 1824              		.cfi_def_cfa_register 13
 1825              		@ sp needed
 1826 0014 5DF8047B 		ldr	r7, [sp], #4
 1827              	.LCFI146:
 1828              		.cfi_restore 7
 1829              		.cfi_def_cfa_offset 0
 1830 0018 7047     		bx	lr
 1831              	.L123:
 1832 001a 00BF     		.align	2
 1833              	.L122:
 1834 001c 00040058 		.word	1476396032
 1835              		.cfi_endproc
 1836              	.LFE176:
 1838              		.section	.text.HAL_SYSCFG_CompensationCodeSelect,"ax",%progbits
 1839              		.align	1
 1840              		.global	HAL_SYSCFG_CompensationCodeSelect
 1841              		.syntax unified
 1842              		.thumb
 1843              		.thumb_func
 1845              	HAL_SYSCFG_CompensationCodeSelect:
 1846              	.LFB177:
 824:Drivers/STM32H7xx_HAL_Driver/Src/stm32h7xx_hal.c **** 
 825:Drivers/STM32H7xx_HAL_Driver/Src/stm32h7xx_hal.c **** /**
 826:Drivers/STM32H7xx_HAL_Driver/Src/stm32h7xx_hal.c ****   * @brief  Code selection for the I/O Compensation cell
 827:Drivers/STM32H7xx_HAL_Driver/Src/stm32h7xx_hal.c ****   * @param  SYSCFG_CompCode: Selects the code to be applied for the I/O compensation cell
 828:Drivers/STM32H7xx_HAL_Driver/Src/stm32h7xx_hal.c ****   *   This parameter can be one of the following values:
 829:Drivers/STM32H7xx_HAL_Driver/Src/stm32h7xx_hal.c ****   *   @arg SYSCFG_CELL_CODE : Select Code from the cell (available in the SYSCFG_CCVR)
 830:Drivers/STM32H7xx_HAL_Driver/Src/stm32h7xx_hal.c ****   *   @arg SYSCFG_REGISTER_CODE: Select Code from the SYSCFG compensation cell code register (SYSCF
 831:Drivers/STM32H7xx_HAL_Driver/Src/stm32h7xx_hal.c ****   * @retval None
 832:Drivers/STM32H7xx_HAL_Driver/Src/stm32h7xx_hal.c ****   */
 833:Drivers/STM32H7xx_HAL_Driver/Src/stm32h7xx_hal.c **** void HAL_SYSCFG_CompensationCodeSelect(uint32_t SYSCFG_CompCode)
 834:Drivers/STM32H7xx_HAL_Driver/Src/stm32h7xx_hal.c **** {
 1847              		.loc 1 834 1
 1848              		.cfi_startproc
 1849              		@ args = 0, pretend = 0, frame = 8
 1850              		@ frame_needed = 1, uses_anonymous_args = 0
 1851              		@ link register save eliminated.
 1852 0000 80B4     		push	{r7}
 1853              	.LCFI147:
 1854              		.cfi_def_cfa_offset 4
 1855              		.cfi_offset 7, -4
 1856 0002 83B0     		sub	sp, sp, #12
 1857              	.LCFI148:
ARM GAS  C:\Users\23671\AppData\Local\Temp\cc8GjZ48.s 			page 47


 1858              		.cfi_def_cfa_offset 16
 1859 0004 00AF     		add	r7, sp, #0
 1860              	.LCFI149:
 1861              		.cfi_def_cfa_register 7
 1862 0006 7860     		str	r0, [r7, #4]
 835:Drivers/STM32H7xx_HAL_Driver/Src/stm32h7xx_hal.c ****   /* Check the parameter */
 836:Drivers/STM32H7xx_HAL_Driver/Src/stm32h7xx_hal.c ****   assert_param(IS_SYSCFG_CODE_SELECT(SYSCFG_CompCode));
 837:Drivers/STM32H7xx_HAL_Driver/Src/stm32h7xx_hal.c ****   MODIFY_REG(SYSCFG->CCCSR, SYSCFG_CCCSR_CS, (uint32_t)(SYSCFG_CompCode));
 1863              		.loc 1 837 3
 1864 0008 064B     		ldr	r3, .L125
 1865 000a 1B6A     		ldr	r3, [r3, #32]
 1866 000c 23F00202 		bic	r2, r3, #2
 1867 0010 0449     		ldr	r1, .L125
 1868 0012 7B68     		ldr	r3, [r7, #4]
 1869 0014 1343     		orrs	r3, r3, r2
 1870 0016 0B62     		str	r3, [r1, #32]
 838:Drivers/STM32H7xx_HAL_Driver/Src/stm32h7xx_hal.c **** }
 1871              		.loc 1 838 1
 1872 0018 00BF     		nop
 1873 001a 0C37     		adds	r7, r7, #12
 1874              	.LCFI150:
 1875              		.cfi_def_cfa_offset 4
 1876 001c BD46     		mov	sp, r7
 1877              	.LCFI151:
 1878              		.cfi_def_cfa_register 13
 1879              		@ sp needed
 1880 001e 5DF8047B 		ldr	r7, [sp], #4
 1881              	.LCFI152:
 1882              		.cfi_restore 7
 1883              		.cfi_def_cfa_offset 0
 1884 0022 7047     		bx	lr
 1885              	.L126:
 1886              		.align	2
 1887              	.L125:
 1888 0024 00040058 		.word	1476396032
 1889              		.cfi_endproc
 1890              	.LFE177:
 1892              		.section	.text.HAL_SYSCFG_CompensationCodeConfig,"ax",%progbits
 1893              		.align	1
 1894              		.global	HAL_SYSCFG_CompensationCodeConfig
 1895              		.syntax unified
 1896              		.thumb
 1897              		.thumb_func
 1899              	HAL_SYSCFG_CompensationCodeConfig:
 1900              	.LFB178:
 839:Drivers/STM32H7xx_HAL_Driver/Src/stm32h7xx_hal.c **** 
 840:Drivers/STM32H7xx_HAL_Driver/Src/stm32h7xx_hal.c **** /**
 841:Drivers/STM32H7xx_HAL_Driver/Src/stm32h7xx_hal.c ****   * @brief  Code selection for the I/O Compensation cell
 842:Drivers/STM32H7xx_HAL_Driver/Src/stm32h7xx_hal.c ****   * @param  SYSCFG_PMOSCode: PMOS compensation code
 843:Drivers/STM32H7xx_HAL_Driver/Src/stm32h7xx_hal.c ****   *         This code is applied to the I/O compensation cell when the CS bit of the
 844:Drivers/STM32H7xx_HAL_Driver/Src/stm32h7xx_hal.c ****   *          SYSCFG_CMPCR is set
 845:Drivers/STM32H7xx_HAL_Driver/Src/stm32h7xx_hal.c ****   * @param  SYSCFG_NMOSCode: NMOS compensation code
 846:Drivers/STM32H7xx_HAL_Driver/Src/stm32h7xx_hal.c ****   *         This code is applied to the I/O compensation cell when the CS bit of the
 847:Drivers/STM32H7xx_HAL_Driver/Src/stm32h7xx_hal.c ****   *          SYSCFG_CMPCR is set
 848:Drivers/STM32H7xx_HAL_Driver/Src/stm32h7xx_hal.c ****   * @retval None
 849:Drivers/STM32H7xx_HAL_Driver/Src/stm32h7xx_hal.c ****   */
 850:Drivers/STM32H7xx_HAL_Driver/Src/stm32h7xx_hal.c **** void HAL_SYSCFG_CompensationCodeConfig(uint32_t SYSCFG_PMOSCode, uint32_t SYSCFG_NMOSCode )
ARM GAS  C:\Users\23671\AppData\Local\Temp\cc8GjZ48.s 			page 48


 851:Drivers/STM32H7xx_HAL_Driver/Src/stm32h7xx_hal.c **** {
 1901              		.loc 1 851 1
 1902              		.cfi_startproc
 1903              		@ args = 0, pretend = 0, frame = 8
 1904              		@ frame_needed = 1, uses_anonymous_args = 0
 1905              		@ link register save eliminated.
 1906 0000 80B4     		push	{r7}
 1907              	.LCFI153:
 1908              		.cfi_def_cfa_offset 4
 1909              		.cfi_offset 7, -4
 1910 0002 83B0     		sub	sp, sp, #12
 1911              	.LCFI154:
 1912              		.cfi_def_cfa_offset 16
 1913 0004 00AF     		add	r7, sp, #0
 1914              	.LCFI155:
 1915              		.cfi_def_cfa_register 7
 1916 0006 7860     		str	r0, [r7, #4]
 1917 0008 3960     		str	r1, [r7]
 852:Drivers/STM32H7xx_HAL_Driver/Src/stm32h7xx_hal.c ****   /* Check the parameter */
 853:Drivers/STM32H7xx_HAL_Driver/Src/stm32h7xx_hal.c ****   assert_param(IS_SYSCFG_CODE_CONFIG(SYSCFG_PMOSCode));
 854:Drivers/STM32H7xx_HAL_Driver/Src/stm32h7xx_hal.c ****   assert_param(IS_SYSCFG_CODE_CONFIG(SYSCFG_NMOSCode));
 855:Drivers/STM32H7xx_HAL_Driver/Src/stm32h7xx_hal.c ****   MODIFY_REG(SYSCFG->CCCR, SYSCFG_CCCR_NCC|SYSCFG_CCCR_PCC, (((uint32_t)(SYSCFG_PMOSCode)<< 4)|(uin
 1918              		.loc 1 855 3
 1919 000a 084B     		ldr	r3, .L128
 1920 000c 9B6A     		ldr	r3, [r3, #40]
 1921 000e 23F0FF02 		bic	r2, r3, #255
 1922 0012 7B68     		ldr	r3, [r7, #4]
 1923 0014 1901     		lsls	r1, r3, #4
 1924 0016 3B68     		ldr	r3, [r7]
 1925 0018 0B43     		orrs	r3, r3, r1
 1926 001a 0449     		ldr	r1, .L128
 1927 001c 1343     		orrs	r3, r3, r2
 1928 001e 8B62     		str	r3, [r1, #40]
 856:Drivers/STM32H7xx_HAL_Driver/Src/stm32h7xx_hal.c **** }
 1929              		.loc 1 856 1
 1930 0020 00BF     		nop
 1931 0022 0C37     		adds	r7, r7, #12
 1932              	.LCFI156:
 1933              		.cfi_def_cfa_offset 4
 1934 0024 BD46     		mov	sp, r7
 1935              	.LCFI157:
 1936              		.cfi_def_cfa_register 13
 1937              		@ sp needed
 1938 0026 5DF8047B 		ldr	r7, [sp], #4
 1939              	.LCFI158:
 1940              		.cfi_restore 7
 1941              		.cfi_def_cfa_offset 0
 1942 002a 7047     		bx	lr
 1943              	.L129:
 1944              		.align	2
 1945              	.L128:
 1946 002c 00040058 		.word	1476396032
 1947              		.cfi_endproc
 1948              	.LFE178:
 1950              		.section	.text.HAL_SYSCFG_ADC2ALT_Rout0Config,"ax",%progbits
 1951              		.align	1
 1952              		.global	HAL_SYSCFG_ADC2ALT_Rout0Config
ARM GAS  C:\Users\23671\AppData\Local\Temp\cc8GjZ48.s 			page 49


 1953              		.syntax unified
 1954              		.thumb
 1955              		.thumb_func
 1957              	HAL_SYSCFG_ADC2ALT_Rout0Config:
 1958              	.LFB179:
 857:Drivers/STM32H7xx_HAL_Driver/Src/stm32h7xx_hal.c **** 
 858:Drivers/STM32H7xx_HAL_Driver/Src/stm32h7xx_hal.c **** #if defined(SYSCFG_CCCR_NCC_MMC)
 859:Drivers/STM32H7xx_HAL_Driver/Src/stm32h7xx_hal.c **** /**
 860:Drivers/STM32H7xx_HAL_Driver/Src/stm32h7xx_hal.c ****   * @brief  Code selection for the I/O Compensation cell
 861:Drivers/STM32H7xx_HAL_Driver/Src/stm32h7xx_hal.c ****   * @param  SYSCFG_PMOSCode: VDDMMC PMOS compensation code
 862:Drivers/STM32H7xx_HAL_Driver/Src/stm32h7xx_hal.c ****   *         This code is applied to the I/O compensation cell when the CS bit of the
 863:Drivers/STM32H7xx_HAL_Driver/Src/stm32h7xx_hal.c ****   *          SYSCFG_CMPCR is set
 864:Drivers/STM32H7xx_HAL_Driver/Src/stm32h7xx_hal.c ****   * @param  SYSCFG_NMOSCode: VDDMMC NMOS compensation code
 865:Drivers/STM32H7xx_HAL_Driver/Src/stm32h7xx_hal.c ****   *         This code is applied to the I/O compensation cell when the CS bit of the
 866:Drivers/STM32H7xx_HAL_Driver/Src/stm32h7xx_hal.c ****   *          SYSCFG_CMPCR is set
 867:Drivers/STM32H7xx_HAL_Driver/Src/stm32h7xx_hal.c ****   * @retval None
 868:Drivers/STM32H7xx_HAL_Driver/Src/stm32h7xx_hal.c ****   */
 869:Drivers/STM32H7xx_HAL_Driver/Src/stm32h7xx_hal.c **** void HAL_SYSCFG_VDDMMC_CompensationCodeConfig(uint32_t SYSCFG_PMOSCode, uint32_t SYSCFG_NMOSCode )
 870:Drivers/STM32H7xx_HAL_Driver/Src/stm32h7xx_hal.c **** {
 871:Drivers/STM32H7xx_HAL_Driver/Src/stm32h7xx_hal.c ****   /* Check the parameter */
 872:Drivers/STM32H7xx_HAL_Driver/Src/stm32h7xx_hal.c ****   assert_param(IS_SYSCFG_CODE_CONFIG(SYSCFG_PMOSCode));
 873:Drivers/STM32H7xx_HAL_Driver/Src/stm32h7xx_hal.c ****   assert_param(IS_SYSCFG_CODE_CONFIG(SYSCFG_NMOSCode));
 874:Drivers/STM32H7xx_HAL_Driver/Src/stm32h7xx_hal.c ****   MODIFY_REG(SYSCFG->CCCR, (SYSCFG_CCCR_NCC_MMC | SYSCFG_CCCR_PCC_MMC), (((uint32_t)(SYSCFG_PMOSCod
 875:Drivers/STM32H7xx_HAL_Driver/Src/stm32h7xx_hal.c **** }
 876:Drivers/STM32H7xx_HAL_Driver/Src/stm32h7xx_hal.c **** #endif /* SYSCFG_CCCR_NCC_MMC */
 877:Drivers/STM32H7xx_HAL_Driver/Src/stm32h7xx_hal.c **** 
 878:Drivers/STM32H7xx_HAL_Driver/Src/stm32h7xx_hal.c **** #if defined(SYSCFG_ADC2ALT_ADC2_ROUT0)
 879:Drivers/STM32H7xx_HAL_Driver/Src/stm32h7xx_hal.c **** /** @brief  SYSCFG ADC2 internal input alternate connection macros
 880:Drivers/STM32H7xx_HAL_Driver/Src/stm32h7xx_hal.c ****   * @param Adc2AltRout0 This parameter can be a value of :
 881:Drivers/STM32H7xx_HAL_Driver/Src/stm32h7xx_hal.c ****   *     @arg @ref SYSCFG_ADC2_ROUT0_DAC1_1   DAC1_out1 connected to ADC2 VINP[16]
 882:Drivers/STM32H7xx_HAL_Driver/Src/stm32h7xx_hal.c ****   *     @arg @ref SYSCFG_ADC2_ROUT0_VBAT4    VBAT/4 connected to ADC2 VINP[16]
 883:Drivers/STM32H7xx_HAL_Driver/Src/stm32h7xx_hal.c ****   */
 884:Drivers/STM32H7xx_HAL_Driver/Src/stm32h7xx_hal.c **** void HAL_SYSCFG_ADC2ALT_Rout0Config(uint32_t Adc2AltRout0)
 885:Drivers/STM32H7xx_HAL_Driver/Src/stm32h7xx_hal.c **** {
 1959              		.loc 1 885 1
 1960              		.cfi_startproc
 1961              		@ args = 0, pretend = 0, frame = 8
 1962              		@ frame_needed = 1, uses_anonymous_args = 0
 1963              		@ link register save eliminated.
 1964 0000 80B4     		push	{r7}
 1965              	.LCFI159:
 1966              		.cfi_def_cfa_offset 4
 1967              		.cfi_offset 7, -4
 1968 0002 83B0     		sub	sp, sp, #12
 1969              	.LCFI160:
 1970              		.cfi_def_cfa_offset 16
 1971 0004 00AF     		add	r7, sp, #0
 1972              	.LCFI161:
 1973              		.cfi_def_cfa_register 7
 1974 0006 7860     		str	r0, [r7, #4]
 886:Drivers/STM32H7xx_HAL_Driver/Src/stm32h7xx_hal.c ****   /* Check the parameters */
 887:Drivers/STM32H7xx_HAL_Driver/Src/stm32h7xx_hal.c ****   assert_param(IS_SYSCFG_ADC2ALT_ROUT0(Adc2AltRout0));
 888:Drivers/STM32H7xx_HAL_Driver/Src/stm32h7xx_hal.c **** 
 889:Drivers/STM32H7xx_HAL_Driver/Src/stm32h7xx_hal.c ****   MODIFY_REG(SYSCFG->ADC2ALT, SYSCFG_ADC2ALT_ADC2_ROUT0, Adc2AltRout0);
 1975              		.loc 1 889 3
 1976 0008 064B     		ldr	r3, .L131
 1977 000a 1B6B     		ldr	r3, [r3, #48]
ARM GAS  C:\Users\23671\AppData\Local\Temp\cc8GjZ48.s 			page 50


 1978 000c 23F00102 		bic	r2, r3, #1
 1979 0010 0449     		ldr	r1, .L131
 1980 0012 7B68     		ldr	r3, [r7, #4]
 1981 0014 1343     		orrs	r3, r3, r2
 1982 0016 0B63     		str	r3, [r1, #48]
 890:Drivers/STM32H7xx_HAL_Driver/Src/stm32h7xx_hal.c **** }
 1983              		.loc 1 890 1
 1984 0018 00BF     		nop
 1985 001a 0C37     		adds	r7, r7, #12
 1986              	.LCFI162:
 1987              		.cfi_def_cfa_offset 4
 1988 001c BD46     		mov	sp, r7
 1989              	.LCFI163:
 1990              		.cfi_def_cfa_register 13
 1991              		@ sp needed
 1992 001e 5DF8047B 		ldr	r7, [sp], #4
 1993              	.LCFI164:
 1994              		.cfi_restore 7
 1995              		.cfi_def_cfa_offset 0
 1996 0022 7047     		bx	lr
 1997              	.L132:
 1998              		.align	2
 1999              	.L131:
 2000 0024 00040058 		.word	1476396032
 2001              		.cfi_endproc
 2002              	.LFE179:
 2004              		.section	.text.HAL_SYSCFG_ADC2ALT_Rout1Config,"ax",%progbits
 2005              		.align	1
 2006              		.global	HAL_SYSCFG_ADC2ALT_Rout1Config
 2007              		.syntax unified
 2008              		.thumb
 2009              		.thumb_func
 2011              	HAL_SYSCFG_ADC2ALT_Rout1Config:
 2012              	.LFB180:
 891:Drivers/STM32H7xx_HAL_Driver/Src/stm32h7xx_hal.c **** #endif /*SYSCFG_ADC2ALT_ADC2_ROUT0*/
 892:Drivers/STM32H7xx_HAL_Driver/Src/stm32h7xx_hal.c **** 
 893:Drivers/STM32H7xx_HAL_Driver/Src/stm32h7xx_hal.c **** #if defined(SYSCFG_ADC2ALT_ADC2_ROUT1)
 894:Drivers/STM32H7xx_HAL_Driver/Src/stm32h7xx_hal.c **** /** @brief  SYSCFG ADC2 internal input alternate connection macros
 895:Drivers/STM32H7xx_HAL_Driver/Src/stm32h7xx_hal.c ****   * @param Adc2AltRout1  This parameter can be a value of :
 896:Drivers/STM32H7xx_HAL_Driver/Src/stm32h7xx_hal.c ****   *     @arg @ref SYSCFG_ADC2_ROUT1_DAC1_2   DAC1_out2 connected to ADC2 VINP[17]
 897:Drivers/STM32H7xx_HAL_Driver/Src/stm32h7xx_hal.c ****   *     @arg @ref SYSCFG_ADC2_ROUT1_VREFINT  VREFINT connected to ADC2 VINP[17]
 898:Drivers/STM32H7xx_HAL_Driver/Src/stm32h7xx_hal.c ****   */
 899:Drivers/STM32H7xx_HAL_Driver/Src/stm32h7xx_hal.c **** void HAL_SYSCFG_ADC2ALT_Rout1Config(uint32_t Adc2AltRout1)
 900:Drivers/STM32H7xx_HAL_Driver/Src/stm32h7xx_hal.c **** {
 2013              		.loc 1 900 1
 2014              		.cfi_startproc
 2015              		@ args = 0, pretend = 0, frame = 8
 2016              		@ frame_needed = 1, uses_anonymous_args = 0
 2017              		@ link register save eliminated.
 2018 0000 80B4     		push	{r7}
 2019              	.LCFI165:
 2020              		.cfi_def_cfa_offset 4
 2021              		.cfi_offset 7, -4
 2022 0002 83B0     		sub	sp, sp, #12
 2023              	.LCFI166:
 2024              		.cfi_def_cfa_offset 16
 2025 0004 00AF     		add	r7, sp, #0
ARM GAS  C:\Users\23671\AppData\Local\Temp\cc8GjZ48.s 			page 51


 2026              	.LCFI167:
 2027              		.cfi_def_cfa_register 7
 2028 0006 7860     		str	r0, [r7, #4]
 901:Drivers/STM32H7xx_HAL_Driver/Src/stm32h7xx_hal.c ****   /* Check the parameters */
 902:Drivers/STM32H7xx_HAL_Driver/Src/stm32h7xx_hal.c ****   assert_param(IS_SYSCFG_ADC2ALT_ROUT1(Adc2AltRout1));
 903:Drivers/STM32H7xx_HAL_Driver/Src/stm32h7xx_hal.c **** 
 904:Drivers/STM32H7xx_HAL_Driver/Src/stm32h7xx_hal.c ****   MODIFY_REG(SYSCFG->ADC2ALT, SYSCFG_ADC2ALT_ADC2_ROUT1, Adc2AltRout1);
 2029              		.loc 1 904 3
 2030 0008 064B     		ldr	r3, .L134
 2031 000a 1B6B     		ldr	r3, [r3, #48]
 2032 000c 23F00202 		bic	r2, r3, #2
 2033 0010 0449     		ldr	r1, .L134
 2034 0012 7B68     		ldr	r3, [r7, #4]
 2035 0014 1343     		orrs	r3, r3, r2
 2036 0016 0B63     		str	r3, [r1, #48]
 905:Drivers/STM32H7xx_HAL_Driver/Src/stm32h7xx_hal.c **** }
 2037              		.loc 1 905 1
 2038 0018 00BF     		nop
 2039 001a 0C37     		adds	r7, r7, #12
 2040              	.LCFI168:
 2041              		.cfi_def_cfa_offset 4
 2042 001c BD46     		mov	sp, r7
 2043              	.LCFI169:
 2044              		.cfi_def_cfa_register 13
 2045              		@ sp needed
 2046 001e 5DF8047B 		ldr	r7, [sp], #4
 2047              	.LCFI170:
 2048              		.cfi_restore 7
 2049              		.cfi_def_cfa_offset 0
 2050 0022 7047     		bx	lr
 2051              	.L135:
 2052              		.align	2
 2053              	.L134:
 2054 0024 00040058 		.word	1476396032
 2055              		.cfi_endproc
 2056              	.LFE180:
 2058              		.section	.text.HAL_DBGMCU_EnableDBGSleepMode,"ax",%progbits
 2059              		.align	1
 2060              		.global	HAL_DBGMCU_EnableDBGSleepMode
 2061              		.syntax unified
 2062              		.thumb
 2063              		.thumb_func
 2065              	HAL_DBGMCU_EnableDBGSleepMode:
 2066              	.LFB181:
 906:Drivers/STM32H7xx_HAL_Driver/Src/stm32h7xx_hal.c **** #endif /*SYSCFG_ADC2ALT_ADC2_ROUT1*/
 907:Drivers/STM32H7xx_HAL_Driver/Src/stm32h7xx_hal.c **** 
 908:Drivers/STM32H7xx_HAL_Driver/Src/stm32h7xx_hal.c **** /**
 909:Drivers/STM32H7xx_HAL_Driver/Src/stm32h7xx_hal.c ****   * @brief  Enable the Debug Module during Domain1/CDomain SLEEP mode
 910:Drivers/STM32H7xx_HAL_Driver/Src/stm32h7xx_hal.c ****   * @retval None
 911:Drivers/STM32H7xx_HAL_Driver/Src/stm32h7xx_hal.c ****   */
 912:Drivers/STM32H7xx_HAL_Driver/Src/stm32h7xx_hal.c **** void HAL_DBGMCU_EnableDBGSleepMode(void)
 913:Drivers/STM32H7xx_HAL_Driver/Src/stm32h7xx_hal.c **** {
 2067              		.loc 1 913 1
 2068              		.cfi_startproc
 2069              		@ args = 0, pretend = 0, frame = 0
 2070              		@ frame_needed = 1, uses_anonymous_args = 0
 2071              		@ link register save eliminated.
ARM GAS  C:\Users\23671\AppData\Local\Temp\cc8GjZ48.s 			page 52


 2072 0000 80B4     		push	{r7}
 2073              	.LCFI171:
 2074              		.cfi_def_cfa_offset 4
 2075              		.cfi_offset 7, -4
 2076 0002 00AF     		add	r7, sp, #0
 2077              	.LCFI172:
 2078              		.cfi_def_cfa_register 7
 914:Drivers/STM32H7xx_HAL_Driver/Src/stm32h7xx_hal.c ****   SET_BIT(DBGMCU->CR, DBGMCU_CR_DBG_SLEEPD1);
 2079              		.loc 1 914 3
 2080 0004 054B     		ldr	r3, .L137
 2081 0006 5B68     		ldr	r3, [r3, #4]
 2082 0008 044A     		ldr	r2, .L137
 2083 000a 43F00103 		orr	r3, r3, #1
 2084 000e 5360     		str	r3, [r2, #4]
 915:Drivers/STM32H7xx_HAL_Driver/Src/stm32h7xx_hal.c **** }
 2085              		.loc 1 915 1
 2086 0010 00BF     		nop
 2087 0012 BD46     		mov	sp, r7
 2088              	.LCFI173:
 2089              		.cfi_def_cfa_register 13
 2090              		@ sp needed
 2091 0014 5DF8047B 		ldr	r7, [sp], #4
 2092              	.LCFI174:
 2093              		.cfi_restore 7
 2094              		.cfi_def_cfa_offset 0
 2095 0018 7047     		bx	lr
 2096              	.L138:
 2097 001a 00BF     		.align	2
 2098              	.L137:
 2099 001c 0010005C 		.word	1543507968
 2100              		.cfi_endproc
 2101              	.LFE181:
 2103              		.section	.text.HAL_DBGMCU_DisableDBGSleepMode,"ax",%progbits
 2104              		.align	1
 2105              		.global	HAL_DBGMCU_DisableDBGSleepMode
 2106              		.syntax unified
 2107              		.thumb
 2108              		.thumb_func
 2110              	HAL_DBGMCU_DisableDBGSleepMode:
 2111              	.LFB182:
 916:Drivers/STM32H7xx_HAL_Driver/Src/stm32h7xx_hal.c **** 
 917:Drivers/STM32H7xx_HAL_Driver/Src/stm32h7xx_hal.c **** /**
 918:Drivers/STM32H7xx_HAL_Driver/Src/stm32h7xx_hal.c ****   * @brief  Disable the Debug Module during Domain1/CDomain SLEEP mode
 919:Drivers/STM32H7xx_HAL_Driver/Src/stm32h7xx_hal.c ****   * @retval None
 920:Drivers/STM32H7xx_HAL_Driver/Src/stm32h7xx_hal.c ****   */
 921:Drivers/STM32H7xx_HAL_Driver/Src/stm32h7xx_hal.c **** void HAL_DBGMCU_DisableDBGSleepMode(void)
 922:Drivers/STM32H7xx_HAL_Driver/Src/stm32h7xx_hal.c **** {
 2112              		.loc 1 922 1
 2113              		.cfi_startproc
 2114              		@ args = 0, pretend = 0, frame = 0
 2115              		@ frame_needed = 1, uses_anonymous_args = 0
 2116              		@ link register save eliminated.
 2117 0000 80B4     		push	{r7}
 2118              	.LCFI175:
 2119              		.cfi_def_cfa_offset 4
 2120              		.cfi_offset 7, -4
 2121 0002 00AF     		add	r7, sp, #0
ARM GAS  C:\Users\23671\AppData\Local\Temp\cc8GjZ48.s 			page 53


 2122              	.LCFI176:
 2123              		.cfi_def_cfa_register 7
 923:Drivers/STM32H7xx_HAL_Driver/Src/stm32h7xx_hal.c ****   CLEAR_BIT(DBGMCU->CR, DBGMCU_CR_DBG_SLEEPD1);
 2124              		.loc 1 923 3
 2125 0004 054B     		ldr	r3, .L140
 2126 0006 5B68     		ldr	r3, [r3, #4]
 2127 0008 044A     		ldr	r2, .L140
 2128 000a 23F00103 		bic	r3, r3, #1
 2129 000e 5360     		str	r3, [r2, #4]
 924:Drivers/STM32H7xx_HAL_Driver/Src/stm32h7xx_hal.c **** }
 2130              		.loc 1 924 1
 2131 0010 00BF     		nop
 2132 0012 BD46     		mov	sp, r7
 2133              	.LCFI177:
 2134              		.cfi_def_cfa_register 13
 2135              		@ sp needed
 2136 0014 5DF8047B 		ldr	r7, [sp], #4
 2137              	.LCFI178:
 2138              		.cfi_restore 7
 2139              		.cfi_def_cfa_offset 0
 2140 0018 7047     		bx	lr
 2141              	.L141:
 2142 001a 00BF     		.align	2
 2143              	.L140:
 2144 001c 0010005C 		.word	1543507968
 2145              		.cfi_endproc
 2146              	.LFE182:
 2148              		.section	.text.HAL_DBGMCU_EnableDBGStopMode,"ax",%progbits
 2149              		.align	1
 2150              		.global	HAL_DBGMCU_EnableDBGStopMode
 2151              		.syntax unified
 2152              		.thumb
 2153              		.thumb_func
 2155              	HAL_DBGMCU_EnableDBGStopMode:
 2156              	.LFB183:
 925:Drivers/STM32H7xx_HAL_Driver/Src/stm32h7xx_hal.c **** 
 926:Drivers/STM32H7xx_HAL_Driver/Src/stm32h7xx_hal.c **** 
 927:Drivers/STM32H7xx_HAL_Driver/Src/stm32h7xx_hal.c **** /**
 928:Drivers/STM32H7xx_HAL_Driver/Src/stm32h7xx_hal.c ****   * @brief  Enable the Debug Module during Domain1/CDomain STOP mode
 929:Drivers/STM32H7xx_HAL_Driver/Src/stm32h7xx_hal.c ****   * @retval None
 930:Drivers/STM32H7xx_HAL_Driver/Src/stm32h7xx_hal.c ****   */
 931:Drivers/STM32H7xx_HAL_Driver/Src/stm32h7xx_hal.c **** void HAL_DBGMCU_EnableDBGStopMode(void)
 932:Drivers/STM32H7xx_HAL_Driver/Src/stm32h7xx_hal.c **** {
 2157              		.loc 1 932 1
 2158              		.cfi_startproc
 2159              		@ args = 0, pretend = 0, frame = 0
 2160              		@ frame_needed = 1, uses_anonymous_args = 0
 2161              		@ link register save eliminated.
 2162 0000 80B4     		push	{r7}
 2163              	.LCFI179:
 2164              		.cfi_def_cfa_offset 4
 2165              		.cfi_offset 7, -4
 2166 0002 00AF     		add	r7, sp, #0
 2167              	.LCFI180:
 2168              		.cfi_def_cfa_register 7
 933:Drivers/STM32H7xx_HAL_Driver/Src/stm32h7xx_hal.c ****   SET_BIT(DBGMCU->CR, DBGMCU_CR_DBG_STOPD1);
 2169              		.loc 1 933 3
ARM GAS  C:\Users\23671\AppData\Local\Temp\cc8GjZ48.s 			page 54


 2170 0004 054B     		ldr	r3, .L143
 2171 0006 5B68     		ldr	r3, [r3, #4]
 2172 0008 044A     		ldr	r2, .L143
 2173 000a 43F00203 		orr	r3, r3, #2
 2174 000e 5360     		str	r3, [r2, #4]
 934:Drivers/STM32H7xx_HAL_Driver/Src/stm32h7xx_hal.c **** }
 2175              		.loc 1 934 1
 2176 0010 00BF     		nop
 2177 0012 BD46     		mov	sp, r7
 2178              	.LCFI181:
 2179              		.cfi_def_cfa_register 13
 2180              		@ sp needed
 2181 0014 5DF8047B 		ldr	r7, [sp], #4
 2182              	.LCFI182:
 2183              		.cfi_restore 7
 2184              		.cfi_def_cfa_offset 0
 2185 0018 7047     		bx	lr
 2186              	.L144:
 2187 001a 00BF     		.align	2
 2188              	.L143:
 2189 001c 0010005C 		.word	1543507968
 2190              		.cfi_endproc
 2191              	.LFE183:
 2193              		.section	.text.HAL_DBGMCU_DisableDBGStopMode,"ax",%progbits
 2194              		.align	1
 2195              		.global	HAL_DBGMCU_DisableDBGStopMode
 2196              		.syntax unified
 2197              		.thumb
 2198              		.thumb_func
 2200              	HAL_DBGMCU_DisableDBGStopMode:
 2201              	.LFB184:
 935:Drivers/STM32H7xx_HAL_Driver/Src/stm32h7xx_hal.c **** 
 936:Drivers/STM32H7xx_HAL_Driver/Src/stm32h7xx_hal.c **** /**
 937:Drivers/STM32H7xx_HAL_Driver/Src/stm32h7xx_hal.c ****   * @brief  Disable the Debug Module during Domain1/CDomain STOP mode
 938:Drivers/STM32H7xx_HAL_Driver/Src/stm32h7xx_hal.c ****   * @retval None
 939:Drivers/STM32H7xx_HAL_Driver/Src/stm32h7xx_hal.c ****   */
 940:Drivers/STM32H7xx_HAL_Driver/Src/stm32h7xx_hal.c **** void HAL_DBGMCU_DisableDBGStopMode(void)
 941:Drivers/STM32H7xx_HAL_Driver/Src/stm32h7xx_hal.c **** {
 2202              		.loc 1 941 1
 2203              		.cfi_startproc
 2204              		@ args = 0, pretend = 0, frame = 0
 2205              		@ frame_needed = 1, uses_anonymous_args = 0
 2206              		@ link register save eliminated.
 2207 0000 80B4     		push	{r7}
 2208              	.LCFI183:
 2209              		.cfi_def_cfa_offset 4
 2210              		.cfi_offset 7, -4
 2211 0002 00AF     		add	r7, sp, #0
 2212              	.LCFI184:
 2213              		.cfi_def_cfa_register 7
 942:Drivers/STM32H7xx_HAL_Driver/Src/stm32h7xx_hal.c ****   CLEAR_BIT(DBGMCU->CR, DBGMCU_CR_DBG_STOPD1);
 2214              		.loc 1 942 3
 2215 0004 054B     		ldr	r3, .L146
 2216 0006 5B68     		ldr	r3, [r3, #4]
 2217 0008 044A     		ldr	r2, .L146
 2218 000a 23F00203 		bic	r3, r3, #2
 2219 000e 5360     		str	r3, [r2, #4]
ARM GAS  C:\Users\23671\AppData\Local\Temp\cc8GjZ48.s 			page 55


 943:Drivers/STM32H7xx_HAL_Driver/Src/stm32h7xx_hal.c **** }
 2220              		.loc 1 943 1
 2221 0010 00BF     		nop
 2222 0012 BD46     		mov	sp, r7
 2223              	.LCFI185:
 2224              		.cfi_def_cfa_register 13
 2225              		@ sp needed
 2226 0014 5DF8047B 		ldr	r7, [sp], #4
 2227              	.LCFI186:
 2228              		.cfi_restore 7
 2229              		.cfi_def_cfa_offset 0
 2230 0018 7047     		bx	lr
 2231              	.L147:
 2232 001a 00BF     		.align	2
 2233              	.L146:
 2234 001c 0010005C 		.word	1543507968
 2235              		.cfi_endproc
 2236              	.LFE184:
 2238              		.section	.text.HAL_DBGMCU_EnableDBGStandbyMode,"ax",%progbits
 2239              		.align	1
 2240              		.global	HAL_DBGMCU_EnableDBGStandbyMode
 2241              		.syntax unified
 2242              		.thumb
 2243              		.thumb_func
 2245              	HAL_DBGMCU_EnableDBGStandbyMode:
 2246              	.LFB185:
 944:Drivers/STM32H7xx_HAL_Driver/Src/stm32h7xx_hal.c **** 
 945:Drivers/STM32H7xx_HAL_Driver/Src/stm32h7xx_hal.c **** /**
 946:Drivers/STM32H7xx_HAL_Driver/Src/stm32h7xx_hal.c ****   * @brief  Enable the Debug Module during Domain1/CDomain STANDBY mode
 947:Drivers/STM32H7xx_HAL_Driver/Src/stm32h7xx_hal.c ****   * @retval None
 948:Drivers/STM32H7xx_HAL_Driver/Src/stm32h7xx_hal.c ****   */
 949:Drivers/STM32H7xx_HAL_Driver/Src/stm32h7xx_hal.c **** void HAL_DBGMCU_EnableDBGStandbyMode(void)
 950:Drivers/STM32H7xx_HAL_Driver/Src/stm32h7xx_hal.c **** {
 2247              		.loc 1 950 1
 2248              		.cfi_startproc
 2249              		@ args = 0, pretend = 0, frame = 0
 2250              		@ frame_needed = 1, uses_anonymous_args = 0
 2251              		@ link register save eliminated.
 2252 0000 80B4     		push	{r7}
 2253              	.LCFI187:
 2254              		.cfi_def_cfa_offset 4
 2255              		.cfi_offset 7, -4
 2256 0002 00AF     		add	r7, sp, #0
 2257              	.LCFI188:
 2258              		.cfi_def_cfa_register 7
 951:Drivers/STM32H7xx_HAL_Driver/Src/stm32h7xx_hal.c ****   SET_BIT(DBGMCU->CR, DBGMCU_CR_DBG_STANDBYD1);
 2259              		.loc 1 951 3
 2260 0004 054B     		ldr	r3, .L149
 2261 0006 5B68     		ldr	r3, [r3, #4]
 2262 0008 044A     		ldr	r2, .L149
 2263 000a 43F00403 		orr	r3, r3, #4
 2264 000e 5360     		str	r3, [r2, #4]
 952:Drivers/STM32H7xx_HAL_Driver/Src/stm32h7xx_hal.c **** }
 2265              		.loc 1 952 1
 2266 0010 00BF     		nop
 2267 0012 BD46     		mov	sp, r7
 2268              	.LCFI189:
ARM GAS  C:\Users\23671\AppData\Local\Temp\cc8GjZ48.s 			page 56


 2269              		.cfi_def_cfa_register 13
 2270              		@ sp needed
 2271 0014 5DF8047B 		ldr	r7, [sp], #4
 2272              	.LCFI190:
 2273              		.cfi_restore 7
 2274              		.cfi_def_cfa_offset 0
 2275 0018 7047     		bx	lr
 2276              	.L150:
 2277 001a 00BF     		.align	2
 2278              	.L149:
 2279 001c 0010005C 		.word	1543507968
 2280              		.cfi_endproc
 2281              	.LFE185:
 2283              		.section	.text.HAL_DBGMCU_DisableDBGStandbyMode,"ax",%progbits
 2284              		.align	1
 2285              		.global	HAL_DBGMCU_DisableDBGStandbyMode
 2286              		.syntax unified
 2287              		.thumb
 2288              		.thumb_func
 2290              	HAL_DBGMCU_DisableDBGStandbyMode:
 2291              	.LFB186:
 953:Drivers/STM32H7xx_HAL_Driver/Src/stm32h7xx_hal.c **** 
 954:Drivers/STM32H7xx_HAL_Driver/Src/stm32h7xx_hal.c **** /**
 955:Drivers/STM32H7xx_HAL_Driver/Src/stm32h7xx_hal.c ****   * @brief  Disable the Debug Module during Domain1/CDomain STANDBY mode
 956:Drivers/STM32H7xx_HAL_Driver/Src/stm32h7xx_hal.c ****   * @retval None
 957:Drivers/STM32H7xx_HAL_Driver/Src/stm32h7xx_hal.c ****   */
 958:Drivers/STM32H7xx_HAL_Driver/Src/stm32h7xx_hal.c **** void HAL_DBGMCU_DisableDBGStandbyMode(void)
 959:Drivers/STM32H7xx_HAL_Driver/Src/stm32h7xx_hal.c **** {
 2292              		.loc 1 959 1
 2293              		.cfi_startproc
 2294              		@ args = 0, pretend = 0, frame = 0
 2295              		@ frame_needed = 1, uses_anonymous_args = 0
 2296              		@ link register save eliminated.
 2297 0000 80B4     		push	{r7}
 2298              	.LCFI191:
 2299              		.cfi_def_cfa_offset 4
 2300              		.cfi_offset 7, -4
 2301 0002 00AF     		add	r7, sp, #0
 2302              	.LCFI192:
 2303              		.cfi_def_cfa_register 7
 960:Drivers/STM32H7xx_HAL_Driver/Src/stm32h7xx_hal.c ****   CLEAR_BIT(DBGMCU->CR, DBGMCU_CR_DBG_STANDBYD1);
 2304              		.loc 1 960 3
 2305 0004 054B     		ldr	r3, .L152
 2306 0006 5B68     		ldr	r3, [r3, #4]
 2307 0008 044A     		ldr	r2, .L152
 2308 000a 23F00403 		bic	r3, r3, #4
 2309 000e 5360     		str	r3, [r2, #4]
 961:Drivers/STM32H7xx_HAL_Driver/Src/stm32h7xx_hal.c **** }
 2310              		.loc 1 961 1
 2311 0010 00BF     		nop
 2312 0012 BD46     		mov	sp, r7
 2313              	.LCFI193:
 2314              		.cfi_def_cfa_register 13
 2315              		@ sp needed
 2316 0014 5DF8047B 		ldr	r7, [sp], #4
 2317              	.LCFI194:
 2318              		.cfi_restore 7
ARM GAS  C:\Users\23671\AppData\Local\Temp\cc8GjZ48.s 			page 57


 2319              		.cfi_def_cfa_offset 0
 2320 0018 7047     		bx	lr
 2321              	.L153:
 2322 001a 00BF     		.align	2
 2323              	.L152:
 2324 001c 0010005C 		.word	1543507968
 2325              		.cfi_endproc
 2326              	.LFE186:
 2328              		.section	.text.HAL_EnableDomain3DBGStopMode,"ax",%progbits
 2329              		.align	1
 2330              		.global	HAL_EnableDomain3DBGStopMode
 2331              		.syntax unified
 2332              		.thumb
 2333              		.thumb_func
 2335              	HAL_EnableDomain3DBGStopMode:
 2336              	.LFB187:
 962:Drivers/STM32H7xx_HAL_Driver/Src/stm32h7xx_hal.c **** 
 963:Drivers/STM32H7xx_HAL_Driver/Src/stm32h7xx_hal.c **** #if defined(DUAL_CORE)
 964:Drivers/STM32H7xx_HAL_Driver/Src/stm32h7xx_hal.c **** /**
 965:Drivers/STM32H7xx_HAL_Driver/Src/stm32h7xx_hal.c ****   * @brief  Enable the Debug Module during Domain1 SLEEP mode
 966:Drivers/STM32H7xx_HAL_Driver/Src/stm32h7xx_hal.c ****   * @retval None
 967:Drivers/STM32H7xx_HAL_Driver/Src/stm32h7xx_hal.c ****   */
 968:Drivers/STM32H7xx_HAL_Driver/Src/stm32h7xx_hal.c **** void HAL_EnableDomain2DBGSleepMode(void)
 969:Drivers/STM32H7xx_HAL_Driver/Src/stm32h7xx_hal.c **** {
 970:Drivers/STM32H7xx_HAL_Driver/Src/stm32h7xx_hal.c ****   SET_BIT(DBGMCU->CR, DBGMCU_CR_DBG_SLEEPD2);
 971:Drivers/STM32H7xx_HAL_Driver/Src/stm32h7xx_hal.c **** }
 972:Drivers/STM32H7xx_HAL_Driver/Src/stm32h7xx_hal.c **** 
 973:Drivers/STM32H7xx_HAL_Driver/Src/stm32h7xx_hal.c **** /**
 974:Drivers/STM32H7xx_HAL_Driver/Src/stm32h7xx_hal.c ****   * @brief  Disable the Debug Module during Domain2 SLEEP mode
 975:Drivers/STM32H7xx_HAL_Driver/Src/stm32h7xx_hal.c ****   * @retval None
 976:Drivers/STM32H7xx_HAL_Driver/Src/stm32h7xx_hal.c ****   */
 977:Drivers/STM32H7xx_HAL_Driver/Src/stm32h7xx_hal.c **** void HAL_DisableDomain2DBGSleepMode(void)
 978:Drivers/STM32H7xx_HAL_Driver/Src/stm32h7xx_hal.c **** {
 979:Drivers/STM32H7xx_HAL_Driver/Src/stm32h7xx_hal.c ****   CLEAR_BIT(DBGMCU->CR, DBGMCU_CR_DBG_SLEEPD2);
 980:Drivers/STM32H7xx_HAL_Driver/Src/stm32h7xx_hal.c **** }
 981:Drivers/STM32H7xx_HAL_Driver/Src/stm32h7xx_hal.c **** 
 982:Drivers/STM32H7xx_HAL_Driver/Src/stm32h7xx_hal.c **** /**
 983:Drivers/STM32H7xx_HAL_Driver/Src/stm32h7xx_hal.c ****   * @brief  Enable the Debug Module during Domain2 STOP mode
 984:Drivers/STM32H7xx_HAL_Driver/Src/stm32h7xx_hal.c ****   * @retval None
 985:Drivers/STM32H7xx_HAL_Driver/Src/stm32h7xx_hal.c ****   */
 986:Drivers/STM32H7xx_HAL_Driver/Src/stm32h7xx_hal.c **** void HAL_EnableDomain2DBGStopMode(void)
 987:Drivers/STM32H7xx_HAL_Driver/Src/stm32h7xx_hal.c **** {
 988:Drivers/STM32H7xx_HAL_Driver/Src/stm32h7xx_hal.c ****   SET_BIT(DBGMCU->CR, DBGMCU_CR_DBG_STOPD2);
 989:Drivers/STM32H7xx_HAL_Driver/Src/stm32h7xx_hal.c **** }
 990:Drivers/STM32H7xx_HAL_Driver/Src/stm32h7xx_hal.c **** 
 991:Drivers/STM32H7xx_HAL_Driver/Src/stm32h7xx_hal.c **** /**
 992:Drivers/STM32H7xx_HAL_Driver/Src/stm32h7xx_hal.c ****   * @brief  Disable the Debug Module during Domain2 STOP mode
 993:Drivers/STM32H7xx_HAL_Driver/Src/stm32h7xx_hal.c ****   * @retval None
 994:Drivers/STM32H7xx_HAL_Driver/Src/stm32h7xx_hal.c ****   */
 995:Drivers/STM32H7xx_HAL_Driver/Src/stm32h7xx_hal.c **** void HAL_DisableDomain2DBGStopMode(void)
 996:Drivers/STM32H7xx_HAL_Driver/Src/stm32h7xx_hal.c **** {
 997:Drivers/STM32H7xx_HAL_Driver/Src/stm32h7xx_hal.c ****   CLEAR_BIT(DBGMCU->CR, DBGMCU_CR_DBG_STOPD2);
 998:Drivers/STM32H7xx_HAL_Driver/Src/stm32h7xx_hal.c **** }
 999:Drivers/STM32H7xx_HAL_Driver/Src/stm32h7xx_hal.c **** 
1000:Drivers/STM32H7xx_HAL_Driver/Src/stm32h7xx_hal.c **** /**
1001:Drivers/STM32H7xx_HAL_Driver/Src/stm32h7xx_hal.c ****   * @brief  Enable the Debug Module during Domain2 STANDBY mode
1002:Drivers/STM32H7xx_HAL_Driver/Src/stm32h7xx_hal.c ****   * @retval None
ARM GAS  C:\Users\23671\AppData\Local\Temp\cc8GjZ48.s 			page 58


1003:Drivers/STM32H7xx_HAL_Driver/Src/stm32h7xx_hal.c ****   */
1004:Drivers/STM32H7xx_HAL_Driver/Src/stm32h7xx_hal.c **** void HAL_EnableDomain2DBGStandbyMode(void)
1005:Drivers/STM32H7xx_HAL_Driver/Src/stm32h7xx_hal.c **** {
1006:Drivers/STM32H7xx_HAL_Driver/Src/stm32h7xx_hal.c ****   SET_BIT(DBGMCU->CR, DBGMCU_CR_DBG_STANDBYD2);
1007:Drivers/STM32H7xx_HAL_Driver/Src/stm32h7xx_hal.c **** }
1008:Drivers/STM32H7xx_HAL_Driver/Src/stm32h7xx_hal.c **** 
1009:Drivers/STM32H7xx_HAL_Driver/Src/stm32h7xx_hal.c **** /**
1010:Drivers/STM32H7xx_HAL_Driver/Src/stm32h7xx_hal.c ****   * @brief  Disable the Debug Module during Domain2 STANDBY mode
1011:Drivers/STM32H7xx_HAL_Driver/Src/stm32h7xx_hal.c ****   * @retval None
1012:Drivers/STM32H7xx_HAL_Driver/Src/stm32h7xx_hal.c ****   */
1013:Drivers/STM32H7xx_HAL_Driver/Src/stm32h7xx_hal.c **** void HAL_DisableDomain2DBGStandbyMode(void)
1014:Drivers/STM32H7xx_HAL_Driver/Src/stm32h7xx_hal.c **** {
1015:Drivers/STM32H7xx_HAL_Driver/Src/stm32h7xx_hal.c ****   CLEAR_BIT(DBGMCU->CR, DBGMCU_CR_DBG_STANDBYD2);
1016:Drivers/STM32H7xx_HAL_Driver/Src/stm32h7xx_hal.c **** }
1017:Drivers/STM32H7xx_HAL_Driver/Src/stm32h7xx_hal.c **** #endif /*DUAL_CORE*/
1018:Drivers/STM32H7xx_HAL_Driver/Src/stm32h7xx_hal.c **** 
1019:Drivers/STM32H7xx_HAL_Driver/Src/stm32h7xx_hal.c **** #if defined(DBGMCU_CR_DBG_STOPD3)
1020:Drivers/STM32H7xx_HAL_Driver/Src/stm32h7xx_hal.c **** /**
1021:Drivers/STM32H7xx_HAL_Driver/Src/stm32h7xx_hal.c ****   * @brief  Enable the Debug Module during Domain3/SRDomain STOP mode
1022:Drivers/STM32H7xx_HAL_Driver/Src/stm32h7xx_hal.c ****   * @retval None
1023:Drivers/STM32H7xx_HAL_Driver/Src/stm32h7xx_hal.c ****   */
1024:Drivers/STM32H7xx_HAL_Driver/Src/stm32h7xx_hal.c **** void HAL_EnableDomain3DBGStopMode(void)
1025:Drivers/STM32H7xx_HAL_Driver/Src/stm32h7xx_hal.c **** {
 2337              		.loc 1 1025 1
 2338              		.cfi_startproc
 2339              		@ args = 0, pretend = 0, frame = 0
 2340              		@ frame_needed = 1, uses_anonymous_args = 0
 2341              		@ link register save eliminated.
 2342 0000 80B4     		push	{r7}
 2343              	.LCFI195:
 2344              		.cfi_def_cfa_offset 4
 2345              		.cfi_offset 7, -4
 2346 0002 00AF     		add	r7, sp, #0
 2347              	.LCFI196:
 2348              		.cfi_def_cfa_register 7
1026:Drivers/STM32H7xx_HAL_Driver/Src/stm32h7xx_hal.c ****   SET_BIT(DBGMCU->CR, DBGMCU_CR_DBG_STOPD3);
 2349              		.loc 1 1026 3
 2350 0004 054B     		ldr	r3, .L155
 2351 0006 5B68     		ldr	r3, [r3, #4]
 2352 0008 044A     		ldr	r2, .L155
 2353 000a 43F08003 		orr	r3, r3, #128
 2354 000e 5360     		str	r3, [r2, #4]
1027:Drivers/STM32H7xx_HAL_Driver/Src/stm32h7xx_hal.c **** }
 2355              		.loc 1 1027 1
 2356 0010 00BF     		nop
 2357 0012 BD46     		mov	sp, r7
 2358              	.LCFI197:
 2359              		.cfi_def_cfa_register 13
 2360              		@ sp needed
 2361 0014 5DF8047B 		ldr	r7, [sp], #4
 2362              	.LCFI198:
 2363              		.cfi_restore 7
 2364              		.cfi_def_cfa_offset 0
 2365 0018 7047     		bx	lr
 2366              	.L156:
 2367 001a 00BF     		.align	2
 2368              	.L155:
ARM GAS  C:\Users\23671\AppData\Local\Temp\cc8GjZ48.s 			page 59


 2369 001c 0010005C 		.word	1543507968
 2370              		.cfi_endproc
 2371              	.LFE187:
 2373              		.section	.text.HAL_DisableDomain3DBGStopMode,"ax",%progbits
 2374              		.align	1
 2375              		.global	HAL_DisableDomain3DBGStopMode
 2376              		.syntax unified
 2377              		.thumb
 2378              		.thumb_func
 2380              	HAL_DisableDomain3DBGStopMode:
 2381              	.LFB188:
1028:Drivers/STM32H7xx_HAL_Driver/Src/stm32h7xx_hal.c **** 
1029:Drivers/STM32H7xx_HAL_Driver/Src/stm32h7xx_hal.c **** /**
1030:Drivers/STM32H7xx_HAL_Driver/Src/stm32h7xx_hal.c ****   * @brief  Disable the Debug Module during Domain3/SRDomain STOP mode
1031:Drivers/STM32H7xx_HAL_Driver/Src/stm32h7xx_hal.c ****   * @retval None
1032:Drivers/STM32H7xx_HAL_Driver/Src/stm32h7xx_hal.c ****   */
1033:Drivers/STM32H7xx_HAL_Driver/Src/stm32h7xx_hal.c **** void HAL_DisableDomain3DBGStopMode(void)
1034:Drivers/STM32H7xx_HAL_Driver/Src/stm32h7xx_hal.c **** {
 2382              		.loc 1 1034 1
 2383              		.cfi_startproc
 2384              		@ args = 0, pretend = 0, frame = 0
 2385              		@ frame_needed = 1, uses_anonymous_args = 0
 2386              		@ link register save eliminated.
 2387 0000 80B4     		push	{r7}
 2388              	.LCFI199:
 2389              		.cfi_def_cfa_offset 4
 2390              		.cfi_offset 7, -4
 2391 0002 00AF     		add	r7, sp, #0
 2392              	.LCFI200:
 2393              		.cfi_def_cfa_register 7
1035:Drivers/STM32H7xx_HAL_Driver/Src/stm32h7xx_hal.c ****   CLEAR_BIT(DBGMCU->CR, DBGMCU_CR_DBG_STOPD3);
 2394              		.loc 1 1035 3
 2395 0004 054B     		ldr	r3, .L158
 2396 0006 5B68     		ldr	r3, [r3, #4]
 2397 0008 044A     		ldr	r2, .L158
 2398 000a 23F08003 		bic	r3, r3, #128
 2399 000e 5360     		str	r3, [r2, #4]
1036:Drivers/STM32H7xx_HAL_Driver/Src/stm32h7xx_hal.c **** }
 2400              		.loc 1 1036 1
 2401 0010 00BF     		nop
 2402 0012 BD46     		mov	sp, r7
 2403              	.LCFI201:
 2404              		.cfi_def_cfa_register 13
 2405              		@ sp needed
 2406 0014 5DF8047B 		ldr	r7, [sp], #4
 2407              	.LCFI202:
 2408              		.cfi_restore 7
 2409              		.cfi_def_cfa_offset 0
 2410 0018 7047     		bx	lr
 2411              	.L159:
 2412 001a 00BF     		.align	2
 2413              	.L158:
 2414 001c 0010005C 		.word	1543507968
 2415              		.cfi_endproc
 2416              	.LFE188:
 2418              		.section	.text.HAL_EnableDomain3DBGStandbyMode,"ax",%progbits
 2419              		.align	1
ARM GAS  C:\Users\23671\AppData\Local\Temp\cc8GjZ48.s 			page 60


 2420              		.global	HAL_EnableDomain3DBGStandbyMode
 2421              		.syntax unified
 2422              		.thumb
 2423              		.thumb_func
 2425              	HAL_EnableDomain3DBGStandbyMode:
 2426              	.LFB189:
1037:Drivers/STM32H7xx_HAL_Driver/Src/stm32h7xx_hal.c **** #endif /*DBGMCU_CR_DBG_STOPD3*/
1038:Drivers/STM32H7xx_HAL_Driver/Src/stm32h7xx_hal.c **** 
1039:Drivers/STM32H7xx_HAL_Driver/Src/stm32h7xx_hal.c **** #if defined(DBGMCU_CR_DBG_STANDBYD3)
1040:Drivers/STM32H7xx_HAL_Driver/Src/stm32h7xx_hal.c **** /**
1041:Drivers/STM32H7xx_HAL_Driver/Src/stm32h7xx_hal.c ****   * @brief  Enable the Debug Module during Domain3/SRDomain STANDBY mode
1042:Drivers/STM32H7xx_HAL_Driver/Src/stm32h7xx_hal.c ****   * @retval None
1043:Drivers/STM32H7xx_HAL_Driver/Src/stm32h7xx_hal.c ****   */
1044:Drivers/STM32H7xx_HAL_Driver/Src/stm32h7xx_hal.c **** void HAL_EnableDomain3DBGStandbyMode(void)
1045:Drivers/STM32H7xx_HAL_Driver/Src/stm32h7xx_hal.c **** {
 2427              		.loc 1 1045 1
 2428              		.cfi_startproc
 2429              		@ args = 0, pretend = 0, frame = 0
 2430              		@ frame_needed = 1, uses_anonymous_args = 0
 2431              		@ link register save eliminated.
 2432 0000 80B4     		push	{r7}
 2433              	.LCFI203:
 2434              		.cfi_def_cfa_offset 4
 2435              		.cfi_offset 7, -4
 2436 0002 00AF     		add	r7, sp, #0
 2437              	.LCFI204:
 2438              		.cfi_def_cfa_register 7
1046:Drivers/STM32H7xx_HAL_Driver/Src/stm32h7xx_hal.c ****   SET_BIT(DBGMCU->CR, DBGMCU_CR_DBG_STANDBYD3);
 2439              		.loc 1 1046 3
 2440 0004 054B     		ldr	r3, .L161
 2441 0006 5B68     		ldr	r3, [r3, #4]
 2442 0008 044A     		ldr	r2, .L161
 2443 000a 43F48073 		orr	r3, r3, #256
 2444 000e 5360     		str	r3, [r2, #4]
1047:Drivers/STM32H7xx_HAL_Driver/Src/stm32h7xx_hal.c **** }
 2445              		.loc 1 1047 1
 2446 0010 00BF     		nop
 2447 0012 BD46     		mov	sp, r7
 2448              	.LCFI205:
 2449              		.cfi_def_cfa_register 13
 2450              		@ sp needed
 2451 0014 5DF8047B 		ldr	r7, [sp], #4
 2452              	.LCFI206:
 2453              		.cfi_restore 7
 2454              		.cfi_def_cfa_offset 0
 2455 0018 7047     		bx	lr
 2456              	.L162:
 2457 001a 00BF     		.align	2
 2458              	.L161:
 2459 001c 0010005C 		.word	1543507968
 2460              		.cfi_endproc
 2461              	.LFE189:
 2463              		.section	.text.HAL_DisableDomain3DBGStandbyMode,"ax",%progbits
 2464              		.align	1
 2465              		.global	HAL_DisableDomain3DBGStandbyMode
 2466              		.syntax unified
 2467              		.thumb
ARM GAS  C:\Users\23671\AppData\Local\Temp\cc8GjZ48.s 			page 61


 2468              		.thumb_func
 2470              	HAL_DisableDomain3DBGStandbyMode:
 2471              	.LFB190:
1048:Drivers/STM32H7xx_HAL_Driver/Src/stm32h7xx_hal.c **** 
1049:Drivers/STM32H7xx_HAL_Driver/Src/stm32h7xx_hal.c **** /**
1050:Drivers/STM32H7xx_HAL_Driver/Src/stm32h7xx_hal.c ****   * @brief  Disable the Debug Module during Domain3/SRDomain STANDBY mode
1051:Drivers/STM32H7xx_HAL_Driver/Src/stm32h7xx_hal.c ****   * @retval None
1052:Drivers/STM32H7xx_HAL_Driver/Src/stm32h7xx_hal.c ****   */
1053:Drivers/STM32H7xx_HAL_Driver/Src/stm32h7xx_hal.c **** void HAL_DisableDomain3DBGStandbyMode(void)
1054:Drivers/STM32H7xx_HAL_Driver/Src/stm32h7xx_hal.c **** {
 2472              		.loc 1 1054 1
 2473              		.cfi_startproc
 2474              		@ args = 0, pretend = 0, frame = 0
 2475              		@ frame_needed = 1, uses_anonymous_args = 0
 2476              		@ link register save eliminated.
 2477 0000 80B4     		push	{r7}
 2478              	.LCFI207:
 2479              		.cfi_def_cfa_offset 4
 2480              		.cfi_offset 7, -4
 2481 0002 00AF     		add	r7, sp, #0
 2482              	.LCFI208:
 2483              		.cfi_def_cfa_register 7
1055:Drivers/STM32H7xx_HAL_Driver/Src/stm32h7xx_hal.c ****   CLEAR_BIT(DBGMCU->CR, DBGMCU_CR_DBG_STANDBYD3);
 2484              		.loc 1 1055 3
 2485 0004 054B     		ldr	r3, .L164
 2486 0006 5B68     		ldr	r3, [r3, #4]
 2487 0008 044A     		ldr	r2, .L164
 2488 000a 23F48073 		bic	r3, r3, #256
 2489 000e 5360     		str	r3, [r2, #4]
1056:Drivers/STM32H7xx_HAL_Driver/Src/stm32h7xx_hal.c **** }
 2490              		.loc 1 1056 1
 2491 0010 00BF     		nop
 2492 0012 BD46     		mov	sp, r7
 2493              	.LCFI209:
 2494              		.cfi_def_cfa_register 13
 2495              		@ sp needed
 2496 0014 5DF8047B 		ldr	r7, [sp], #4
 2497              	.LCFI210:
 2498              		.cfi_restore 7
 2499              		.cfi_def_cfa_offset 0
 2500 0018 7047     		bx	lr
 2501              	.L165:
 2502 001a 00BF     		.align	2
 2503              	.L164:
 2504 001c 0010005C 		.word	1543507968
 2505              		.cfi_endproc
 2506              	.LFE190:
 2508              		.section	.text.HAL_SetFMCMemorySwappingConfig,"ax",%progbits
 2509              		.align	1
 2510              		.global	HAL_SetFMCMemorySwappingConfig
 2511              		.syntax unified
 2512              		.thumb
 2513              		.thumb_func
 2515              	HAL_SetFMCMemorySwappingConfig:
 2516              	.LFB191:
1057:Drivers/STM32H7xx_HAL_Driver/Src/stm32h7xx_hal.c **** #endif /*DBGMCU_CR_DBG_STANDBYD3*/
1058:Drivers/STM32H7xx_HAL_Driver/Src/stm32h7xx_hal.c **** 
ARM GAS  C:\Users\23671\AppData\Local\Temp\cc8GjZ48.s 			page 62


1059:Drivers/STM32H7xx_HAL_Driver/Src/stm32h7xx_hal.c **** /**
1060:Drivers/STM32H7xx_HAL_Driver/Src/stm32h7xx_hal.c ****   * @brief  Set the FMC Memory Mapping Swapping config.
1061:Drivers/STM32H7xx_HAL_Driver/Src/stm32h7xx_hal.c ****   * @param  BankMapConfig: Defines the FMC Bank mapping configuration. This parameter can be
1062:Drivers/STM32H7xx_HAL_Driver/Src/stm32h7xx_hal.c ****             FMC_SWAPBMAP_DISABLE, FMC_SWAPBMAP_SDRAM_SRAM, FMC_SWAPBMAP_SDRAMB2
1063:Drivers/STM32H7xx_HAL_Driver/Src/stm32h7xx_hal.c ****   * @retval HAL state
1064:Drivers/STM32H7xx_HAL_Driver/Src/stm32h7xx_hal.c ****   */
1065:Drivers/STM32H7xx_HAL_Driver/Src/stm32h7xx_hal.c **** void HAL_SetFMCMemorySwappingConfig(uint32_t BankMapConfig)
1066:Drivers/STM32H7xx_HAL_Driver/Src/stm32h7xx_hal.c **** {
 2517              		.loc 1 1066 1
 2518              		.cfi_startproc
 2519              		@ args = 0, pretend = 0, frame = 8
 2520              		@ frame_needed = 1, uses_anonymous_args = 0
 2521              		@ link register save eliminated.
 2522 0000 80B4     		push	{r7}
 2523              	.LCFI211:
 2524              		.cfi_def_cfa_offset 4
 2525              		.cfi_offset 7, -4
 2526 0002 83B0     		sub	sp, sp, #12
 2527              	.LCFI212:
 2528              		.cfi_def_cfa_offset 16
 2529 0004 00AF     		add	r7, sp, #0
 2530              	.LCFI213:
 2531              		.cfi_def_cfa_register 7
 2532 0006 7860     		str	r0, [r7, #4]
1067:Drivers/STM32H7xx_HAL_Driver/Src/stm32h7xx_hal.c ****   /* Check the parameter */
1068:Drivers/STM32H7xx_HAL_Driver/Src/stm32h7xx_hal.c ****   assert_param(IS_FMC_SWAPBMAP_MODE(BankMapConfig));
1069:Drivers/STM32H7xx_HAL_Driver/Src/stm32h7xx_hal.c ****   MODIFY_REG(FMC_Bank1_R->BTCR[0], FMC_BCR1_BMAP, BankMapConfig);
 2533              		.loc 1 1069 3
 2534 0008 064B     		ldr	r3, .L167
 2535 000a 1B68     		ldr	r3, [r3]
 2536 000c 23F04072 		bic	r2, r3, #50331648
 2537 0010 0449     		ldr	r1, .L167
 2538 0012 7B68     		ldr	r3, [r7, #4]
 2539 0014 1343     		orrs	r3, r3, r2
 2540 0016 0B60     		str	r3, [r1]
1070:Drivers/STM32H7xx_HAL_Driver/Src/stm32h7xx_hal.c **** }
 2541              		.loc 1 1070 1
 2542 0018 00BF     		nop
 2543 001a 0C37     		adds	r7, r7, #12
 2544              	.LCFI214:
 2545              		.cfi_def_cfa_offset 4
 2546 001c BD46     		mov	sp, r7
 2547              	.LCFI215:
 2548              		.cfi_def_cfa_register 13
 2549              		@ sp needed
 2550 001e 5DF8047B 		ldr	r7, [sp], #4
 2551              	.LCFI216:
 2552              		.cfi_restore 7
 2553              		.cfi_def_cfa_offset 0
 2554 0022 7047     		bx	lr
 2555              	.L168:
 2556              		.align	2
 2557              	.L167:
 2558 0024 00400052 		.word	1375748096
 2559              		.cfi_endproc
 2560              	.LFE191:
 2562              		.section	.text.HAL_GetFMCMemorySwappingConfig,"ax",%progbits
ARM GAS  C:\Users\23671\AppData\Local\Temp\cc8GjZ48.s 			page 63


 2563              		.align	1
 2564              		.global	HAL_GetFMCMemorySwappingConfig
 2565              		.syntax unified
 2566              		.thumb
 2567              		.thumb_func
 2569              	HAL_GetFMCMemorySwappingConfig:
 2570              	.LFB192:
1071:Drivers/STM32H7xx_HAL_Driver/Src/stm32h7xx_hal.c **** 
1072:Drivers/STM32H7xx_HAL_Driver/Src/stm32h7xx_hal.c **** /**
1073:Drivers/STM32H7xx_HAL_Driver/Src/stm32h7xx_hal.c ****   * @brief  Get FMC Bank mapping mode.
1074:Drivers/STM32H7xx_HAL_Driver/Src/stm32h7xx_hal.c ****   * @retval The FMC Bank mapping mode. This parameter can be
1075:Drivers/STM32H7xx_HAL_Driver/Src/stm32h7xx_hal.c ****             FMC_SWAPBMAP_DISABLE, FMC_SWAPBMAP_SDRAM_SRAM, FMC_SWAPBMAP_SDRAMB2
1076:Drivers/STM32H7xx_HAL_Driver/Src/stm32h7xx_hal.c **** */
1077:Drivers/STM32H7xx_HAL_Driver/Src/stm32h7xx_hal.c **** uint32_t HAL_GetFMCMemorySwappingConfig(void)
1078:Drivers/STM32H7xx_HAL_Driver/Src/stm32h7xx_hal.c **** {
 2571              		.loc 1 1078 1
 2572              		.cfi_startproc
 2573              		@ args = 0, pretend = 0, frame = 0
 2574              		@ frame_needed = 1, uses_anonymous_args = 0
 2575              		@ link register save eliminated.
 2576 0000 80B4     		push	{r7}
 2577              	.LCFI217:
 2578              		.cfi_def_cfa_offset 4
 2579              		.cfi_offset 7, -4
 2580 0002 00AF     		add	r7, sp, #0
 2581              	.LCFI218:
 2582              		.cfi_def_cfa_register 7
1079:Drivers/STM32H7xx_HAL_Driver/Src/stm32h7xx_hal.c ****   return READ_BIT(FMC_Bank1_R->BTCR[0], FMC_BCR1_BMAP);
 2583              		.loc 1 1079 10
 2584 0004 044B     		ldr	r3, .L171
 2585 0006 1B68     		ldr	r3, [r3]
 2586 0008 03F04073 		and	r3, r3, #50331648
1080:Drivers/STM32H7xx_HAL_Driver/Src/stm32h7xx_hal.c **** }
 2587              		.loc 1 1080 1
 2588 000c 1846     		mov	r0, r3
 2589 000e BD46     		mov	sp, r7
 2590              	.LCFI219:
 2591              		.cfi_def_cfa_register 13
 2592              		@ sp needed
 2593 0010 5DF8047B 		ldr	r7, [sp], #4
 2594              	.LCFI220:
 2595              		.cfi_restore 7
 2596              		.cfi_def_cfa_offset 0
 2597 0014 7047     		bx	lr
 2598              	.L172:
 2599 0016 00BF     		.align	2
 2600              	.L171:
 2601 0018 00400052 		.word	1375748096
 2602              		.cfi_endproc
 2603              	.LFE192:
 2605              		.section	.text.HAL_EXTI_EdgeConfig,"ax",%progbits
 2606              		.align	1
 2607              		.global	HAL_EXTI_EdgeConfig
 2608              		.syntax unified
 2609              		.thumb
 2610              		.thumb_func
 2612              	HAL_EXTI_EdgeConfig:
ARM GAS  C:\Users\23671\AppData\Local\Temp\cc8GjZ48.s 			page 64


 2613              	.LFB193:
1081:Drivers/STM32H7xx_HAL_Driver/Src/stm32h7xx_hal.c **** 
1082:Drivers/STM32H7xx_HAL_Driver/Src/stm32h7xx_hal.c **** /**
1083:Drivers/STM32H7xx_HAL_Driver/Src/stm32h7xx_hal.c ****   * @brief  Configure the EXTI input event line edge
1084:Drivers/STM32H7xx_HAL_Driver/Src/stm32h7xx_hal.c ****   * @note    No edge configuration for direct lines but for configurable lines:(EXTI_LINE0..EXTI_LI
1085:Drivers/STM32H7xx_HAL_Driver/Src/stm32h7xx_hal.c ****   *          EXTI_LINE49,EXTI_LINE51,EXTI_LINE82,EXTI_LINE84,EXTI_LINE85 and EXTI_LINE86.
1086:Drivers/STM32H7xx_HAL_Driver/Src/stm32h7xx_hal.c ****   * @param   EXTI_Line: Specifies the EXTI LINE, it can be one of the following values,
1087:Drivers/STM32H7xx_HAL_Driver/Src/stm32h7xx_hal.c ****   *         (EXTI_LINE0....EXTI_LINE87)excluding :line45, line81,line83 which are reserved
1088:Drivers/STM32H7xx_HAL_Driver/Src/stm32h7xx_hal.c ****   * @param   EXTI_Edge: Specifies  EXTI line Edge used.
1089:Drivers/STM32H7xx_HAL_Driver/Src/stm32h7xx_hal.c ****   *          This parameter can be one of the following values :
1090:Drivers/STM32H7xx_HAL_Driver/Src/stm32h7xx_hal.c ****   *   @arg EXTI_RISING_EDGE : Configurable line, with Rising edge trigger detection
1091:Drivers/STM32H7xx_HAL_Driver/Src/stm32h7xx_hal.c ****   *   @arg EXTI_FALLING_EDGE: Configurable line, with Falling edge trigger detection
1092:Drivers/STM32H7xx_HAL_Driver/Src/stm32h7xx_hal.c ****   * @retval None
1093:Drivers/STM32H7xx_HAL_Driver/Src/stm32h7xx_hal.c ****   */
1094:Drivers/STM32H7xx_HAL_Driver/Src/stm32h7xx_hal.c **** void HAL_EXTI_EdgeConfig(uint32_t EXTI_Line , uint32_t EXTI_Edge )
1095:Drivers/STM32H7xx_HAL_Driver/Src/stm32h7xx_hal.c **** {
 2614              		.loc 1 1095 1
 2615              		.cfi_startproc
 2616              		@ args = 0, pretend = 0, frame = 8
 2617              		@ frame_needed = 1, uses_anonymous_args = 0
 2618              		@ link register save eliminated.
 2619 0000 80B4     		push	{r7}
 2620              	.LCFI221:
 2621              		.cfi_def_cfa_offset 4
 2622              		.cfi_offset 7, -4
 2623 0002 83B0     		sub	sp, sp, #12
 2624              	.LCFI222:
 2625              		.cfi_def_cfa_offset 16
 2626 0004 00AF     		add	r7, sp, #0
 2627              	.LCFI223:
 2628              		.cfi_def_cfa_register 7
 2629 0006 7860     		str	r0, [r7, #4]
 2630 0008 3960     		str	r1, [r7]
1096:Drivers/STM32H7xx_HAL_Driver/Src/stm32h7xx_hal.c ****   /* Check the parameter */
1097:Drivers/STM32H7xx_HAL_Driver/Src/stm32h7xx_hal.c ****   assert_param(IS_HAL_EXTI_CONFIG_LINE(EXTI_Line));
1098:Drivers/STM32H7xx_HAL_Driver/Src/stm32h7xx_hal.c ****   assert_param(IS_EXTI_EDGE_LINE(EXTI_Edge));
1099:Drivers/STM32H7xx_HAL_Driver/Src/stm32h7xx_hal.c **** 
1100:Drivers/STM32H7xx_HAL_Driver/Src/stm32h7xx_hal.c ****   /* Clear Rising Falling edge configuration */
1101:Drivers/STM32H7xx_HAL_Driver/Src/stm32h7xx_hal.c ****   CLEAR_BIT(*(__IO uint32_t *) (((uint32_t) &(EXTI->FTSR1)) + ((EXTI_Line >> 5 ) * 0x20UL)), (uint3
 2631              		.loc 1 1101 3
 2632 000a 7B68     		ldr	r3, [r7, #4]
 2633 000c 5B09     		lsrs	r3, r3, #5
 2634 000e 5A01     		lsls	r2, r3, #5
 2635 0010 2E4B     		ldr	r3, .L177
 2636 0012 1344     		add	r3, r3, r2
 2637 0014 1968     		ldr	r1, [r3]
 2638 0016 7B68     		ldr	r3, [r7, #4]
 2639 0018 03F01F03 		and	r3, r3, #31
 2640 001c 0122     		movs	r2, #1
 2641 001e 02FA03F3 		lsl	r3, r2, r3
 2642 0022 DA43     		mvns	r2, r3
 2643 0024 7B68     		ldr	r3, [r7, #4]
 2644 0026 5B09     		lsrs	r3, r3, #5
 2645 0028 5801     		lsls	r0, r3, #5
 2646 002a 284B     		ldr	r3, .L177
 2647 002c 0344     		add	r3, r3, r0
 2648 002e 1846     		mov	r0, r3
ARM GAS  C:\Users\23671\AppData\Local\Temp\cc8GjZ48.s 			page 65


 2649 0030 01EA0203 		and	r3, r1, r2
 2650 0034 0360     		str	r3, [r0]
1102:Drivers/STM32H7xx_HAL_Driver/Src/stm32h7xx_hal.c ****   CLEAR_BIT( *(__IO uint32_t *) (((uint32_t) &(EXTI->RTSR1)) + ((EXTI_Line >> 5 ) * 0x20UL)), (uint
 2651              		.loc 1 1102 3
 2652 0036 7B68     		ldr	r3, [r7, #4]
 2653 0038 5B09     		lsrs	r3, r3, #5
 2654 003a 03F13073 		add	r3, r3, #46137344
 2655 003e 5B01     		lsls	r3, r3, #5
 2656 0040 1A68     		ldr	r2, [r3]
 2657 0042 7B68     		ldr	r3, [r7, #4]
 2658 0044 03F01F03 		and	r3, r3, #31
 2659 0048 0121     		movs	r1, #1
 2660 004a 01FA03F3 		lsl	r3, r1, r3
 2661 004e DB43     		mvns	r3, r3
 2662 0050 7968     		ldr	r1, [r7, #4]
 2663 0052 4909     		lsrs	r1, r1, #5
 2664 0054 01F13071 		add	r1, r1, #46137344
 2665 0058 4901     		lsls	r1, r1, #5
 2666 005a 1340     		ands	r3, r3, r2
 2667 005c 0B60     		str	r3, [r1]
1103:Drivers/STM32H7xx_HAL_Driver/Src/stm32h7xx_hal.c **** 
1104:Drivers/STM32H7xx_HAL_Driver/Src/stm32h7xx_hal.c ****   if( (EXTI_Edge & EXTI_RISING_EDGE) == EXTI_RISING_EDGE)
 2668              		.loc 1 1104 18
 2669 005e 3B68     		ldr	r3, [r7]
 2670 0060 03F48013 		and	r3, r3, #1048576
 2671              		.loc 1 1104 5
 2672 0064 002B     		cmp	r3, #0
 2673 0066 12D0     		beq	.L174
1105:Drivers/STM32H7xx_HAL_Driver/Src/stm32h7xx_hal.c ****   {
1106:Drivers/STM32H7xx_HAL_Driver/Src/stm32h7xx_hal.c ****    SET_BIT( *(__IO uint32_t *) (((uint32_t) &(EXTI->RTSR1)) + ((EXTI_Line >> 5 ) * 0x20UL)), (uint3
 2674              		.loc 1 1106 4
 2675 0068 7B68     		ldr	r3, [r7, #4]
 2676 006a 5B09     		lsrs	r3, r3, #5
 2677 006c 03F13073 		add	r3, r3, #46137344
 2678 0070 5B01     		lsls	r3, r3, #5
 2679 0072 1A68     		ldr	r2, [r3]
 2680 0074 7B68     		ldr	r3, [r7, #4]
 2681 0076 03F01F03 		and	r3, r3, #31
 2682 007a 0121     		movs	r1, #1
 2683 007c 01FA03F3 		lsl	r3, r1, r3
 2684 0080 7968     		ldr	r1, [r7, #4]
 2685 0082 4909     		lsrs	r1, r1, #5
 2686 0084 01F13071 		add	r1, r1, #46137344
 2687 0088 4901     		lsls	r1, r1, #5
 2688 008a 1343     		orrs	r3, r3, r2
 2689 008c 0B60     		str	r3, [r1]
 2690              	.L174:
1107:Drivers/STM32H7xx_HAL_Driver/Src/stm32h7xx_hal.c ****   }
1108:Drivers/STM32H7xx_HAL_Driver/Src/stm32h7xx_hal.c ****   if( (EXTI_Edge & EXTI_FALLING_EDGE) == EXTI_FALLING_EDGE)
 2691              		.loc 1 1108 18
 2692 008e 3B68     		ldr	r3, [r7]
 2693 0090 03F40013 		and	r3, r3, #2097152
 2694              		.loc 1 1108 5
 2695 0094 002B     		cmp	r3, #0
 2696 0096 13D0     		beq	.L176
1109:Drivers/STM32H7xx_HAL_Driver/Src/stm32h7xx_hal.c ****   {
1110:Drivers/STM32H7xx_HAL_Driver/Src/stm32h7xx_hal.c ****    SET_BIT(*(__IO uint32_t *) (((uint32_t) &(EXTI->FTSR1)) + ((EXTI_Line >> 5 ) * 0x20UL)), (uint32
ARM GAS  C:\Users\23671\AppData\Local\Temp\cc8GjZ48.s 			page 66


 2697              		.loc 1 1110 4
 2698 0098 7B68     		ldr	r3, [r7, #4]
 2699 009a 5B09     		lsrs	r3, r3, #5
 2700 009c 5A01     		lsls	r2, r3, #5
 2701 009e 0B4B     		ldr	r3, .L177
 2702 00a0 1344     		add	r3, r3, r2
 2703 00a2 1968     		ldr	r1, [r3]
 2704 00a4 7B68     		ldr	r3, [r7, #4]
 2705 00a6 03F01F03 		and	r3, r3, #31
 2706 00aa 0122     		movs	r2, #1
 2707 00ac 9A40     		lsls	r2, r2, r3
 2708 00ae 7B68     		ldr	r3, [r7, #4]
 2709 00b0 5B09     		lsrs	r3, r3, #5
 2710 00b2 5801     		lsls	r0, r3, #5
 2711 00b4 054B     		ldr	r3, .L177
 2712 00b6 0344     		add	r3, r3, r0
 2713 00b8 1846     		mov	r0, r3
 2714 00ba 41EA0203 		orr	r3, r1, r2
 2715 00be 0360     		str	r3, [r0]
 2716              	.L176:
1111:Drivers/STM32H7xx_HAL_Driver/Src/stm32h7xx_hal.c ****   }
1112:Drivers/STM32H7xx_HAL_Driver/Src/stm32h7xx_hal.c **** }
 2717              		.loc 1 1112 1
 2718 00c0 00BF     		nop
 2719 00c2 0C37     		adds	r7, r7, #12
 2720              	.LCFI224:
 2721              		.cfi_def_cfa_offset 4
 2722 00c4 BD46     		mov	sp, r7
 2723              	.LCFI225:
 2724              		.cfi_def_cfa_register 13
 2725              		@ sp needed
 2726 00c6 5DF8047B 		ldr	r7, [sp], #4
 2727              	.LCFI226:
 2728              		.cfi_restore 7
 2729              		.cfi_def_cfa_offset 0
 2730 00ca 7047     		bx	lr
 2731              	.L178:
 2732              		.align	2
 2733              	.L177:
 2734 00cc 04000058 		.word	1476395012
 2735              		.cfi_endproc
 2736              	.LFE193:
 2738              		.section	.text.HAL_EXTI_GenerateSWInterrupt,"ax",%progbits
 2739              		.align	1
 2740              		.global	HAL_EXTI_GenerateSWInterrupt
 2741              		.syntax unified
 2742              		.thumb
 2743              		.thumb_func
 2745              	HAL_EXTI_GenerateSWInterrupt:
 2746              	.LFB194:
1113:Drivers/STM32H7xx_HAL_Driver/Src/stm32h7xx_hal.c **** 
1114:Drivers/STM32H7xx_HAL_Driver/Src/stm32h7xx_hal.c **** /**
1115:Drivers/STM32H7xx_HAL_Driver/Src/stm32h7xx_hal.c ****   * @brief  Generates a Software interrupt on selected EXTI line.
1116:Drivers/STM32H7xx_HAL_Driver/Src/stm32h7xx_hal.c ****   * @param   EXTI_Line: Specifies the EXTI LINE, it can be one of the following values,
1117:Drivers/STM32H7xx_HAL_Driver/Src/stm32h7xx_hal.c ****   *          (EXTI_LINE0..EXTI_LINE21),EXTI_LINE49,EXTI_LINE51,EXTI_LINE82,EXTI_LINE84,EXTI_LINE85 
1118:Drivers/STM32H7xx_HAL_Driver/Src/stm32h7xx_hal.c ****   * @retval None
1119:Drivers/STM32H7xx_HAL_Driver/Src/stm32h7xx_hal.c ****   */
ARM GAS  C:\Users\23671\AppData\Local\Temp\cc8GjZ48.s 			page 67


1120:Drivers/STM32H7xx_HAL_Driver/Src/stm32h7xx_hal.c **** void HAL_EXTI_GenerateSWInterrupt(uint32_t EXTI_Line)
1121:Drivers/STM32H7xx_HAL_Driver/Src/stm32h7xx_hal.c **** {
 2747              		.loc 1 1121 1
 2748              		.cfi_startproc
 2749              		@ args = 0, pretend = 0, frame = 8
 2750              		@ frame_needed = 1, uses_anonymous_args = 0
 2751              		@ link register save eliminated.
 2752 0000 80B4     		push	{r7}
 2753              	.LCFI227:
 2754              		.cfi_def_cfa_offset 4
 2755              		.cfi_offset 7, -4
 2756 0002 83B0     		sub	sp, sp, #12
 2757              	.LCFI228:
 2758              		.cfi_def_cfa_offset 16
 2759 0004 00AF     		add	r7, sp, #0
 2760              	.LCFI229:
 2761              		.cfi_def_cfa_register 7
 2762 0006 7860     		str	r0, [r7, #4]
1122:Drivers/STM32H7xx_HAL_Driver/Src/stm32h7xx_hal.c ****   /* Check the parameters */
1123:Drivers/STM32H7xx_HAL_Driver/Src/stm32h7xx_hal.c ****   assert_param(IS_HAL_EXTI_CONFIG_LINE(EXTI_Line));
1124:Drivers/STM32H7xx_HAL_Driver/Src/stm32h7xx_hal.c **** 
1125:Drivers/STM32H7xx_HAL_Driver/Src/stm32h7xx_hal.c ****   SET_BIT(*(__IO uint32_t *) (((uint32_t) &(EXTI->SWIER1)) + ((EXTI_Line >> 5 ) * 0x20UL)), (uint32
 2763              		.loc 1 1125 3
 2764 0008 7B68     		ldr	r3, [r7, #4]
 2765 000a 5B09     		lsrs	r3, r3, #5
 2766 000c 5A01     		lsls	r2, r3, #5
 2767 000e 0B4B     		ldr	r3, .L180
 2768 0010 1344     		add	r3, r3, r2
 2769 0012 1968     		ldr	r1, [r3]
 2770 0014 7B68     		ldr	r3, [r7, #4]
 2771 0016 03F01F03 		and	r3, r3, #31
 2772 001a 0122     		movs	r2, #1
 2773 001c 9A40     		lsls	r2, r2, r3
 2774 001e 7B68     		ldr	r3, [r7, #4]
 2775 0020 5B09     		lsrs	r3, r3, #5
 2776 0022 5801     		lsls	r0, r3, #5
 2777 0024 054B     		ldr	r3, .L180
 2778 0026 0344     		add	r3, r3, r0
 2779 0028 1846     		mov	r0, r3
 2780 002a 41EA0203 		orr	r3, r1, r2
 2781 002e 0360     		str	r3, [r0]
1126:Drivers/STM32H7xx_HAL_Driver/Src/stm32h7xx_hal.c **** }
 2782              		.loc 1 1126 1
 2783 0030 00BF     		nop
 2784 0032 0C37     		adds	r7, r7, #12
 2785              	.LCFI230:
 2786              		.cfi_def_cfa_offset 4
 2787 0034 BD46     		mov	sp, r7
 2788              	.LCFI231:
 2789              		.cfi_def_cfa_register 13
 2790              		@ sp needed
 2791 0036 5DF8047B 		ldr	r7, [sp], #4
 2792              	.LCFI232:
 2793              		.cfi_restore 7
 2794              		.cfi_def_cfa_offset 0
 2795 003a 7047     		bx	lr
 2796              	.L181:
ARM GAS  C:\Users\23671\AppData\Local\Temp\cc8GjZ48.s 			page 68


 2797              		.align	2
 2798              	.L180:
 2799 003c 08000058 		.word	1476395016
 2800              		.cfi_endproc
 2801              	.LFE194:
 2803              		.section	.text.HAL_EXTI_D1_ClearFlag,"ax",%progbits
 2804              		.align	1
 2805              		.global	HAL_EXTI_D1_ClearFlag
 2806              		.syntax unified
 2807              		.thumb
 2808              		.thumb_func
 2810              	HAL_EXTI_D1_ClearFlag:
 2811              	.LFB195:
1127:Drivers/STM32H7xx_HAL_Driver/Src/stm32h7xx_hal.c **** 
1128:Drivers/STM32H7xx_HAL_Driver/Src/stm32h7xx_hal.c **** 
1129:Drivers/STM32H7xx_HAL_Driver/Src/stm32h7xx_hal.c **** /**
1130:Drivers/STM32H7xx_HAL_Driver/Src/stm32h7xx_hal.c ****   * @brief  Clears the EXTI's line pending flags for Domain D1
1131:Drivers/STM32H7xx_HAL_Driver/Src/stm32h7xx_hal.c ****   * @param   EXTI_Line: Specifies the EXTI LINE, it can be one of the following values,
1132:Drivers/STM32H7xx_HAL_Driver/Src/stm32h7xx_hal.c ****   *         (EXTI_LINE0....EXTI_LINE87)excluding :line45, line81,line83 which are reserved
1133:Drivers/STM32H7xx_HAL_Driver/Src/stm32h7xx_hal.c ****   * @retval None
1134:Drivers/STM32H7xx_HAL_Driver/Src/stm32h7xx_hal.c ****   */
1135:Drivers/STM32H7xx_HAL_Driver/Src/stm32h7xx_hal.c **** void HAL_EXTI_D1_ClearFlag(uint32_t EXTI_Line)
1136:Drivers/STM32H7xx_HAL_Driver/Src/stm32h7xx_hal.c **** {
 2812              		.loc 1 1136 1
 2813              		.cfi_startproc
 2814              		@ args = 0, pretend = 0, frame = 8
 2815              		@ frame_needed = 1, uses_anonymous_args = 0
 2816              		@ link register save eliminated.
 2817 0000 80B4     		push	{r7}
 2818              	.LCFI233:
 2819              		.cfi_def_cfa_offset 4
 2820              		.cfi_offset 7, -4
 2821 0002 83B0     		sub	sp, sp, #12
 2822              	.LCFI234:
 2823              		.cfi_def_cfa_offset 16
 2824 0004 00AF     		add	r7, sp, #0
 2825              	.LCFI235:
 2826              		.cfi_def_cfa_register 7
 2827 0006 7860     		str	r0, [r7, #4]
1137:Drivers/STM32H7xx_HAL_Driver/Src/stm32h7xx_hal.c ****   /* Check the parameters */
1138:Drivers/STM32H7xx_HAL_Driver/Src/stm32h7xx_hal.c ****  assert_param(IS_EXTI_D1_LINE(EXTI_Line));
1139:Drivers/STM32H7xx_HAL_Driver/Src/stm32h7xx_hal.c ****  WRITE_REG(*(__IO uint32_t *) (((uint32_t) &(EXTI_D1->PR1)) + ((EXTI_Line >> 5 ) * 0x10UL)), (uint3
 2828              		.loc 1 1139 2
 2829 0008 7B68     		ldr	r3, [r7, #4]
 2830 000a 03F01F02 		and	r2, r3, #31
 2831 000e 7B68     		ldr	r3, [r7, #4]
 2832 0010 5B09     		lsrs	r3, r3, #5
 2833 0012 1901     		lsls	r1, r3, #4
 2834 0014 054B     		ldr	r3, .L183
 2835 0016 0B44     		add	r3, r3, r1
 2836 0018 1946     		mov	r1, r3
 2837 001a 0123     		movs	r3, #1
 2838 001c 9340     		lsls	r3, r3, r2
 2839 001e 0B60     		str	r3, [r1]
1140:Drivers/STM32H7xx_HAL_Driver/Src/stm32h7xx_hal.c **** 
1141:Drivers/STM32H7xx_HAL_Driver/Src/stm32h7xx_hal.c **** }
 2840              		.loc 1 1141 1
ARM GAS  C:\Users\23671\AppData\Local\Temp\cc8GjZ48.s 			page 69


 2841 0020 00BF     		nop
 2842 0022 0C37     		adds	r7, r7, #12
 2843              	.LCFI236:
 2844              		.cfi_def_cfa_offset 4
 2845 0024 BD46     		mov	sp, r7
 2846              	.LCFI237:
 2847              		.cfi_def_cfa_register 13
 2848              		@ sp needed
 2849 0026 5DF8047B 		ldr	r7, [sp], #4
 2850              	.LCFI238:
 2851              		.cfi_restore 7
 2852              		.cfi_def_cfa_offset 0
 2853 002a 7047     		bx	lr
 2854              	.L184:
 2855              		.align	2
 2856              	.L183:
 2857 002c 88000058 		.word	1476395144
 2858              		.cfi_endproc
 2859              	.LFE195:
 2861              		.section	.text.HAL_EXTI_D1_EventInputConfig,"ax",%progbits
 2862              		.align	1
 2863              		.global	HAL_EXTI_D1_EventInputConfig
 2864              		.syntax unified
 2865              		.thumb
 2866              		.thumb_func
 2868              	HAL_EXTI_D1_EventInputConfig:
 2869              	.LFB196:
1142:Drivers/STM32H7xx_HAL_Driver/Src/stm32h7xx_hal.c **** 
1143:Drivers/STM32H7xx_HAL_Driver/Src/stm32h7xx_hal.c **** #if defined(DUAL_CORE)
1144:Drivers/STM32H7xx_HAL_Driver/Src/stm32h7xx_hal.c **** /**
1145:Drivers/STM32H7xx_HAL_Driver/Src/stm32h7xx_hal.c ****   * @brief  Clears the EXTI's line pending flags for Domain D2
1146:Drivers/STM32H7xx_HAL_Driver/Src/stm32h7xx_hal.c ****   * @param   EXTI_Line: Specifies the EXTI LINE, it can be one of the following values,
1147:Drivers/STM32H7xx_HAL_Driver/Src/stm32h7xx_hal.c ****   *         (EXTI_LINE0....EXTI_LINE87)excluding :line45, line81,line83 which are reserved
1148:Drivers/STM32H7xx_HAL_Driver/Src/stm32h7xx_hal.c ****   * @retval None
1149:Drivers/STM32H7xx_HAL_Driver/Src/stm32h7xx_hal.c ****   */
1150:Drivers/STM32H7xx_HAL_Driver/Src/stm32h7xx_hal.c **** void HAL_EXTI_D2_ClearFlag(uint32_t EXTI_Line)
1151:Drivers/STM32H7xx_HAL_Driver/Src/stm32h7xx_hal.c **** {
1152:Drivers/STM32H7xx_HAL_Driver/Src/stm32h7xx_hal.c ****   /* Check the parameters */
1153:Drivers/STM32H7xx_HAL_Driver/Src/stm32h7xx_hal.c ****  assert_param(IS_EXTI_D2_LINE(EXTI_Line));
1154:Drivers/STM32H7xx_HAL_Driver/Src/stm32h7xx_hal.c ****  WRITE_REG(*(__IO uint32_t *) (((uint32_t) &(EXTI_D2->PR1)) + ((EXTI_Line >> 5 ) * 0x10UL)), (uint3
1155:Drivers/STM32H7xx_HAL_Driver/Src/stm32h7xx_hal.c **** }
1156:Drivers/STM32H7xx_HAL_Driver/Src/stm32h7xx_hal.c **** 
1157:Drivers/STM32H7xx_HAL_Driver/Src/stm32h7xx_hal.c **** #endif /*DUAL_CORE*/
1158:Drivers/STM32H7xx_HAL_Driver/Src/stm32h7xx_hal.c **** /**
1159:Drivers/STM32H7xx_HAL_Driver/Src/stm32h7xx_hal.c ****   * @brief  Configure the EXTI input event line for Domain D1
1160:Drivers/STM32H7xx_HAL_Driver/Src/stm32h7xx_hal.c ****   * @param   EXTI_Line: Specifies the EXTI LINE, it can be one of the following values,
1161:Drivers/STM32H7xx_HAL_Driver/Src/stm32h7xx_hal.c ****   *         (EXTI_LINE0....EXTI_LINE87)excluding :line45, line81,line83 which are reserved
1162:Drivers/STM32H7xx_HAL_Driver/Src/stm32h7xx_hal.c ****   * @param   EXTI_Mode: Specifies which EXTI line is used as interrupt or an event.
1163:Drivers/STM32H7xx_HAL_Driver/Src/stm32h7xx_hal.c ****   *          This parameter can be one or a combination of the following values :
1164:Drivers/STM32H7xx_HAL_Driver/Src/stm32h7xx_hal.c ****   *   @arg EXTI_MODE_IT :  Interrupt Mode selected
1165:Drivers/STM32H7xx_HAL_Driver/Src/stm32h7xx_hal.c ****   *   @arg EXTI_MODE_EVT : Event Mode selected
1166:Drivers/STM32H7xx_HAL_Driver/Src/stm32h7xx_hal.c ****   * @param   EXTI_LineCmd controls (Enable/Disable) the EXTI line.
1167:Drivers/STM32H7xx_HAL_Driver/Src/stm32h7xx_hal.c **** 
1168:Drivers/STM32H7xx_HAL_Driver/Src/stm32h7xx_hal.c ****   * @retval None
1169:Drivers/STM32H7xx_HAL_Driver/Src/stm32h7xx_hal.c ****   */
1170:Drivers/STM32H7xx_HAL_Driver/Src/stm32h7xx_hal.c **** void HAL_EXTI_D1_EventInputConfig(uint32_t EXTI_Line , uint32_t EXTI_Mode,  uint32_t EXTI_LineCmd )
1171:Drivers/STM32H7xx_HAL_Driver/Src/stm32h7xx_hal.c **** {
ARM GAS  C:\Users\23671\AppData\Local\Temp\cc8GjZ48.s 			page 70


 2870              		.loc 1 1171 1
 2871              		.cfi_startproc
 2872              		@ args = 0, pretend = 0, frame = 16
 2873              		@ frame_needed = 1, uses_anonymous_args = 0
 2874              		@ link register save eliminated.
 2875 0000 80B4     		push	{r7}
 2876              	.LCFI239:
 2877              		.cfi_def_cfa_offset 4
 2878              		.cfi_offset 7, -4
 2879 0002 85B0     		sub	sp, sp, #20
 2880              	.LCFI240:
 2881              		.cfi_def_cfa_offset 24
 2882 0004 00AF     		add	r7, sp, #0
 2883              	.LCFI241:
 2884              		.cfi_def_cfa_register 7
 2885 0006 F860     		str	r0, [r7, #12]
 2886 0008 B960     		str	r1, [r7, #8]
 2887 000a 7A60     		str	r2, [r7, #4]
1172:Drivers/STM32H7xx_HAL_Driver/Src/stm32h7xx_hal.c ****   /* Check the parameter */
1173:Drivers/STM32H7xx_HAL_Driver/Src/stm32h7xx_hal.c ****   assert_param(IS_EXTI_D1_LINE(EXTI_Line));
1174:Drivers/STM32H7xx_HAL_Driver/Src/stm32h7xx_hal.c ****   assert_param(IS_EXTI_MODE_LINE(EXTI_Mode));
1175:Drivers/STM32H7xx_HAL_Driver/Src/stm32h7xx_hal.c **** 
1176:Drivers/STM32H7xx_HAL_Driver/Src/stm32h7xx_hal.c ****   if( (EXTI_Mode & EXTI_MODE_IT) == EXTI_MODE_IT)
 2888              		.loc 1 1176 18
 2889 000c BB68     		ldr	r3, [r7, #8]
 2890 000e 03F48033 		and	r3, r3, #65536
 2891              		.loc 1 1176 5
 2892 0012 002B     		cmp	r3, #0
 2893 0014 2DD0     		beq	.L186
1177:Drivers/STM32H7xx_HAL_Driver/Src/stm32h7xx_hal.c ****   {
1178:Drivers/STM32H7xx_HAL_Driver/Src/stm32h7xx_hal.c ****      if( EXTI_LineCmd == 0UL)
 2894              		.loc 1 1178 8
 2895 0016 7B68     		ldr	r3, [r7, #4]
 2896 0018 002B     		cmp	r3, #0
 2897 001a 16D1     		bne	.L187
1179:Drivers/STM32H7xx_HAL_Driver/Src/stm32h7xx_hal.c ****      {
1180:Drivers/STM32H7xx_HAL_Driver/Src/stm32h7xx_hal.c ****        /* Clear EXTI line configuration */
1181:Drivers/STM32H7xx_HAL_Driver/Src/stm32h7xx_hal.c ****         CLEAR_BIT(*(__IO uint32_t *) (((uint32_t) &(EXTI_D1->IMR1)) + ((EXTI_Line >> 5 ) * 0x10UL))
 2898              		.loc 1 1181 9
 2899 001c FB68     		ldr	r3, [r7, #12]
 2900 001e 5A09     		lsrs	r2, r3, #5
 2901 0020 304B     		ldr	r3, .L191
 2902 0022 1344     		add	r3, r3, r2
 2903 0024 1B01     		lsls	r3, r3, #4
 2904 0026 1968     		ldr	r1, [r3]
 2905 0028 FB68     		ldr	r3, [r7, #12]
 2906 002a 03F01F03 		and	r3, r3, #31
 2907 002e 0122     		movs	r2, #1
 2908 0030 02FA03F3 		lsl	r3, r2, r3
 2909 0034 DA43     		mvns	r2, r3
 2910 0036 FB68     		ldr	r3, [r7, #12]
 2911 0038 5809     		lsrs	r0, r3, #5
 2912 003a 2A4B     		ldr	r3, .L191
 2913 003c 0344     		add	r3, r3, r0
 2914 003e 1B01     		lsls	r3, r3, #4
 2915 0040 1846     		mov	r0, r3
 2916 0042 01EA0203 		and	r3, r1, r2
ARM GAS  C:\Users\23671\AppData\Local\Temp\cc8GjZ48.s 			page 71


 2917 0046 0360     		str	r3, [r0]
 2918 0048 13E0     		b	.L186
 2919              	.L187:
1182:Drivers/STM32H7xx_HAL_Driver/Src/stm32h7xx_hal.c ****      }
1183:Drivers/STM32H7xx_HAL_Driver/Src/stm32h7xx_hal.c ****      else
1184:Drivers/STM32H7xx_HAL_Driver/Src/stm32h7xx_hal.c ****      {
1185:Drivers/STM32H7xx_HAL_Driver/Src/stm32h7xx_hal.c ****         SET_BIT(*(__IO uint32_t *) (((uint32_t) &(EXTI_D1->IMR1)) + ((EXTI_Line >> 5 ) * 0x10UL)), 
 2920              		.loc 1 1185 9
 2921 004a FB68     		ldr	r3, [r7, #12]
 2922 004c 5A09     		lsrs	r2, r3, #5
 2923 004e 254B     		ldr	r3, .L191
 2924 0050 1344     		add	r3, r3, r2
 2925 0052 1B01     		lsls	r3, r3, #4
 2926 0054 1968     		ldr	r1, [r3]
 2927 0056 FB68     		ldr	r3, [r7, #12]
 2928 0058 03F01F03 		and	r3, r3, #31
 2929 005c 0122     		movs	r2, #1
 2930 005e 9A40     		lsls	r2, r2, r3
 2931 0060 FB68     		ldr	r3, [r7, #12]
 2932 0062 5809     		lsrs	r0, r3, #5
 2933 0064 1F4B     		ldr	r3, .L191
 2934 0066 0344     		add	r3, r3, r0
 2935 0068 1B01     		lsls	r3, r3, #4
 2936 006a 1846     		mov	r0, r3
 2937 006c 41EA0203 		orr	r3, r1, r2
 2938 0070 0360     		str	r3, [r0]
 2939              	.L186:
1186:Drivers/STM32H7xx_HAL_Driver/Src/stm32h7xx_hal.c ****      }
1187:Drivers/STM32H7xx_HAL_Driver/Src/stm32h7xx_hal.c ****   }
1188:Drivers/STM32H7xx_HAL_Driver/Src/stm32h7xx_hal.c **** 
1189:Drivers/STM32H7xx_HAL_Driver/Src/stm32h7xx_hal.c ****   if( (EXTI_Mode & EXTI_MODE_EVT) == EXTI_MODE_EVT)
 2940              		.loc 1 1189 18
 2941 0072 BB68     		ldr	r3, [r7, #8]
 2942 0074 03F40033 		and	r3, r3, #131072
 2943              		.loc 1 1189 5
 2944 0078 002B     		cmp	r3, #0
 2945 007a 2DD0     		beq	.L190
1190:Drivers/STM32H7xx_HAL_Driver/Src/stm32h7xx_hal.c ****   {
1191:Drivers/STM32H7xx_HAL_Driver/Src/stm32h7xx_hal.c ****     if( EXTI_LineCmd == 0UL)
 2946              		.loc 1 1191 7
 2947 007c 7B68     		ldr	r3, [r7, #4]
 2948 007e 002B     		cmp	r3, #0
 2949 0080 16D1     		bne	.L189
1192:Drivers/STM32H7xx_HAL_Driver/Src/stm32h7xx_hal.c ****     {
1193:Drivers/STM32H7xx_HAL_Driver/Src/stm32h7xx_hal.c ****       /* Clear EXTI line configuration */
1194:Drivers/STM32H7xx_HAL_Driver/Src/stm32h7xx_hal.c ****       CLEAR_BIT(  *(__IO uint32_t *) (((uint32_t) &(EXTI_D1->EMR1)) + ((EXTI_Line >> 5 ) * 0x10UL))
 2950              		.loc 1 1194 7
 2951 0082 FB68     		ldr	r3, [r7, #12]
 2952 0084 5B09     		lsrs	r3, r3, #5
 2953 0086 1A01     		lsls	r2, r3, #4
 2954 0088 174B     		ldr	r3, .L191+4
 2955 008a 1344     		add	r3, r3, r2
 2956 008c 1968     		ldr	r1, [r3]
 2957 008e FB68     		ldr	r3, [r7, #12]
 2958 0090 03F01F03 		and	r3, r3, #31
 2959 0094 0122     		movs	r2, #1
 2960 0096 02FA03F3 		lsl	r3, r2, r3
ARM GAS  C:\Users\23671\AppData\Local\Temp\cc8GjZ48.s 			page 72


 2961 009a DA43     		mvns	r2, r3
 2962 009c FB68     		ldr	r3, [r7, #12]
 2963 009e 5B09     		lsrs	r3, r3, #5
 2964 00a0 1801     		lsls	r0, r3, #4
 2965 00a2 114B     		ldr	r3, .L191+4
 2966 00a4 0344     		add	r3, r3, r0
 2967 00a6 1846     		mov	r0, r3
 2968 00a8 01EA0203 		and	r3, r1, r2
 2969 00ac 0360     		str	r3, [r0]
1195:Drivers/STM32H7xx_HAL_Driver/Src/stm32h7xx_hal.c ****     }
1196:Drivers/STM32H7xx_HAL_Driver/Src/stm32h7xx_hal.c ****     else
1197:Drivers/STM32H7xx_HAL_Driver/Src/stm32h7xx_hal.c ****     {
1198:Drivers/STM32H7xx_HAL_Driver/Src/stm32h7xx_hal.c ****       SET_BIT(  *(__IO uint32_t *) (((uint32_t) &(EXTI_D1->EMR1)) + ((EXTI_Line >> 5 ) * 0x10UL)), 
1199:Drivers/STM32H7xx_HAL_Driver/Src/stm32h7xx_hal.c ****     }
1200:Drivers/STM32H7xx_HAL_Driver/Src/stm32h7xx_hal.c ****   }
1201:Drivers/STM32H7xx_HAL_Driver/Src/stm32h7xx_hal.c **** }
 2970              		.loc 1 1201 1
 2971 00ae 13E0     		b	.L190
 2972              	.L189:
1198:Drivers/STM32H7xx_HAL_Driver/Src/stm32h7xx_hal.c ****     }
 2973              		.loc 1 1198 7
 2974 00b0 FB68     		ldr	r3, [r7, #12]
 2975 00b2 5B09     		lsrs	r3, r3, #5
 2976 00b4 1A01     		lsls	r2, r3, #4
 2977 00b6 0C4B     		ldr	r3, .L191+4
 2978 00b8 1344     		add	r3, r3, r2
 2979 00ba 1968     		ldr	r1, [r3]
 2980 00bc FB68     		ldr	r3, [r7, #12]
 2981 00be 03F01F03 		and	r3, r3, #31
 2982 00c2 0122     		movs	r2, #1
 2983 00c4 9A40     		lsls	r2, r2, r3
 2984 00c6 FB68     		ldr	r3, [r7, #12]
 2985 00c8 5B09     		lsrs	r3, r3, #5
 2986 00ca 1801     		lsls	r0, r3, #4
 2987 00cc 064B     		ldr	r3, .L191+4
 2988 00ce 0344     		add	r3, r3, r0
 2989 00d0 1846     		mov	r0, r3
 2990 00d2 41EA0203 		orr	r3, r1, r2
 2991 00d6 0360     		str	r3, [r0]
 2992              	.L190:
 2993              		.loc 1 1201 1
 2994 00d8 00BF     		nop
 2995 00da 1437     		adds	r7, r7, #20
 2996              	.LCFI242:
 2997              		.cfi_def_cfa_offset 4
 2998 00dc BD46     		mov	sp, r7
 2999              	.LCFI243:
 3000              		.cfi_def_cfa_register 13
 3001              		@ sp needed
 3002 00de 5DF8047B 		ldr	r7, [sp], #4
 3003              	.LCFI244:
 3004              		.cfi_restore 7
 3005              		.cfi_def_cfa_offset 0
 3006 00e2 7047     		bx	lr
 3007              	.L192:
 3008              		.align	2
 3009              	.L191:
ARM GAS  C:\Users\23671\AppData\Local\Temp\cc8GjZ48.s 			page 73


 3010 00e4 08008005 		.word	92274696
 3011 00e8 84000058 		.word	1476395140
 3012              		.cfi_endproc
 3013              	.LFE196:
 3015              		.section	.text.HAL_EXTI_D3_EventInputConfig,"ax",%progbits
 3016              		.align	1
 3017              		.global	HAL_EXTI_D3_EventInputConfig
 3018              		.syntax unified
 3019              		.thumb
 3020              		.thumb_func
 3022              	HAL_EXTI_D3_EventInputConfig:
 3023              	.LFB197:
1202:Drivers/STM32H7xx_HAL_Driver/Src/stm32h7xx_hal.c **** 
1203:Drivers/STM32H7xx_HAL_Driver/Src/stm32h7xx_hal.c **** #if defined(DUAL_CORE)
1204:Drivers/STM32H7xx_HAL_Driver/Src/stm32h7xx_hal.c **** /**
1205:Drivers/STM32H7xx_HAL_Driver/Src/stm32h7xx_hal.c ****   * @brief  Configure the EXTI input event line for Domain D2
1206:Drivers/STM32H7xx_HAL_Driver/Src/stm32h7xx_hal.c ****   * @param   EXTI_Line: Specifies the EXTI LINE, it can be one of the following values,
1207:Drivers/STM32H7xx_HAL_Driver/Src/stm32h7xx_hal.c ****   *         (EXTI_LINE0....EXTI_LINE87)excluding :line45, line81,line83 which are reserved
1208:Drivers/STM32H7xx_HAL_Driver/Src/stm32h7xx_hal.c ****   * @param   EXTI_Mode: Specifies which EXTI line is used as interrupt or an event.
1209:Drivers/STM32H7xx_HAL_Driver/Src/stm32h7xx_hal.c ****   *          This parameter can be one or a combination of the following values :
1210:Drivers/STM32H7xx_HAL_Driver/Src/stm32h7xx_hal.c ****   *   @arg EXTI_MODE_IT :  Interrupt Mode selected
1211:Drivers/STM32H7xx_HAL_Driver/Src/stm32h7xx_hal.c ****   *   @arg EXTI_MODE_EVT : Event Mode selected
1212:Drivers/STM32H7xx_HAL_Driver/Src/stm32h7xx_hal.c ****   * @param   EXTI_LineCmd controls (Enable/Disable) the EXTI line.
1213:Drivers/STM32H7xx_HAL_Driver/Src/stm32h7xx_hal.c **** 
1214:Drivers/STM32H7xx_HAL_Driver/Src/stm32h7xx_hal.c ****   * @retval None
1215:Drivers/STM32H7xx_HAL_Driver/Src/stm32h7xx_hal.c ****   */
1216:Drivers/STM32H7xx_HAL_Driver/Src/stm32h7xx_hal.c **** void HAL_EXTI_D2_EventInputConfig(uint32_t EXTI_Line , uint32_t EXTI_Mode,  uint32_t EXTI_LineCmd )
1217:Drivers/STM32H7xx_HAL_Driver/Src/stm32h7xx_hal.c **** {
1218:Drivers/STM32H7xx_HAL_Driver/Src/stm32h7xx_hal.c ****   /* Check the parameter */
1219:Drivers/STM32H7xx_HAL_Driver/Src/stm32h7xx_hal.c ****   assert_param(IS_EXTI_D2_LINE(EXTI_Line));
1220:Drivers/STM32H7xx_HAL_Driver/Src/stm32h7xx_hal.c ****   assert_param(IS_EXTI_MODE_LINE(EXTI_Mode));
1221:Drivers/STM32H7xx_HAL_Driver/Src/stm32h7xx_hal.c **** 
1222:Drivers/STM32H7xx_HAL_Driver/Src/stm32h7xx_hal.c ****   if( (EXTI_Mode & EXTI_MODE_IT) == EXTI_MODE_IT)
1223:Drivers/STM32H7xx_HAL_Driver/Src/stm32h7xx_hal.c ****   {
1224:Drivers/STM32H7xx_HAL_Driver/Src/stm32h7xx_hal.c ****     if( EXTI_LineCmd == 0UL)
1225:Drivers/STM32H7xx_HAL_Driver/Src/stm32h7xx_hal.c ****     {
1226:Drivers/STM32H7xx_HAL_Driver/Src/stm32h7xx_hal.c ****     /* Clear EXTI line configuration */
1227:Drivers/STM32H7xx_HAL_Driver/Src/stm32h7xx_hal.c ****      CLEAR_BIT(*(__IO uint32_t *) (((uint32_t) &(EXTI_D2->IMR1)) + ((EXTI_Line >> 5 ) * 0x10UL)),(u
1228:Drivers/STM32H7xx_HAL_Driver/Src/stm32h7xx_hal.c ****     }
1229:Drivers/STM32H7xx_HAL_Driver/Src/stm32h7xx_hal.c ****     else
1230:Drivers/STM32H7xx_HAL_Driver/Src/stm32h7xx_hal.c ****     {
1231:Drivers/STM32H7xx_HAL_Driver/Src/stm32h7xx_hal.c ****      SET_BIT(*(__IO uint32_t *) (((uint32_t) &(EXTI_D2->IMR1)) + ((EXTI_Line >> 5 ) * 0x10UL)), (ui
1232:Drivers/STM32H7xx_HAL_Driver/Src/stm32h7xx_hal.c ****     }
1233:Drivers/STM32H7xx_HAL_Driver/Src/stm32h7xx_hal.c ****   }
1234:Drivers/STM32H7xx_HAL_Driver/Src/stm32h7xx_hal.c **** 
1235:Drivers/STM32H7xx_HAL_Driver/Src/stm32h7xx_hal.c ****   if( (EXTI_Mode & EXTI_MODE_EVT) == EXTI_MODE_EVT)
1236:Drivers/STM32H7xx_HAL_Driver/Src/stm32h7xx_hal.c ****   {
1237:Drivers/STM32H7xx_HAL_Driver/Src/stm32h7xx_hal.c ****     if( EXTI_LineCmd == 0UL)
1238:Drivers/STM32H7xx_HAL_Driver/Src/stm32h7xx_hal.c ****     {
1239:Drivers/STM32H7xx_HAL_Driver/Src/stm32h7xx_hal.c ****       /* Clear EXTI line configuration */
1240:Drivers/STM32H7xx_HAL_Driver/Src/stm32h7xx_hal.c ****       CLEAR_BIT(  *(__IO uint32_t *) (((uint32_t) &(EXTI_D2->EMR1)) + ((EXTI_Line >> 5 ) * 0x10UL))
1241:Drivers/STM32H7xx_HAL_Driver/Src/stm32h7xx_hal.c ****     }
1242:Drivers/STM32H7xx_HAL_Driver/Src/stm32h7xx_hal.c ****     else
1243:Drivers/STM32H7xx_HAL_Driver/Src/stm32h7xx_hal.c ****     {
1244:Drivers/STM32H7xx_HAL_Driver/Src/stm32h7xx_hal.c ****       SET_BIT(  *(__IO uint32_t *) (((uint32_t) &(EXTI_D2->EMR1)) + ((EXTI_Line >> 5 ) * 0x10UL)), 
1245:Drivers/STM32H7xx_HAL_Driver/Src/stm32h7xx_hal.c ****     }
1246:Drivers/STM32H7xx_HAL_Driver/Src/stm32h7xx_hal.c ****   }
ARM GAS  C:\Users\23671\AppData\Local\Temp\cc8GjZ48.s 			page 74


1247:Drivers/STM32H7xx_HAL_Driver/Src/stm32h7xx_hal.c **** }
1248:Drivers/STM32H7xx_HAL_Driver/Src/stm32h7xx_hal.c **** #endif /*DUAL_CORE*/
1249:Drivers/STM32H7xx_HAL_Driver/Src/stm32h7xx_hal.c **** 
1250:Drivers/STM32H7xx_HAL_Driver/Src/stm32h7xx_hal.c **** /**
1251:Drivers/STM32H7xx_HAL_Driver/Src/stm32h7xx_hal.c ****   * @brief  Configure the EXTI input event line for Domain D3
1252:Drivers/STM32H7xx_HAL_Driver/Src/stm32h7xx_hal.c ****   * @param   EXTI_Line: Specifies the EXTI LINE, it can be one of the following values,
1253:Drivers/STM32H7xx_HAL_Driver/Src/stm32h7xx_hal.c ****   *         (EXTI_LINE0...EXTI_LINE15),(EXTI_LINE19...EXTI_LINE21),EXTI_LINE25, EXTI_LINE34,
1254:Drivers/STM32H7xx_HAL_Driver/Src/stm32h7xx_hal.c ****   *          EXTI_LINE35,EXTI_LINE41,(EXTI_LINE48...EXTI_LINE53)
1255:Drivers/STM32H7xx_HAL_Driver/Src/stm32h7xx_hal.c ****   * @param   EXTI_LineCmd controls (Enable/Disable) the EXTI line.
1256:Drivers/STM32H7xx_HAL_Driver/Src/stm32h7xx_hal.c ****   * @param   EXTI_ClearSrc: Specifies the clear source of D3 pending event.
1257:Drivers/STM32H7xx_HAL_Driver/Src/stm32h7xx_hal.c ****   *          This parameter can be one of the following values :
1258:Drivers/STM32H7xx_HAL_Driver/Src/stm32h7xx_hal.c ****   *   @arg BDMA_CH6_CLEAR : BDMA ch6 event selected as D3 domain pendclear source
1259:Drivers/STM32H7xx_HAL_Driver/Src/stm32h7xx_hal.c ****   *   @arg BDMA_CH7_CLEAR : BDMA ch7 event selected as D3 domain pendclear source
1260:Drivers/STM32H7xx_HAL_Driver/Src/stm32h7xx_hal.c ****   *   @arg LPTIM4_OUT_CLEAR : LPTIM4 out selected as D3 domain pendclear source
1261:Drivers/STM32H7xx_HAL_Driver/Src/stm32h7xx_hal.c ****   *   @arg LPTIM5_OUT_CLEAR : LPTIM5 out selected as D3 domain pendclear source
1262:Drivers/STM32H7xx_HAL_Driver/Src/stm32h7xx_hal.c ****   * @retval None
1263:Drivers/STM32H7xx_HAL_Driver/Src/stm32h7xx_hal.c ****   */
1264:Drivers/STM32H7xx_HAL_Driver/Src/stm32h7xx_hal.c **** void HAL_EXTI_D3_EventInputConfig(uint32_t EXTI_Line, uint32_t EXTI_LineCmd , uint32_t EXTI_ClearSr
1265:Drivers/STM32H7xx_HAL_Driver/Src/stm32h7xx_hal.c **** {
 3024              		.loc 1 1265 1
 3025              		.cfi_startproc
 3026              		@ args = 0, pretend = 0, frame = 24
 3027              		@ frame_needed = 1, uses_anonymous_args = 0
 3028              		@ link register save eliminated.
 3029 0000 80B4     		push	{r7}
 3030              	.LCFI245:
 3031              		.cfi_def_cfa_offset 4
 3032              		.cfi_offset 7, -4
 3033 0002 87B0     		sub	sp, sp, #28
 3034              	.LCFI246:
 3035              		.cfi_def_cfa_offset 32
 3036 0004 00AF     		add	r7, sp, #0
 3037              	.LCFI247:
 3038              		.cfi_def_cfa_register 7
 3039 0006 F860     		str	r0, [r7, #12]
 3040 0008 B960     		str	r1, [r7, #8]
 3041 000a 7A60     		str	r2, [r7, #4]
1266:Drivers/STM32H7xx_HAL_Driver/Src/stm32h7xx_hal.c ****   __IO uint32_t *pRegv;
1267:Drivers/STM32H7xx_HAL_Driver/Src/stm32h7xx_hal.c **** 
1268:Drivers/STM32H7xx_HAL_Driver/Src/stm32h7xx_hal.c ****   /* Check the parameter */
1269:Drivers/STM32H7xx_HAL_Driver/Src/stm32h7xx_hal.c ****   assert_param(IS_EXTI_D3_LINE(EXTI_Line));
1270:Drivers/STM32H7xx_HAL_Driver/Src/stm32h7xx_hal.c ****   assert_param(IS_EXTI_D3_CLEAR(EXTI_ClearSrc));
1271:Drivers/STM32H7xx_HAL_Driver/Src/stm32h7xx_hal.c **** 
1272:Drivers/STM32H7xx_HAL_Driver/Src/stm32h7xx_hal.c ****   if( EXTI_LineCmd == 0UL)
 3042              		.loc 1 1272 5
 3043 000c BB68     		ldr	r3, [r7, #8]
 3044 000e 002B     		cmp	r3, #0
 3045 0010 16D1     		bne	.L194
1273:Drivers/STM32H7xx_HAL_Driver/Src/stm32h7xx_hal.c ****   {
1274:Drivers/STM32H7xx_HAL_Driver/Src/stm32h7xx_hal.c ****     /* Clear EXTI line configuration */
1275:Drivers/STM32H7xx_HAL_Driver/Src/stm32h7xx_hal.c ****     CLEAR_BIT(*(__IO uint32_t *) (((uint32_t) &(EXTI->D3PMR1)) + ((EXTI_Line >> 5 ) * 0x20UL)),(uin
 3046              		.loc 1 1275 5
 3047 0012 FB68     		ldr	r3, [r7, #12]
 3048 0014 5B09     		lsrs	r3, r3, #5
 3049 0016 5A01     		lsls	r2, r3, #5
 3050 0018 2A4B     		ldr	r3, .L198
 3051 001a 1344     		add	r3, r3, r2
ARM GAS  C:\Users\23671\AppData\Local\Temp\cc8GjZ48.s 			page 75


 3052 001c 1968     		ldr	r1, [r3]
 3053 001e FB68     		ldr	r3, [r7, #12]
 3054 0020 03F01F03 		and	r3, r3, #31
 3055 0024 0122     		movs	r2, #1
 3056 0026 02FA03F3 		lsl	r3, r2, r3
 3057 002a DA43     		mvns	r2, r3
 3058 002c FB68     		ldr	r3, [r7, #12]
 3059 002e 5B09     		lsrs	r3, r3, #5
 3060 0030 5801     		lsls	r0, r3, #5
 3061 0032 244B     		ldr	r3, .L198
 3062 0034 0344     		add	r3, r3, r0
 3063 0036 1846     		mov	r0, r3
 3064 0038 01EA0203 		and	r3, r1, r2
 3065 003c 0360     		str	r3, [r0]
 3066 003e 13E0     		b	.L195
 3067              	.L194:
1276:Drivers/STM32H7xx_HAL_Driver/Src/stm32h7xx_hal.c ****   }
1277:Drivers/STM32H7xx_HAL_Driver/Src/stm32h7xx_hal.c ****   else
1278:Drivers/STM32H7xx_HAL_Driver/Src/stm32h7xx_hal.c ****   {
1279:Drivers/STM32H7xx_HAL_Driver/Src/stm32h7xx_hal.c ****     SET_BIT(*(__IO uint32_t *) (((uint32_t) &(EXTI->D3PMR1)) +((EXTI_Line >> 5 ) * 0x20UL)), (uint3
 3068              		.loc 1 1279 5
 3069 0040 FB68     		ldr	r3, [r7, #12]
 3070 0042 5B09     		lsrs	r3, r3, #5
 3071 0044 5A01     		lsls	r2, r3, #5
 3072 0046 1F4B     		ldr	r3, .L198
 3073 0048 1344     		add	r3, r3, r2
 3074 004a 1968     		ldr	r1, [r3]
 3075 004c FB68     		ldr	r3, [r7, #12]
 3076 004e 03F01F03 		and	r3, r3, #31
 3077 0052 0122     		movs	r2, #1
 3078 0054 9A40     		lsls	r2, r2, r3
 3079 0056 FB68     		ldr	r3, [r7, #12]
 3080 0058 5B09     		lsrs	r3, r3, #5
 3081 005a 5801     		lsls	r0, r3, #5
 3082 005c 194B     		ldr	r3, .L198
 3083 005e 0344     		add	r3, r3, r0
 3084 0060 1846     		mov	r0, r3
 3085 0062 41EA0203 		orr	r3, r1, r2
 3086 0066 0360     		str	r3, [r0]
 3087              	.L195:
1280:Drivers/STM32H7xx_HAL_Driver/Src/stm32h7xx_hal.c ****   }
1281:Drivers/STM32H7xx_HAL_Driver/Src/stm32h7xx_hal.c **** 
1282:Drivers/STM32H7xx_HAL_Driver/Src/stm32h7xx_hal.c ****   if(((EXTI_Line>>4)%2UL) == 0UL)
 3088              		.loc 1 1282 17
 3089 0068 FB68     		ldr	r3, [r7, #12]
 3090 006a 1B09     		lsrs	r3, r3, #4
 3091              		.loc 1 1282 21
 3092 006c 03F00103 		and	r3, r3, #1
 3093              		.loc 1 1282 5
 3094 0070 002B     		cmp	r3, #0
 3095 0072 06D1     		bne	.L196
1283:Drivers/STM32H7xx_HAL_Driver/Src/stm32h7xx_hal.c ****   {
1284:Drivers/STM32H7xx_HAL_Driver/Src/stm32h7xx_hal.c ****     pRegv = (__IO uint32_t *) (((uint32_t) &(EXTI->D3PCR1L)) + ((EXTI_Line >> 5 ) * 0x20UL));
 3096              		.loc 1 1284 76
 3097 0074 FB68     		ldr	r3, [r7, #12]
 3098 0076 5B09     		lsrs	r3, r3, #5
 3099              		.loc 1 1284 83
ARM GAS  C:\Users\23671\AppData\Local\Temp\cc8GjZ48.s 			page 76


 3100 0078 5A01     		lsls	r2, r3, #5
 3101              		.loc 1 1284 62
 3102 007a 134B     		ldr	r3, .L198+4
 3103 007c 1344     		add	r3, r3, r2
 3104              		.loc 1 1284 11
 3105 007e 7B61     		str	r3, [r7, #20]
 3106 0080 05E0     		b	.L197
 3107              	.L196:
1285:Drivers/STM32H7xx_HAL_Driver/Src/stm32h7xx_hal.c ****   }
1286:Drivers/STM32H7xx_HAL_Driver/Src/stm32h7xx_hal.c ****   else
1287:Drivers/STM32H7xx_HAL_Driver/Src/stm32h7xx_hal.c ****   {
1288:Drivers/STM32H7xx_HAL_Driver/Src/stm32h7xx_hal.c ****     pRegv = (__IO uint32_t *) (((uint32_t) &(EXTI->D3PCR1H)) + ((EXTI_Line >> 5 ) * 0x20UL));
 3108              		.loc 1 1288 76
 3109 0082 FB68     		ldr	r3, [r7, #12]
 3110 0084 5B09     		lsrs	r3, r3, #5
 3111              		.loc 1 1288 83
 3112 0086 5A01     		lsls	r2, r3, #5
 3113              		.loc 1 1288 62
 3114 0088 104B     		ldr	r3, .L198+8
 3115 008a 1344     		add	r3, r3, r2
 3116              		.loc 1 1288 11
 3117 008c 7B61     		str	r3, [r7, #20]
 3118              	.L197:
1289:Drivers/STM32H7xx_HAL_Driver/Src/stm32h7xx_hal.c ****   }
1290:Drivers/STM32H7xx_HAL_Driver/Src/stm32h7xx_hal.c ****   MODIFY_REG(*pRegv, (uint32_t)(3UL << ((EXTI_Line*2UL) & 0x1FUL)), (uint32_t)(EXTI_ClearSrc << ((E
 3119              		.loc 1 1290 3
 3120 008e 7B69     		ldr	r3, [r7, #20]
 3121 0090 1A68     		ldr	r2, [r3]
 3122 0092 FB68     		ldr	r3, [r7, #12]
 3123 0094 5B00     		lsls	r3, r3, #1
 3124 0096 03F01E03 		and	r3, r3, #30
 3125 009a 0321     		movs	r1, #3
 3126 009c 01FA03F3 		lsl	r3, r1, r3
 3127 00a0 DB43     		mvns	r3, r3
 3128 00a2 1A40     		ands	r2, r2, r3
 3129 00a4 FB68     		ldr	r3, [r7, #12]
 3130 00a6 5B00     		lsls	r3, r3, #1
 3131 00a8 03F01E03 		and	r3, r3, #30
 3132 00ac 7968     		ldr	r1, [r7, #4]
 3133 00ae 01FA03F3 		lsl	r3, r1, r3
 3134 00b2 1A43     		orrs	r2, r2, r3
 3135 00b4 7B69     		ldr	r3, [r7, #20]
 3136 00b6 1A60     		str	r2, [r3]
1291:Drivers/STM32H7xx_HAL_Driver/Src/stm32h7xx_hal.c **** 
1292:Drivers/STM32H7xx_HAL_Driver/Src/stm32h7xx_hal.c **** }
 3137              		.loc 1 1292 1
 3138 00b8 00BF     		nop
 3139 00ba 1C37     		adds	r7, r7, #28
 3140              	.LCFI248:
 3141              		.cfi_def_cfa_offset 4
 3142 00bc BD46     		mov	sp, r7
 3143              	.LCFI249:
 3144              		.cfi_def_cfa_register 13
 3145              		@ sp needed
 3146 00be 5DF8047B 		ldr	r7, [sp], #4
 3147              	.LCFI250:
 3148              		.cfi_restore 7
ARM GAS  C:\Users\23671\AppData\Local\Temp\cc8GjZ48.s 			page 77


 3149              		.cfi_def_cfa_offset 0
 3150 00c2 7047     		bx	lr
 3151              	.L199:
 3152              		.align	2
 3153              	.L198:
 3154 00c4 0C000058 		.word	1476395020
 3155 00c8 10000058 		.word	1476395024
 3156 00cc 14000058 		.word	1476395028
 3157              		.cfi_endproc
 3158              	.LFE197:
 3160              		.text
 3161              	.Letext0:
 3162              		.file 2 "Drivers/CMSIS/Device/ST/STM32H7xx/Include/stm32h723xx.h"
 3163              		.file 3 "D:/MSYS2/mingw64/arm-none-eabi/include/machine/_default_types.h"
 3164              		.file 4 "D:/MSYS2/mingw64/arm-none-eabi/include/sys/_stdint.h"
 3165              		.file 5 "Drivers/CMSIS/Include/core_cm7.h"
 3166              		.file 6 "Drivers/CMSIS/Device/ST/STM32H7xx/Include/system_stm32h7xx.h"
 3167              		.file 7 "Drivers/STM32H7xx_HAL_Driver/Inc/stm32h7xx_hal_def.h"
 3168              		.file 8 "Drivers/STM32H7xx_HAL_Driver/Inc/stm32h7xx_hal.h"
 3169              		.file 9 "Drivers/STM32H7xx_HAL_Driver/Inc/stm32h7xx_hal_cortex.h"
 3170              		.file 10 "Drivers/STM32H7xx_HAL_Driver/Inc/stm32h7xx_hal_rcc.h"
ARM GAS  C:\Users\23671\AppData\Local\Temp\cc8GjZ48.s 			page 78

