ARM GAS  C:\Users\23671\AppData\Local\Temp\ccHDlRLJ.s 			page 1


   1              		.cpu cortex-m7
   2              		.arch armv7e-m
   3              		.fpu fpv5-d16
   4              		.eabi_attribute 28, 1
   5              		.eabi_attribute 20, 1
   6              		.eabi_attribute 21, 1
   7              		.eabi_attribute 23, 3
   8              		.eabi_attribute 24, 1
   9              		.eabi_attribute 25, 1
  10              		.eabi_attribute 26, 1
  11              		.eabi_attribute 30, 6
  12              		.eabi_attribute 34, 1
  13              		.eabi_attribute 18, 4
  14              		.file	"stm32h7xx_ll_usb.c"
  15              		.text
  16              	.Ltext0:
  17              		.cfi_sections	.debug_frame
  18              		.file 1 "Drivers/STM32H7xx_HAL_Driver/Src/stm32h7xx_ll_usb.c"
  19              		.section	.text.USB_CoreInit,"ax",%progbits
  20              		.align	1
  21              		.global	USB_CoreInit
  22              		.syntax unified
  23              		.thumb
  24              		.thumb_func
  26              	USB_CoreInit:
  27              	.LFB144:
   1:Drivers/STM32H7xx_HAL_Driver/Src/stm32h7xx_ll_usb.c **** /**
   2:Drivers/STM32H7xx_HAL_Driver/Src/stm32h7xx_ll_usb.c ****   ******************************************************************************
   3:Drivers/STM32H7xx_HAL_Driver/Src/stm32h7xx_ll_usb.c ****   * @file    stm32h7xx_ll_usb.c
   4:Drivers/STM32H7xx_HAL_Driver/Src/stm32h7xx_ll_usb.c ****   * @author  MCD Application Team
   5:Drivers/STM32H7xx_HAL_Driver/Src/stm32h7xx_ll_usb.c ****   * @brief   USB Low Layer HAL module driver.
   6:Drivers/STM32H7xx_HAL_Driver/Src/stm32h7xx_ll_usb.c ****   *
   7:Drivers/STM32H7xx_HAL_Driver/Src/stm32h7xx_ll_usb.c ****   *          This file provides firmware functions to manage the following
   8:Drivers/STM32H7xx_HAL_Driver/Src/stm32h7xx_ll_usb.c ****   *          functionalities of the USB Peripheral Controller:
   9:Drivers/STM32H7xx_HAL_Driver/Src/stm32h7xx_ll_usb.c ****   *           + Initialization/de-initialization functions
  10:Drivers/STM32H7xx_HAL_Driver/Src/stm32h7xx_ll_usb.c ****   *           + I/O operation functions
  11:Drivers/STM32H7xx_HAL_Driver/Src/stm32h7xx_ll_usb.c ****   *           + Peripheral Control functions
  12:Drivers/STM32H7xx_HAL_Driver/Src/stm32h7xx_ll_usb.c ****   *           + Peripheral State functions
  13:Drivers/STM32H7xx_HAL_Driver/Src/stm32h7xx_ll_usb.c ****   *
  14:Drivers/STM32H7xx_HAL_Driver/Src/stm32h7xx_ll_usb.c ****   ******************************************************************************
  15:Drivers/STM32H7xx_HAL_Driver/Src/stm32h7xx_ll_usb.c ****   * @attention
  16:Drivers/STM32H7xx_HAL_Driver/Src/stm32h7xx_ll_usb.c ****   *
  17:Drivers/STM32H7xx_HAL_Driver/Src/stm32h7xx_ll_usb.c ****   * Copyright (c) 2017 STMicroelectronics.
  18:Drivers/STM32H7xx_HAL_Driver/Src/stm32h7xx_ll_usb.c ****   * All rights reserved.
  19:Drivers/STM32H7xx_HAL_Driver/Src/stm32h7xx_ll_usb.c ****   *
  20:Drivers/STM32H7xx_HAL_Driver/Src/stm32h7xx_ll_usb.c ****   * This software is licensed under terms that can be found in the LICENSE file
  21:Drivers/STM32H7xx_HAL_Driver/Src/stm32h7xx_ll_usb.c ****   * in the root directory of this software component.
  22:Drivers/STM32H7xx_HAL_Driver/Src/stm32h7xx_ll_usb.c ****   * If no LICENSE file comes with this software, it is provided AS-IS.
  23:Drivers/STM32H7xx_HAL_Driver/Src/stm32h7xx_ll_usb.c ****   *
  24:Drivers/STM32H7xx_HAL_Driver/Src/stm32h7xx_ll_usb.c ****   ******************************************************************************
  25:Drivers/STM32H7xx_HAL_Driver/Src/stm32h7xx_ll_usb.c ****   @verbatim
  26:Drivers/STM32H7xx_HAL_Driver/Src/stm32h7xx_ll_usb.c ****   ==============================================================================
  27:Drivers/STM32H7xx_HAL_Driver/Src/stm32h7xx_ll_usb.c ****                     ##### How to use this driver #####
  28:Drivers/STM32H7xx_HAL_Driver/Src/stm32h7xx_ll_usb.c ****   ==============================================================================
  29:Drivers/STM32H7xx_HAL_Driver/Src/stm32h7xx_ll_usb.c ****     [..]
  30:Drivers/STM32H7xx_HAL_Driver/Src/stm32h7xx_ll_usb.c ****       (#) Fill parameters of Init structure in USB_CfgTypeDef structure.
  31:Drivers/STM32H7xx_HAL_Driver/Src/stm32h7xx_ll_usb.c **** 
ARM GAS  C:\Users\23671\AppData\Local\Temp\ccHDlRLJ.s 			page 2


  32:Drivers/STM32H7xx_HAL_Driver/Src/stm32h7xx_ll_usb.c ****       (#) Call USB_CoreInit() API to initialize the USB Core peripheral.
  33:Drivers/STM32H7xx_HAL_Driver/Src/stm32h7xx_ll_usb.c **** 
  34:Drivers/STM32H7xx_HAL_Driver/Src/stm32h7xx_ll_usb.c ****       (#) The upper HAL HCD/PCD driver will call the right routines for its internal processes.
  35:Drivers/STM32H7xx_HAL_Driver/Src/stm32h7xx_ll_usb.c **** 
  36:Drivers/STM32H7xx_HAL_Driver/Src/stm32h7xx_ll_usb.c ****   @endverbatim
  37:Drivers/STM32H7xx_HAL_Driver/Src/stm32h7xx_ll_usb.c **** 
  38:Drivers/STM32H7xx_HAL_Driver/Src/stm32h7xx_ll_usb.c ****   ******************************************************************************
  39:Drivers/STM32H7xx_HAL_Driver/Src/stm32h7xx_ll_usb.c ****   */
  40:Drivers/STM32H7xx_HAL_Driver/Src/stm32h7xx_ll_usb.c **** 
  41:Drivers/STM32H7xx_HAL_Driver/Src/stm32h7xx_ll_usb.c **** /* Includes ------------------------------------------------------------------*/
  42:Drivers/STM32H7xx_HAL_Driver/Src/stm32h7xx_ll_usb.c **** #include "stm32h7xx_hal.h"
  43:Drivers/STM32H7xx_HAL_Driver/Src/stm32h7xx_ll_usb.c **** 
  44:Drivers/STM32H7xx_HAL_Driver/Src/stm32h7xx_ll_usb.c **** /** @addtogroup STM32H7xx_LL_USB_DRIVER
  45:Drivers/STM32H7xx_HAL_Driver/Src/stm32h7xx_ll_usb.c ****   * @{
  46:Drivers/STM32H7xx_HAL_Driver/Src/stm32h7xx_ll_usb.c ****   */
  47:Drivers/STM32H7xx_HAL_Driver/Src/stm32h7xx_ll_usb.c **** 
  48:Drivers/STM32H7xx_HAL_Driver/Src/stm32h7xx_ll_usb.c **** #if defined (HAL_PCD_MODULE_ENABLED) || defined (HAL_HCD_MODULE_ENABLED)
  49:Drivers/STM32H7xx_HAL_Driver/Src/stm32h7xx_ll_usb.c **** #if defined (USB_OTG_FS) || defined (USB_OTG_HS)
  50:Drivers/STM32H7xx_HAL_Driver/Src/stm32h7xx_ll_usb.c **** /* Private typedef -----------------------------------------------------------*/
  51:Drivers/STM32H7xx_HAL_Driver/Src/stm32h7xx_ll_usb.c **** /* Private define ------------------------------------------------------------*/
  52:Drivers/STM32H7xx_HAL_Driver/Src/stm32h7xx_ll_usb.c **** /* Private macro -------------------------------------------------------------*/
  53:Drivers/STM32H7xx_HAL_Driver/Src/stm32h7xx_ll_usb.c **** /* Private variables ---------------------------------------------------------*/
  54:Drivers/STM32H7xx_HAL_Driver/Src/stm32h7xx_ll_usb.c **** /* Private function prototypes -----------------------------------------------*/
  55:Drivers/STM32H7xx_HAL_Driver/Src/stm32h7xx_ll_usb.c **** /* Private functions ---------------------------------------------------------*/
  56:Drivers/STM32H7xx_HAL_Driver/Src/stm32h7xx_ll_usb.c **** #if defined (USB_OTG_FS) || defined (USB_OTG_HS)
  57:Drivers/STM32H7xx_HAL_Driver/Src/stm32h7xx_ll_usb.c **** static HAL_StatusTypeDef USB_CoreReset(USB_OTG_GlobalTypeDef *USBx);
  58:Drivers/STM32H7xx_HAL_Driver/Src/stm32h7xx_ll_usb.c **** 
  59:Drivers/STM32H7xx_HAL_Driver/Src/stm32h7xx_ll_usb.c **** /* Exported functions --------------------------------------------------------*/
  60:Drivers/STM32H7xx_HAL_Driver/Src/stm32h7xx_ll_usb.c **** /** @defgroup USB_LL_Exported_Functions USB Low Layer Exported Functions
  61:Drivers/STM32H7xx_HAL_Driver/Src/stm32h7xx_ll_usb.c ****   * @{
  62:Drivers/STM32H7xx_HAL_Driver/Src/stm32h7xx_ll_usb.c ****   */
  63:Drivers/STM32H7xx_HAL_Driver/Src/stm32h7xx_ll_usb.c **** 
  64:Drivers/STM32H7xx_HAL_Driver/Src/stm32h7xx_ll_usb.c **** /** @defgroup USB_LL_Exported_Functions_Group1 Initialization/de-initialization functions
  65:Drivers/STM32H7xx_HAL_Driver/Src/stm32h7xx_ll_usb.c ****   *  @brief    Initialization and Configuration functions
  66:Drivers/STM32H7xx_HAL_Driver/Src/stm32h7xx_ll_usb.c ****   *
  67:Drivers/STM32H7xx_HAL_Driver/Src/stm32h7xx_ll_usb.c **** @verbatim
  68:Drivers/STM32H7xx_HAL_Driver/Src/stm32h7xx_ll_usb.c ****  ===============================================================================
  69:Drivers/STM32H7xx_HAL_Driver/Src/stm32h7xx_ll_usb.c ****                       ##### Initialization/de-initialization functions #####
  70:Drivers/STM32H7xx_HAL_Driver/Src/stm32h7xx_ll_usb.c ****  ===============================================================================
  71:Drivers/STM32H7xx_HAL_Driver/Src/stm32h7xx_ll_usb.c **** 
  72:Drivers/STM32H7xx_HAL_Driver/Src/stm32h7xx_ll_usb.c **** @endverbatim
  73:Drivers/STM32H7xx_HAL_Driver/Src/stm32h7xx_ll_usb.c ****   * @{
  74:Drivers/STM32H7xx_HAL_Driver/Src/stm32h7xx_ll_usb.c ****   */
  75:Drivers/STM32H7xx_HAL_Driver/Src/stm32h7xx_ll_usb.c **** 
  76:Drivers/STM32H7xx_HAL_Driver/Src/stm32h7xx_ll_usb.c **** /**
  77:Drivers/STM32H7xx_HAL_Driver/Src/stm32h7xx_ll_usb.c ****   * @brief  Initializes the USB Core
  78:Drivers/STM32H7xx_HAL_Driver/Src/stm32h7xx_ll_usb.c ****   * @param  USBx USB Instance
  79:Drivers/STM32H7xx_HAL_Driver/Src/stm32h7xx_ll_usb.c ****   * @param  cfg pointer to a USB_OTG_CfgTypeDef structure that contains
  80:Drivers/STM32H7xx_HAL_Driver/Src/stm32h7xx_ll_usb.c ****   *         the configuration information for the specified USBx peripheral.
  81:Drivers/STM32H7xx_HAL_Driver/Src/stm32h7xx_ll_usb.c ****   * @retval HAL status
  82:Drivers/STM32H7xx_HAL_Driver/Src/stm32h7xx_ll_usb.c ****   */
  83:Drivers/STM32H7xx_HAL_Driver/Src/stm32h7xx_ll_usb.c **** HAL_StatusTypeDef USB_CoreInit(USB_OTG_GlobalTypeDef *USBx, USB_OTG_CfgTypeDef cfg)
  84:Drivers/STM32H7xx_HAL_Driver/Src/stm32h7xx_ll_usb.c **** {
  28              		.loc 1 84 1
  29              		.cfi_startproc
  30              		@ args = 20, pretend = 16, frame = 16
  31              		@ frame_needed = 1, uses_anonymous_args = 0
ARM GAS  C:\Users\23671\AppData\Local\Temp\ccHDlRLJ.s 			page 3


  32 0000 84B0     		sub	sp, sp, #16
  33              	.LCFI0:
  34              		.cfi_def_cfa_offset 16
  35 0002 80B5     		push	{r7, lr}
  36              	.LCFI1:
  37              		.cfi_def_cfa_offset 24
  38              		.cfi_offset 7, -24
  39              		.cfi_offset 14, -20
  40 0004 84B0     		sub	sp, sp, #16
  41              	.LCFI2:
  42              		.cfi_def_cfa_offset 40
  43 0006 00AF     		add	r7, sp, #0
  44              	.LCFI3:
  45              		.cfi_def_cfa_register 7
  46 0008 7860     		str	r0, [r7, #4]
  47 000a 07F11C00 		add	r0, r7, #28
  48 000e 80E80E00 		stm	r0, {r1, r2, r3}
  85:Drivers/STM32H7xx_HAL_Driver/Src/stm32h7xx_ll_usb.c ****   HAL_StatusTypeDef ret;
  86:Drivers/STM32H7xx_HAL_Driver/Src/stm32h7xx_ll_usb.c ****   if (cfg.phy_itface == USB_OTG_ULPI_PHY)
  49              		.loc 1 86 10
  50 0012 97F82130 		ldrb	r3, [r7, #33]	@ zero_extendqisi2
  51              		.loc 1 86 6
  52 0016 012B     		cmp	r3, #1
  53 0018 21D1     		bne	.L2
  87:Drivers/STM32H7xx_HAL_Driver/Src/stm32h7xx_ll_usb.c ****   {
  88:Drivers/STM32H7xx_HAL_Driver/Src/stm32h7xx_ll_usb.c ****     USBx->GCCFG &= ~(USB_OTG_GCCFG_PWRDWN);
  54              		.loc 1 88 9
  55 001a 7B68     		ldr	r3, [r7, #4]
  56 001c 9B6B     		ldr	r3, [r3, #56]
  57              		.loc 1 88 17
  58 001e 23F48032 		bic	r2, r3, #65536
  59 0022 7B68     		ldr	r3, [r7, #4]
  60 0024 9A63     		str	r2, [r3, #56]
  89:Drivers/STM32H7xx_HAL_Driver/Src/stm32h7xx_ll_usb.c **** 
  90:Drivers/STM32H7xx_HAL_Driver/Src/stm32h7xx_ll_usb.c ****     /* Init The ULPI Interface */
  91:Drivers/STM32H7xx_HAL_Driver/Src/stm32h7xx_ll_usb.c ****     USBx->GUSBCFG &= ~(USB_OTG_GUSBCFG_TSDPS | USB_OTG_GUSBCFG_ULPIFSLS | USB_OTG_GUSBCFG_PHYSEL);
  61              		.loc 1 91 9
  62 0026 7B68     		ldr	r3, [r7, #4]
  63 0028 DA68     		ldr	r2, [r3, #12]
  64              		.loc 1 91 19
  65 002a 2C4B     		ldr	r3, .L8
  66 002c 1340     		ands	r3, r3, r2
  67 002e 7A68     		ldr	r2, [r7, #4]
  68 0030 D360     		str	r3, [r2, #12]
  92:Drivers/STM32H7xx_HAL_Driver/Src/stm32h7xx_ll_usb.c **** 
  93:Drivers/STM32H7xx_HAL_Driver/Src/stm32h7xx_ll_usb.c ****     /* Select vbus source */
  94:Drivers/STM32H7xx_HAL_Driver/Src/stm32h7xx_ll_usb.c ****     USBx->GUSBCFG &= ~(USB_OTG_GUSBCFG_ULPIEVBUSD | USB_OTG_GUSBCFG_ULPIEVBUSI);
  69              		.loc 1 94 9
  70 0032 7B68     		ldr	r3, [r7, #4]
  71 0034 DB68     		ldr	r3, [r3, #12]
  72              		.loc 1 94 19
  73 0036 23F44012 		bic	r2, r3, #3145728
  74 003a 7B68     		ldr	r3, [r7, #4]
  75 003c DA60     		str	r2, [r3, #12]
  95:Drivers/STM32H7xx_HAL_Driver/Src/stm32h7xx_ll_usb.c ****     if (cfg.use_external_vbus == 1U)
  76              		.loc 1 95 12
  77 003e 97F82830 		ldrb	r3, [r7, #40]	@ zero_extendqisi2
ARM GAS  C:\Users\23671\AppData\Local\Temp\ccHDlRLJ.s 			page 4


  78              		.loc 1 95 8
  79 0042 012B     		cmp	r3, #1
  80 0044 05D1     		bne	.L3
  96:Drivers/STM32H7xx_HAL_Driver/Src/stm32h7xx_ll_usb.c ****     {
  97:Drivers/STM32H7xx_HAL_Driver/Src/stm32h7xx_ll_usb.c ****       USBx->GUSBCFG |= USB_OTG_GUSBCFG_ULPIEVBUSD;
  81              		.loc 1 97 11
  82 0046 7B68     		ldr	r3, [r7, #4]
  83 0048 DB68     		ldr	r3, [r3, #12]
  84              		.loc 1 97 21
  85 004a 43F48012 		orr	r2, r3, #1048576
  86 004e 7B68     		ldr	r3, [r7, #4]
  87 0050 DA60     		str	r2, [r3, #12]
  88              	.L3:
  98:Drivers/STM32H7xx_HAL_Driver/Src/stm32h7xx_ll_usb.c ****     }
  99:Drivers/STM32H7xx_HAL_Driver/Src/stm32h7xx_ll_usb.c **** 
 100:Drivers/STM32H7xx_HAL_Driver/Src/stm32h7xx_ll_usb.c ****     /* Reset after a PHY select */
 101:Drivers/STM32H7xx_HAL_Driver/Src/stm32h7xx_ll_usb.c ****     ret = USB_CoreReset(USBx);
  89              		.loc 1 101 11
  90 0052 7868     		ldr	r0, [r7, #4]
  91 0054 FFF7FEFF 		bl	USB_CoreReset
  92 0058 0346     		mov	r3, r0
  93 005a FB73     		strb	r3, [r7, #15]
  94 005c 1BE0     		b	.L4
  95              	.L2:
 102:Drivers/STM32H7xx_HAL_Driver/Src/stm32h7xx_ll_usb.c ****   }
 103:Drivers/STM32H7xx_HAL_Driver/Src/stm32h7xx_ll_usb.c ****   else /* FS interface (embedded Phy) */
 104:Drivers/STM32H7xx_HAL_Driver/Src/stm32h7xx_ll_usb.c ****   {
 105:Drivers/STM32H7xx_HAL_Driver/Src/stm32h7xx_ll_usb.c ****     /* Select FS Embedded PHY */
 106:Drivers/STM32H7xx_HAL_Driver/Src/stm32h7xx_ll_usb.c ****     USBx->GUSBCFG |= USB_OTG_GUSBCFG_PHYSEL;
  96              		.loc 1 106 9
  97 005e 7B68     		ldr	r3, [r7, #4]
  98 0060 DB68     		ldr	r3, [r3, #12]
  99              		.loc 1 106 19
 100 0062 43F04002 		orr	r2, r3, #64
 101 0066 7B68     		ldr	r3, [r7, #4]
 102 0068 DA60     		str	r2, [r3, #12]
 107:Drivers/STM32H7xx_HAL_Driver/Src/stm32h7xx_ll_usb.c **** 
 108:Drivers/STM32H7xx_HAL_Driver/Src/stm32h7xx_ll_usb.c ****     /* Reset after a PHY select */
 109:Drivers/STM32H7xx_HAL_Driver/Src/stm32h7xx_ll_usb.c ****     ret = USB_CoreReset(USBx);
 103              		.loc 1 109 11
 104 006a 7868     		ldr	r0, [r7, #4]
 105 006c FFF7FEFF 		bl	USB_CoreReset
 106 0070 0346     		mov	r3, r0
 107 0072 FB73     		strb	r3, [r7, #15]
 110:Drivers/STM32H7xx_HAL_Driver/Src/stm32h7xx_ll_usb.c **** 
 111:Drivers/STM32H7xx_HAL_Driver/Src/stm32h7xx_ll_usb.c ****     if (cfg.battery_charging_enable == 0U)
 108              		.loc 1 111 12
 109 0074 97F82530 		ldrb	r3, [r7, #37]	@ zero_extendqisi2
 110              		.loc 1 111 8
 111 0078 002B     		cmp	r3, #0
 112 007a 06D1     		bne	.L5
 112:Drivers/STM32H7xx_HAL_Driver/Src/stm32h7xx_ll_usb.c ****     {
 113:Drivers/STM32H7xx_HAL_Driver/Src/stm32h7xx_ll_usb.c ****       /* Activate the USB Transceiver */
 114:Drivers/STM32H7xx_HAL_Driver/Src/stm32h7xx_ll_usb.c ****       USBx->GCCFG |= USB_OTG_GCCFG_PWRDWN;
 113              		.loc 1 114 11
 114 007c 7B68     		ldr	r3, [r7, #4]
 115 007e 9B6B     		ldr	r3, [r3, #56]
ARM GAS  C:\Users\23671\AppData\Local\Temp\ccHDlRLJ.s 			page 5


 116              		.loc 1 114 19
 117 0080 43F48032 		orr	r2, r3, #65536
 118 0084 7B68     		ldr	r3, [r7, #4]
 119 0086 9A63     		str	r2, [r3, #56]
 120 0088 05E0     		b	.L4
 121              	.L5:
 115:Drivers/STM32H7xx_HAL_Driver/Src/stm32h7xx_ll_usb.c ****     }
 116:Drivers/STM32H7xx_HAL_Driver/Src/stm32h7xx_ll_usb.c ****     else
 117:Drivers/STM32H7xx_HAL_Driver/Src/stm32h7xx_ll_usb.c ****     {
 118:Drivers/STM32H7xx_HAL_Driver/Src/stm32h7xx_ll_usb.c ****       /* Deactivate the USB Transceiver */
 119:Drivers/STM32H7xx_HAL_Driver/Src/stm32h7xx_ll_usb.c ****       USBx->GCCFG &= ~(USB_OTG_GCCFG_PWRDWN);
 122              		.loc 1 119 11
 123 008a 7B68     		ldr	r3, [r7, #4]
 124 008c 9B6B     		ldr	r3, [r3, #56]
 125              		.loc 1 119 19
 126 008e 23F48032 		bic	r2, r3, #65536
 127 0092 7B68     		ldr	r3, [r7, #4]
 128 0094 9A63     		str	r2, [r3, #56]
 129              	.L4:
 120:Drivers/STM32H7xx_HAL_Driver/Src/stm32h7xx_ll_usb.c ****     }
 121:Drivers/STM32H7xx_HAL_Driver/Src/stm32h7xx_ll_usb.c ****   }
 122:Drivers/STM32H7xx_HAL_Driver/Src/stm32h7xx_ll_usb.c **** 
 123:Drivers/STM32H7xx_HAL_Driver/Src/stm32h7xx_ll_usb.c ****   if (cfg.dma_enable == 1U)
 130              		.loc 1 123 10
 131 0096 BB7F     		ldrb	r3, [r7, #30]	@ zero_extendqisi2
 132              		.loc 1 123 6
 133 0098 012B     		cmp	r3, #1
 134 009a 16D1     		bne	.L6
 124:Drivers/STM32H7xx_HAL_Driver/Src/stm32h7xx_ll_usb.c ****   {
 125:Drivers/STM32H7xx_HAL_Driver/Src/stm32h7xx_ll_usb.c ****     /* make sure to reserve 18 fifo Locations for DMA buffers */
 126:Drivers/STM32H7xx_HAL_Driver/Src/stm32h7xx_ll_usb.c ****     USBx->GDFIFOCFG &= ~(0xFFFFU << 16);
 135              		.loc 1 126 9
 136 009c 7B68     		ldr	r3, [r7, #4]
 137 009e DB6D     		ldr	r3, [r3, #92]
 138              		.loc 1 126 21
 139 00a0 9AB2     		uxth	r2, r3
 140 00a2 7B68     		ldr	r3, [r7, #4]
 141 00a4 DA65     		str	r2, [r3, #92]
 127:Drivers/STM32H7xx_HAL_Driver/Src/stm32h7xx_ll_usb.c ****     USBx->GDFIFOCFG |= 0x3EEU << 16;
 142              		.loc 1 127 9
 143 00a6 7B68     		ldr	r3, [r7, #4]
 144 00a8 DA6D     		ldr	r2, [r3, #92]
 145              		.loc 1 127 21
 146 00aa 0D4B     		ldr	r3, .L8+4
 147 00ac 1343     		orrs	r3, r3, r2
 148 00ae 7A68     		ldr	r2, [r7, #4]
 149 00b0 D365     		str	r3, [r2, #92]
 128:Drivers/STM32H7xx_HAL_Driver/Src/stm32h7xx_ll_usb.c **** 
 129:Drivers/STM32H7xx_HAL_Driver/Src/stm32h7xx_ll_usb.c ****     USBx->GAHBCFG |= USB_OTG_GAHBCFG_HBSTLEN_2;
 150              		.loc 1 129 9
 151 00b2 7B68     		ldr	r3, [r7, #4]
 152 00b4 9B68     		ldr	r3, [r3, #8]
 153              		.loc 1 129 19
 154 00b6 43F00602 		orr	r2, r3, #6
 155 00ba 7B68     		ldr	r3, [r7, #4]
 156 00bc 9A60     		str	r2, [r3, #8]
 130:Drivers/STM32H7xx_HAL_Driver/Src/stm32h7xx_ll_usb.c ****     USBx->GAHBCFG |= USB_OTG_GAHBCFG_DMAEN;
ARM GAS  C:\Users\23671\AppData\Local\Temp\ccHDlRLJ.s 			page 6


 157              		.loc 1 130 9
 158 00be 7B68     		ldr	r3, [r7, #4]
 159 00c0 9B68     		ldr	r3, [r3, #8]
 160              		.loc 1 130 19
 161 00c2 43F02002 		orr	r2, r3, #32
 162 00c6 7B68     		ldr	r3, [r7, #4]
 163 00c8 9A60     		str	r2, [r3, #8]
 164              	.L6:
 131:Drivers/STM32H7xx_HAL_Driver/Src/stm32h7xx_ll_usb.c ****   }
 132:Drivers/STM32H7xx_HAL_Driver/Src/stm32h7xx_ll_usb.c **** 
 133:Drivers/STM32H7xx_HAL_Driver/Src/stm32h7xx_ll_usb.c ****   return ret;
 165              		.loc 1 133 10
 166 00ca FB7B     		ldrb	r3, [r7, #15]	@ zero_extendqisi2
 134:Drivers/STM32H7xx_HAL_Driver/Src/stm32h7xx_ll_usb.c **** }
 167              		.loc 1 134 1
 168 00cc 1846     		mov	r0, r3
 169 00ce 1037     		adds	r7, r7, #16
 170              	.LCFI4:
 171              		.cfi_def_cfa_offset 24
 172 00d0 BD46     		mov	sp, r7
 173              	.LCFI5:
 174              		.cfi_def_cfa_register 13
 175              		@ sp needed
 176 00d2 BDE88040 		pop	{r7, lr}
 177              	.LCFI6:
 178              		.cfi_restore 14
 179              		.cfi_restore 7
 180              		.cfi_def_cfa_offset 16
 181 00d6 04B0     		add	sp, sp, #16
 182              	.LCFI7:
 183              		.cfi_def_cfa_offset 0
 184 00d8 7047     		bx	lr
 185              	.L9:
 186 00da 00BF     		.align	2
 187              	.L8:
 188 00dc BFFFBDFF 		.word	-4325441
 189 00e0 0000EE03 		.word	65929216
 190              		.cfi_endproc
 191              	.LFE144:
 193              		.section	.text.USB_SetTurnaroundTime,"ax",%progbits
 194              		.align	1
 195              		.global	USB_SetTurnaroundTime
 196              		.syntax unified
 197              		.thumb
 198              		.thumb_func
 200              	USB_SetTurnaroundTime:
 201              	.LFB145:
 135:Drivers/STM32H7xx_HAL_Driver/Src/stm32h7xx_ll_usb.c **** 
 136:Drivers/STM32H7xx_HAL_Driver/Src/stm32h7xx_ll_usb.c **** 
 137:Drivers/STM32H7xx_HAL_Driver/Src/stm32h7xx_ll_usb.c **** /**
 138:Drivers/STM32H7xx_HAL_Driver/Src/stm32h7xx_ll_usb.c ****   * @brief  Set the USB turnaround time
 139:Drivers/STM32H7xx_HAL_Driver/Src/stm32h7xx_ll_usb.c ****   * @param  USBx USB Instance
 140:Drivers/STM32H7xx_HAL_Driver/Src/stm32h7xx_ll_usb.c ****   * @param  hclk: AHB clock frequency
 141:Drivers/STM32H7xx_HAL_Driver/Src/stm32h7xx_ll_usb.c ****   * @retval USB turnaround time In PHY Clocks number
 142:Drivers/STM32H7xx_HAL_Driver/Src/stm32h7xx_ll_usb.c ****   */
 143:Drivers/STM32H7xx_HAL_Driver/Src/stm32h7xx_ll_usb.c **** HAL_StatusTypeDef USB_SetTurnaroundTime(USB_OTG_GlobalTypeDef *USBx,
 144:Drivers/STM32H7xx_HAL_Driver/Src/stm32h7xx_ll_usb.c ****                                         uint32_t hclk, uint8_t speed)
ARM GAS  C:\Users\23671\AppData\Local\Temp\ccHDlRLJ.s 			page 7


 145:Drivers/STM32H7xx_HAL_Driver/Src/stm32h7xx_ll_usb.c **** {
 202              		.loc 1 145 1
 203              		.cfi_startproc
 204              		@ args = 0, pretend = 0, frame = 24
 205              		@ frame_needed = 1, uses_anonymous_args = 0
 206              		@ link register save eliminated.
 207 0000 80B4     		push	{r7}
 208              	.LCFI8:
 209              		.cfi_def_cfa_offset 4
 210              		.cfi_offset 7, -4
 211 0002 87B0     		sub	sp, sp, #28
 212              	.LCFI9:
 213              		.cfi_def_cfa_offset 32
 214 0004 00AF     		add	r7, sp, #0
 215              	.LCFI10:
 216              		.cfi_def_cfa_register 7
 217 0006 F860     		str	r0, [r7, #12]
 218 0008 B960     		str	r1, [r7, #8]
 219 000a 1346     		mov	r3, r2
 220 000c FB71     		strb	r3, [r7, #7]
 146:Drivers/STM32H7xx_HAL_Driver/Src/stm32h7xx_ll_usb.c ****   uint32_t UsbTrd;
 147:Drivers/STM32H7xx_HAL_Driver/Src/stm32h7xx_ll_usb.c **** 
 148:Drivers/STM32H7xx_HAL_Driver/Src/stm32h7xx_ll_usb.c ****   /* The USBTRD is configured according to the tables below, depending on AHB frequency
 149:Drivers/STM32H7xx_HAL_Driver/Src/stm32h7xx_ll_usb.c ****   used by application. In the low AHB frequency range it is used to stretch enough the USB response
 150:Drivers/STM32H7xx_HAL_Driver/Src/stm32h7xx_ll_usb.c ****   time to IN tokens, the USB turnaround time, so to compensate for the longer AHB read access
 151:Drivers/STM32H7xx_HAL_Driver/Src/stm32h7xx_ll_usb.c ****   latency to the Data FIFO */
 152:Drivers/STM32H7xx_HAL_Driver/Src/stm32h7xx_ll_usb.c ****   if (speed == USBD_FS_SPEED)
 221              		.loc 1 152 6
 222 000e FB79     		ldrb	r3, [r7, #7]	@ zero_extendqisi2
 223 0010 022B     		cmp	r3, #2
 224 0012 65D1     		bne	.L11
 153:Drivers/STM32H7xx_HAL_Driver/Src/stm32h7xx_ll_usb.c ****   {
 154:Drivers/STM32H7xx_HAL_Driver/Src/stm32h7xx_ll_usb.c ****     if ((hclk >= 14200000U) && (hclk < 15000000U))
 225              		.loc 1 154 8
 226 0014 BB68     		ldr	r3, [r7, #8]
 227 0016 414A     		ldr	r2, .L25
 228 0018 9342     		cmp	r3, r2
 229 001a 06D9     		bls	.L12
 230              		.loc 1 154 29 discriminator 1
 231 001c BB68     		ldr	r3, [r7, #8]
 232 001e 404A     		ldr	r2, .L25+4
 233 0020 9342     		cmp	r3, r2
 234 0022 02D2     		bcs	.L12
 155:Drivers/STM32H7xx_HAL_Driver/Src/stm32h7xx_ll_usb.c ****     {
 156:Drivers/STM32H7xx_HAL_Driver/Src/stm32h7xx_ll_usb.c ****       /* hclk Clock Range between 14.2-15 MHz */
 157:Drivers/STM32H7xx_HAL_Driver/Src/stm32h7xx_ll_usb.c ****       UsbTrd = 0xFU;
 235              		.loc 1 157 14
 236 0024 0F23     		movs	r3, #15
 237 0026 7B61     		str	r3, [r7, #20]
 238 0028 62E0     		b	.L22
 239              	.L12:
 158:Drivers/STM32H7xx_HAL_Driver/Src/stm32h7xx_ll_usb.c ****     }
 159:Drivers/STM32H7xx_HAL_Driver/Src/stm32h7xx_ll_usb.c ****     else if ((hclk >= 15000000U) && (hclk < 16000000U))
 240              		.loc 1 159 13
 241 002a BB68     		ldr	r3, [r7, #8]
 242 002c 3C4A     		ldr	r2, .L25+4
 243 002e 9342     		cmp	r3, r2
ARM GAS  C:\Users\23671\AppData\Local\Temp\ccHDlRLJ.s 			page 8


 244 0030 06D3     		bcc	.L14
 245              		.loc 1 159 34 discriminator 1
 246 0032 BB68     		ldr	r3, [r7, #8]
 247 0034 3B4A     		ldr	r2, .L25+8
 248 0036 9342     		cmp	r3, r2
 249 0038 02D2     		bcs	.L14
 160:Drivers/STM32H7xx_HAL_Driver/Src/stm32h7xx_ll_usb.c ****     {
 161:Drivers/STM32H7xx_HAL_Driver/Src/stm32h7xx_ll_usb.c ****       /* hclk Clock Range between 15-16 MHz */
 162:Drivers/STM32H7xx_HAL_Driver/Src/stm32h7xx_ll_usb.c ****       UsbTrd = 0xEU;
 250              		.loc 1 162 14
 251 003a 0E23     		movs	r3, #14
 252 003c 7B61     		str	r3, [r7, #20]
 253 003e 57E0     		b	.L22
 254              	.L14:
 163:Drivers/STM32H7xx_HAL_Driver/Src/stm32h7xx_ll_usb.c ****     }
 164:Drivers/STM32H7xx_HAL_Driver/Src/stm32h7xx_ll_usb.c ****     else if ((hclk >= 16000000U) && (hclk < 17200000U))
 255              		.loc 1 164 13
 256 0040 BB68     		ldr	r3, [r7, #8]
 257 0042 384A     		ldr	r2, .L25+8
 258 0044 9342     		cmp	r3, r2
 259 0046 06D3     		bcc	.L15
 260              		.loc 1 164 34 discriminator 1
 261 0048 BB68     		ldr	r3, [r7, #8]
 262 004a 374A     		ldr	r2, .L25+12
 263 004c 9342     		cmp	r3, r2
 264 004e 02D2     		bcs	.L15
 165:Drivers/STM32H7xx_HAL_Driver/Src/stm32h7xx_ll_usb.c ****     {
 166:Drivers/STM32H7xx_HAL_Driver/Src/stm32h7xx_ll_usb.c ****       /* hclk Clock Range between 16-17.2 MHz */
 167:Drivers/STM32H7xx_HAL_Driver/Src/stm32h7xx_ll_usb.c ****       UsbTrd = 0xDU;
 265              		.loc 1 167 14
 266 0050 0D23     		movs	r3, #13
 267 0052 7B61     		str	r3, [r7, #20]
 268 0054 4CE0     		b	.L22
 269              	.L15:
 168:Drivers/STM32H7xx_HAL_Driver/Src/stm32h7xx_ll_usb.c ****     }
 169:Drivers/STM32H7xx_HAL_Driver/Src/stm32h7xx_ll_usb.c ****     else if ((hclk >= 17200000U) && (hclk < 18500000U))
 270              		.loc 1 169 13
 271 0056 BB68     		ldr	r3, [r7, #8]
 272 0058 334A     		ldr	r2, .L25+12
 273 005a 9342     		cmp	r3, r2
 274 005c 06D3     		bcc	.L16
 275              		.loc 1 169 34 discriminator 1
 276 005e BB68     		ldr	r3, [r7, #8]
 277 0060 324A     		ldr	r2, .L25+16
 278 0062 9342     		cmp	r3, r2
 279 0064 02D8     		bhi	.L16
 170:Drivers/STM32H7xx_HAL_Driver/Src/stm32h7xx_ll_usb.c ****     {
 171:Drivers/STM32H7xx_HAL_Driver/Src/stm32h7xx_ll_usb.c ****       /* hclk Clock Range between 17.2-18.5 MHz */
 172:Drivers/STM32H7xx_HAL_Driver/Src/stm32h7xx_ll_usb.c ****       UsbTrd = 0xCU;
 280              		.loc 1 172 14
 281 0066 0C23     		movs	r3, #12
 282 0068 7B61     		str	r3, [r7, #20]
 283 006a 41E0     		b	.L22
 284              	.L16:
 173:Drivers/STM32H7xx_HAL_Driver/Src/stm32h7xx_ll_usb.c ****     }
 174:Drivers/STM32H7xx_HAL_Driver/Src/stm32h7xx_ll_usb.c ****     else if ((hclk >= 18500000U) && (hclk < 20000000U))
 285              		.loc 1 174 13
ARM GAS  C:\Users\23671\AppData\Local\Temp\ccHDlRLJ.s 			page 9


 286 006c BB68     		ldr	r3, [r7, #8]
 287 006e 2F4A     		ldr	r2, .L25+16
 288 0070 9342     		cmp	r3, r2
 289 0072 06D9     		bls	.L17
 290              		.loc 1 174 34 discriminator 1
 291 0074 BB68     		ldr	r3, [r7, #8]
 292 0076 2E4A     		ldr	r2, .L25+20
 293 0078 9342     		cmp	r3, r2
 294 007a 02D8     		bhi	.L17
 175:Drivers/STM32H7xx_HAL_Driver/Src/stm32h7xx_ll_usb.c ****     {
 176:Drivers/STM32H7xx_HAL_Driver/Src/stm32h7xx_ll_usb.c ****       /* hclk Clock Range between 18.5-20 MHz */
 177:Drivers/STM32H7xx_HAL_Driver/Src/stm32h7xx_ll_usb.c ****       UsbTrd = 0xBU;
 295              		.loc 1 177 14
 296 007c 0B23     		movs	r3, #11
 297 007e 7B61     		str	r3, [r7, #20]
 298 0080 36E0     		b	.L22
 299              	.L17:
 178:Drivers/STM32H7xx_HAL_Driver/Src/stm32h7xx_ll_usb.c ****     }
 179:Drivers/STM32H7xx_HAL_Driver/Src/stm32h7xx_ll_usb.c ****     else if ((hclk >= 20000000U) && (hclk < 21800000U))
 300              		.loc 1 179 13
 301 0082 BB68     		ldr	r3, [r7, #8]
 302 0084 2A4A     		ldr	r2, .L25+20
 303 0086 9342     		cmp	r3, r2
 304 0088 06D9     		bls	.L18
 305              		.loc 1 179 34 discriminator 1
 306 008a BB68     		ldr	r3, [r7, #8]
 307 008c 294A     		ldr	r2, .L25+24
 308 008e 9342     		cmp	r3, r2
 309 0090 02D8     		bhi	.L18
 180:Drivers/STM32H7xx_HAL_Driver/Src/stm32h7xx_ll_usb.c ****     {
 181:Drivers/STM32H7xx_HAL_Driver/Src/stm32h7xx_ll_usb.c ****       /* hclk Clock Range between 20-21.8 MHz */
 182:Drivers/STM32H7xx_HAL_Driver/Src/stm32h7xx_ll_usb.c ****       UsbTrd = 0xAU;
 310              		.loc 1 182 14
 311 0092 0A23     		movs	r3, #10
 312 0094 7B61     		str	r3, [r7, #20]
 313 0096 2BE0     		b	.L22
 314              	.L18:
 183:Drivers/STM32H7xx_HAL_Driver/Src/stm32h7xx_ll_usb.c ****     }
 184:Drivers/STM32H7xx_HAL_Driver/Src/stm32h7xx_ll_usb.c ****     else if ((hclk >= 21800000U) && (hclk < 24000000U))
 315              		.loc 1 184 13
 316 0098 BB68     		ldr	r3, [r7, #8]
 317 009a 264A     		ldr	r2, .L25+24
 318 009c 9342     		cmp	r3, r2
 319 009e 06D9     		bls	.L19
 320              		.loc 1 184 34 discriminator 1
 321 00a0 BB68     		ldr	r3, [r7, #8]
 322 00a2 254A     		ldr	r2, .L25+28
 323 00a4 9342     		cmp	r3, r2
 324 00a6 02D2     		bcs	.L19
 185:Drivers/STM32H7xx_HAL_Driver/Src/stm32h7xx_ll_usb.c ****     {
 186:Drivers/STM32H7xx_HAL_Driver/Src/stm32h7xx_ll_usb.c ****       /* hclk Clock Range between 21.8-24 MHz */
 187:Drivers/STM32H7xx_HAL_Driver/Src/stm32h7xx_ll_usb.c ****       UsbTrd = 0x9U;
 325              		.loc 1 187 14
 326 00a8 0923     		movs	r3, #9
 327 00aa 7B61     		str	r3, [r7, #20]
 328 00ac 20E0     		b	.L22
 329              	.L19:
ARM GAS  C:\Users\23671\AppData\Local\Temp\ccHDlRLJ.s 			page 10


 188:Drivers/STM32H7xx_HAL_Driver/Src/stm32h7xx_ll_usb.c ****     }
 189:Drivers/STM32H7xx_HAL_Driver/Src/stm32h7xx_ll_usb.c ****     else if ((hclk >= 24000000U) && (hclk < 27700000U))
 330              		.loc 1 189 13
 331 00ae BB68     		ldr	r3, [r7, #8]
 332 00b0 214A     		ldr	r2, .L25+28
 333 00b2 9342     		cmp	r3, r2
 334 00b4 06D3     		bcc	.L20
 335              		.loc 1 189 34 discriminator 1
 336 00b6 BB68     		ldr	r3, [r7, #8]
 337 00b8 204A     		ldr	r2, .L25+32
 338 00ba 9342     		cmp	r3, r2
 339 00bc 02D8     		bhi	.L20
 190:Drivers/STM32H7xx_HAL_Driver/Src/stm32h7xx_ll_usb.c ****     {
 191:Drivers/STM32H7xx_HAL_Driver/Src/stm32h7xx_ll_usb.c ****       /* hclk Clock Range between 24-27.7 MHz */
 192:Drivers/STM32H7xx_HAL_Driver/Src/stm32h7xx_ll_usb.c ****       UsbTrd = 0x8U;
 340              		.loc 1 192 14
 341 00be 0823     		movs	r3, #8
 342 00c0 7B61     		str	r3, [r7, #20]
 343 00c2 15E0     		b	.L22
 344              	.L20:
 193:Drivers/STM32H7xx_HAL_Driver/Src/stm32h7xx_ll_usb.c ****     }
 194:Drivers/STM32H7xx_HAL_Driver/Src/stm32h7xx_ll_usb.c ****     else if ((hclk >= 27700000U) && (hclk < 32000000U))
 345              		.loc 1 194 13
 346 00c4 BB68     		ldr	r3, [r7, #8]
 347 00c6 1D4A     		ldr	r2, .L25+32
 348 00c8 9342     		cmp	r3, r2
 349 00ca 06D9     		bls	.L21
 350              		.loc 1 194 34 discriminator 1
 351 00cc BB68     		ldr	r3, [r7, #8]
 352 00ce 1C4A     		ldr	r2, .L25+36
 353 00d0 9342     		cmp	r3, r2
 354 00d2 02D2     		bcs	.L21
 195:Drivers/STM32H7xx_HAL_Driver/Src/stm32h7xx_ll_usb.c ****     {
 196:Drivers/STM32H7xx_HAL_Driver/Src/stm32h7xx_ll_usb.c ****       /* hclk Clock Range between 27.7-32 MHz */
 197:Drivers/STM32H7xx_HAL_Driver/Src/stm32h7xx_ll_usb.c ****       UsbTrd = 0x7U;
 355              		.loc 1 197 14
 356 00d4 0723     		movs	r3, #7
 357 00d6 7B61     		str	r3, [r7, #20]
 358 00d8 0AE0     		b	.L22
 359              	.L21:
 198:Drivers/STM32H7xx_HAL_Driver/Src/stm32h7xx_ll_usb.c ****     }
 199:Drivers/STM32H7xx_HAL_Driver/Src/stm32h7xx_ll_usb.c ****     else /* if(hclk >= 32000000) */
 200:Drivers/STM32H7xx_HAL_Driver/Src/stm32h7xx_ll_usb.c ****     {
 201:Drivers/STM32H7xx_HAL_Driver/Src/stm32h7xx_ll_usb.c ****       /* hclk Clock Range between 32-200 MHz */
 202:Drivers/STM32H7xx_HAL_Driver/Src/stm32h7xx_ll_usb.c ****       UsbTrd = 0x6U;
 360              		.loc 1 202 14
 361 00da 0623     		movs	r3, #6
 362 00dc 7B61     		str	r3, [r7, #20]
 363 00de 07E0     		b	.L22
 364              	.L11:
 203:Drivers/STM32H7xx_HAL_Driver/Src/stm32h7xx_ll_usb.c ****     }
 204:Drivers/STM32H7xx_HAL_Driver/Src/stm32h7xx_ll_usb.c ****   }
 205:Drivers/STM32H7xx_HAL_Driver/Src/stm32h7xx_ll_usb.c ****   else if (speed == USBD_HS_SPEED)
 365              		.loc 1 205 11
 366 00e0 FB79     		ldrb	r3, [r7, #7]	@ zero_extendqisi2
 367 00e2 002B     		cmp	r3, #0
 368 00e4 02D1     		bne	.L23
ARM GAS  C:\Users\23671\AppData\Local\Temp\ccHDlRLJ.s 			page 11


 206:Drivers/STM32H7xx_HAL_Driver/Src/stm32h7xx_ll_usb.c ****   {
 207:Drivers/STM32H7xx_HAL_Driver/Src/stm32h7xx_ll_usb.c ****     UsbTrd = USBD_HS_TRDT_VALUE;
 369              		.loc 1 207 12
 370 00e6 0923     		movs	r3, #9
 371 00e8 7B61     		str	r3, [r7, #20]
 372 00ea 01E0     		b	.L22
 373              	.L23:
 208:Drivers/STM32H7xx_HAL_Driver/Src/stm32h7xx_ll_usb.c ****   }
 209:Drivers/STM32H7xx_HAL_Driver/Src/stm32h7xx_ll_usb.c ****   else
 210:Drivers/STM32H7xx_HAL_Driver/Src/stm32h7xx_ll_usb.c ****   {
 211:Drivers/STM32H7xx_HAL_Driver/Src/stm32h7xx_ll_usb.c ****     UsbTrd = USBD_DEFAULT_TRDT_VALUE;
 374              		.loc 1 211 12
 375 00ec 0923     		movs	r3, #9
 376 00ee 7B61     		str	r3, [r7, #20]
 377              	.L22:
 212:Drivers/STM32H7xx_HAL_Driver/Src/stm32h7xx_ll_usb.c ****   }
 213:Drivers/STM32H7xx_HAL_Driver/Src/stm32h7xx_ll_usb.c **** 
 214:Drivers/STM32H7xx_HAL_Driver/Src/stm32h7xx_ll_usb.c ****   USBx->GUSBCFG &= ~USB_OTG_GUSBCFG_TRDT;
 378              		.loc 1 214 7
 379 00f0 FB68     		ldr	r3, [r7, #12]
 380 00f2 DB68     		ldr	r3, [r3, #12]
 381              		.loc 1 214 17
 382 00f4 23F47052 		bic	r2, r3, #15360
 383 00f8 FB68     		ldr	r3, [r7, #12]
 384 00fa DA60     		str	r2, [r3, #12]
 215:Drivers/STM32H7xx_HAL_Driver/Src/stm32h7xx_ll_usb.c ****   USBx->GUSBCFG |= (uint32_t)((UsbTrd << 10) & USB_OTG_GUSBCFG_TRDT);
 385              		.loc 1 215 7
 386 00fc FB68     		ldr	r3, [r7, #12]
 387 00fe DA68     		ldr	r2, [r3, #12]
 388              		.loc 1 215 39
 389 0100 7B69     		ldr	r3, [r7, #20]
 390 0102 9B02     		lsls	r3, r3, #10
 391              		.loc 1 215 20
 392 0104 03F47053 		and	r3, r3, #15360
 393              		.loc 1 215 17
 394 0108 1A43     		orrs	r2, r2, r3
 395 010a FB68     		ldr	r3, [r7, #12]
 396 010c DA60     		str	r2, [r3, #12]
 216:Drivers/STM32H7xx_HAL_Driver/Src/stm32h7xx_ll_usb.c **** 
 217:Drivers/STM32H7xx_HAL_Driver/Src/stm32h7xx_ll_usb.c ****   return HAL_OK;
 397              		.loc 1 217 10
 398 010e 0023     		movs	r3, #0
 218:Drivers/STM32H7xx_HAL_Driver/Src/stm32h7xx_ll_usb.c **** }
 399              		.loc 1 218 1
 400 0110 1846     		mov	r0, r3
 401 0112 1C37     		adds	r7, r7, #28
 402              	.LCFI11:
 403              		.cfi_def_cfa_offset 4
 404 0114 BD46     		mov	sp, r7
 405              	.LCFI12:
 406              		.cfi_def_cfa_register 13
 407              		@ sp needed
 408 0116 5DF8047B 		ldr	r7, [sp], #4
 409              	.LCFI13:
 410              		.cfi_restore 7
 411              		.cfi_def_cfa_offset 0
 412 011a 7047     		bx	lr
ARM GAS  C:\Users\23671\AppData\Local\Temp\ccHDlRLJ.s 			page 12


 413              	.L26:
 414              		.align	2
 415              	.L25:
 416 011c BFACD800 		.word	14199999
 417 0120 C0E1E400 		.word	15000000
 418 0124 0024F400 		.word	16000000
 419 0128 80730601 		.word	17200000
 420 012c 9F491A01 		.word	18499999
 421 0130 FF2C3101 		.word	19999999
 422 0134 3FA44C01 		.word	21799999
 423 0138 00366E01 		.word	24000000
 424 013c 1FABA601 		.word	27699999
 425 0140 0048E801 		.word	32000000
 426              		.cfi_endproc
 427              	.LFE145:
 429              		.section	.text.USB_EnableGlobalInt,"ax",%progbits
 430              		.align	1
 431              		.global	USB_EnableGlobalInt
 432              		.syntax unified
 433              		.thumb
 434              		.thumb_func
 436              	USB_EnableGlobalInt:
 437              	.LFB146:
 219:Drivers/STM32H7xx_HAL_Driver/Src/stm32h7xx_ll_usb.c **** 
 220:Drivers/STM32H7xx_HAL_Driver/Src/stm32h7xx_ll_usb.c **** /**
 221:Drivers/STM32H7xx_HAL_Driver/Src/stm32h7xx_ll_usb.c ****   * @brief  USB_EnableGlobalInt
 222:Drivers/STM32H7xx_HAL_Driver/Src/stm32h7xx_ll_usb.c ****   *         Enables the controller's Global Int in the AHB Config reg
 223:Drivers/STM32H7xx_HAL_Driver/Src/stm32h7xx_ll_usb.c ****   * @param  USBx  Selected device
 224:Drivers/STM32H7xx_HAL_Driver/Src/stm32h7xx_ll_usb.c ****   * @retval HAL status
 225:Drivers/STM32H7xx_HAL_Driver/Src/stm32h7xx_ll_usb.c ****   */
 226:Drivers/STM32H7xx_HAL_Driver/Src/stm32h7xx_ll_usb.c **** HAL_StatusTypeDef USB_EnableGlobalInt(USB_OTG_GlobalTypeDef *USBx)
 227:Drivers/STM32H7xx_HAL_Driver/Src/stm32h7xx_ll_usb.c **** {
 438              		.loc 1 227 1
 439              		.cfi_startproc
 440              		@ args = 0, pretend = 0, frame = 8
 441              		@ frame_needed = 1, uses_anonymous_args = 0
 442              		@ link register save eliminated.
 443 0000 80B4     		push	{r7}
 444              	.LCFI14:
 445              		.cfi_def_cfa_offset 4
 446              		.cfi_offset 7, -4
 447 0002 83B0     		sub	sp, sp, #12
 448              	.LCFI15:
 449              		.cfi_def_cfa_offset 16
 450 0004 00AF     		add	r7, sp, #0
 451              	.LCFI16:
 452              		.cfi_def_cfa_register 7
 453 0006 7860     		str	r0, [r7, #4]
 228:Drivers/STM32H7xx_HAL_Driver/Src/stm32h7xx_ll_usb.c ****   USBx->GAHBCFG |= USB_OTG_GAHBCFG_GINT;
 454              		.loc 1 228 7
 455 0008 7B68     		ldr	r3, [r7, #4]
 456 000a 9B68     		ldr	r3, [r3, #8]
 457              		.loc 1 228 17
 458 000c 43F00102 		orr	r2, r3, #1
 459 0010 7B68     		ldr	r3, [r7, #4]
 460 0012 9A60     		str	r2, [r3, #8]
 229:Drivers/STM32H7xx_HAL_Driver/Src/stm32h7xx_ll_usb.c ****   return HAL_OK;
ARM GAS  C:\Users\23671\AppData\Local\Temp\ccHDlRLJ.s 			page 13


 461              		.loc 1 229 10
 462 0014 0023     		movs	r3, #0
 230:Drivers/STM32H7xx_HAL_Driver/Src/stm32h7xx_ll_usb.c **** }
 463              		.loc 1 230 1
 464 0016 1846     		mov	r0, r3
 465 0018 0C37     		adds	r7, r7, #12
 466              	.LCFI17:
 467              		.cfi_def_cfa_offset 4
 468 001a BD46     		mov	sp, r7
 469              	.LCFI18:
 470              		.cfi_def_cfa_register 13
 471              		@ sp needed
 472 001c 5DF8047B 		ldr	r7, [sp], #4
 473              	.LCFI19:
 474              		.cfi_restore 7
 475              		.cfi_def_cfa_offset 0
 476 0020 7047     		bx	lr
 477              		.cfi_endproc
 478              	.LFE146:
 480              		.section	.text.USB_DisableGlobalInt,"ax",%progbits
 481              		.align	1
 482              		.global	USB_DisableGlobalInt
 483              		.syntax unified
 484              		.thumb
 485              		.thumb_func
 487              	USB_DisableGlobalInt:
 488              	.LFB147:
 231:Drivers/STM32H7xx_HAL_Driver/Src/stm32h7xx_ll_usb.c **** 
 232:Drivers/STM32H7xx_HAL_Driver/Src/stm32h7xx_ll_usb.c **** /**
 233:Drivers/STM32H7xx_HAL_Driver/Src/stm32h7xx_ll_usb.c ****   * @brief  USB_DisableGlobalInt
 234:Drivers/STM32H7xx_HAL_Driver/Src/stm32h7xx_ll_usb.c ****   *         Disable the controller's Global Int in the AHB Config reg
 235:Drivers/STM32H7xx_HAL_Driver/Src/stm32h7xx_ll_usb.c ****   * @param  USBx  Selected device
 236:Drivers/STM32H7xx_HAL_Driver/Src/stm32h7xx_ll_usb.c ****   * @retval HAL status
 237:Drivers/STM32H7xx_HAL_Driver/Src/stm32h7xx_ll_usb.c ****   */
 238:Drivers/STM32H7xx_HAL_Driver/Src/stm32h7xx_ll_usb.c **** HAL_StatusTypeDef USB_DisableGlobalInt(USB_OTG_GlobalTypeDef *USBx)
 239:Drivers/STM32H7xx_HAL_Driver/Src/stm32h7xx_ll_usb.c **** {
 489              		.loc 1 239 1
 490              		.cfi_startproc
 491              		@ args = 0, pretend = 0, frame = 8
 492              		@ frame_needed = 1, uses_anonymous_args = 0
 493              		@ link register save eliminated.
 494 0000 80B4     		push	{r7}
 495              	.LCFI20:
 496              		.cfi_def_cfa_offset 4
 497              		.cfi_offset 7, -4
 498 0002 83B0     		sub	sp, sp, #12
 499              	.LCFI21:
 500              		.cfi_def_cfa_offset 16
 501 0004 00AF     		add	r7, sp, #0
 502              	.LCFI22:
 503              		.cfi_def_cfa_register 7
 504 0006 7860     		str	r0, [r7, #4]
 240:Drivers/STM32H7xx_HAL_Driver/Src/stm32h7xx_ll_usb.c ****   USBx->GAHBCFG &= ~USB_OTG_GAHBCFG_GINT;
 505              		.loc 1 240 7
 506 0008 7B68     		ldr	r3, [r7, #4]
 507 000a 9B68     		ldr	r3, [r3, #8]
 508              		.loc 1 240 17
ARM GAS  C:\Users\23671\AppData\Local\Temp\ccHDlRLJ.s 			page 14


 509 000c 23F00102 		bic	r2, r3, #1
 510 0010 7B68     		ldr	r3, [r7, #4]
 511 0012 9A60     		str	r2, [r3, #8]
 241:Drivers/STM32H7xx_HAL_Driver/Src/stm32h7xx_ll_usb.c ****   return HAL_OK;
 512              		.loc 1 241 10
 513 0014 0023     		movs	r3, #0
 242:Drivers/STM32H7xx_HAL_Driver/Src/stm32h7xx_ll_usb.c **** }
 514              		.loc 1 242 1
 515 0016 1846     		mov	r0, r3
 516 0018 0C37     		adds	r7, r7, #12
 517              	.LCFI23:
 518              		.cfi_def_cfa_offset 4
 519 001a BD46     		mov	sp, r7
 520              	.LCFI24:
 521              		.cfi_def_cfa_register 13
 522              		@ sp needed
 523 001c 5DF8047B 		ldr	r7, [sp], #4
 524              	.LCFI25:
 525              		.cfi_restore 7
 526              		.cfi_def_cfa_offset 0
 527 0020 7047     		bx	lr
 528              		.cfi_endproc
 529              	.LFE147:
 531              		.section	.text.USB_SetCurrentMode,"ax",%progbits
 532              		.align	1
 533              		.global	USB_SetCurrentMode
 534              		.syntax unified
 535              		.thumb
 536              		.thumb_func
 538              	USB_SetCurrentMode:
 539              	.LFB148:
 243:Drivers/STM32H7xx_HAL_Driver/Src/stm32h7xx_ll_usb.c **** 
 244:Drivers/STM32H7xx_HAL_Driver/Src/stm32h7xx_ll_usb.c **** /**
 245:Drivers/STM32H7xx_HAL_Driver/Src/stm32h7xx_ll_usb.c ****   * @brief  USB_SetCurrentMode Set functional mode
 246:Drivers/STM32H7xx_HAL_Driver/Src/stm32h7xx_ll_usb.c ****   * @param  USBx  Selected device
 247:Drivers/STM32H7xx_HAL_Driver/Src/stm32h7xx_ll_usb.c ****   * @param  mode  current core mode
 248:Drivers/STM32H7xx_HAL_Driver/Src/stm32h7xx_ll_usb.c ****   *          This parameter can be one of these values:
 249:Drivers/STM32H7xx_HAL_Driver/Src/stm32h7xx_ll_usb.c ****   *            @arg USB_DEVICE_MODE Peripheral mode
 250:Drivers/STM32H7xx_HAL_Driver/Src/stm32h7xx_ll_usb.c ****   *            @arg USB_HOST_MODE Host mode
 251:Drivers/STM32H7xx_HAL_Driver/Src/stm32h7xx_ll_usb.c ****   * @retval HAL status
 252:Drivers/STM32H7xx_HAL_Driver/Src/stm32h7xx_ll_usb.c ****   */
 253:Drivers/STM32H7xx_HAL_Driver/Src/stm32h7xx_ll_usb.c **** HAL_StatusTypeDef USB_SetCurrentMode(USB_OTG_GlobalTypeDef *USBx, USB_OTG_ModeTypeDef mode)
 254:Drivers/STM32H7xx_HAL_Driver/Src/stm32h7xx_ll_usb.c **** {
 540              		.loc 1 254 1
 541              		.cfi_startproc
 542              		@ args = 0, pretend = 0, frame = 16
 543              		@ frame_needed = 1, uses_anonymous_args = 0
 544 0000 80B5     		push	{r7, lr}
 545              	.LCFI26:
 546              		.cfi_def_cfa_offset 8
 547              		.cfi_offset 7, -8
 548              		.cfi_offset 14, -4
 549 0002 84B0     		sub	sp, sp, #16
 550              	.LCFI27:
 551              		.cfi_def_cfa_offset 24
 552 0004 00AF     		add	r7, sp, #0
 553              	.LCFI28:
ARM GAS  C:\Users\23671\AppData\Local\Temp\ccHDlRLJ.s 			page 15


 554              		.cfi_def_cfa_register 7
 555 0006 7860     		str	r0, [r7, #4]
 556 0008 0B46     		mov	r3, r1
 557 000a FB70     		strb	r3, [r7, #3]
 255:Drivers/STM32H7xx_HAL_Driver/Src/stm32h7xx_ll_usb.c ****   uint32_t ms = 0U;
 558              		.loc 1 255 12
 559 000c 0023     		movs	r3, #0
 560 000e FB60     		str	r3, [r7, #12]
 256:Drivers/STM32H7xx_HAL_Driver/Src/stm32h7xx_ll_usb.c **** 
 257:Drivers/STM32H7xx_HAL_Driver/Src/stm32h7xx_ll_usb.c ****   USBx->GUSBCFG &= ~(USB_OTG_GUSBCFG_FHMOD | USB_OTG_GUSBCFG_FDMOD);
 561              		.loc 1 257 7
 562 0010 7B68     		ldr	r3, [r7, #4]
 563 0012 DB68     		ldr	r3, [r3, #12]
 564              		.loc 1 257 17
 565 0014 23F0C042 		bic	r2, r3, #1610612736
 566 0018 7B68     		ldr	r3, [r7, #4]
 567 001a DA60     		str	r2, [r3, #12]
 258:Drivers/STM32H7xx_HAL_Driver/Src/stm32h7xx_ll_usb.c **** 
 259:Drivers/STM32H7xx_HAL_Driver/Src/stm32h7xx_ll_usb.c ****   if (mode == USB_HOST_MODE)
 568              		.loc 1 259 6
 569 001c FB78     		ldrb	r3, [r7, #3]	@ zero_extendqisi2
 570 001e 012B     		cmp	r3, #1
 571 0020 15D1     		bne	.L32
 260:Drivers/STM32H7xx_HAL_Driver/Src/stm32h7xx_ll_usb.c ****   {
 261:Drivers/STM32H7xx_HAL_Driver/Src/stm32h7xx_ll_usb.c ****     USBx->GUSBCFG |= USB_OTG_GUSBCFG_FHMOD;
 572              		.loc 1 261 9
 573 0022 7B68     		ldr	r3, [r7, #4]
 574 0024 DB68     		ldr	r3, [r3, #12]
 575              		.loc 1 261 19
 576 0026 43F00052 		orr	r2, r3, #536870912
 577 002a 7B68     		ldr	r3, [r7, #4]
 578 002c DA60     		str	r2, [r3, #12]
 579              	.L34:
 262:Drivers/STM32H7xx_HAL_Driver/Src/stm32h7xx_ll_usb.c **** 
 263:Drivers/STM32H7xx_HAL_Driver/Src/stm32h7xx_ll_usb.c ****     do
 264:Drivers/STM32H7xx_HAL_Driver/Src/stm32h7xx_ll_usb.c ****     {
 265:Drivers/STM32H7xx_HAL_Driver/Src/stm32h7xx_ll_usb.c ****       HAL_Delay(10U);
 580              		.loc 1 265 7
 581 002e 0A20     		movs	r0, #10
 582 0030 FFF7FEFF 		bl	HAL_Delay
 266:Drivers/STM32H7xx_HAL_Driver/Src/stm32h7xx_ll_usb.c ****       ms += 10U;
 583              		.loc 1 266 10
 584 0034 FB68     		ldr	r3, [r7, #12]
 585 0036 0A33     		adds	r3, r3, #10
 586 0038 FB60     		str	r3, [r7, #12]
 267:Drivers/STM32H7xx_HAL_Driver/Src/stm32h7xx_ll_usb.c ****     } while ((USB_GetMode(USBx) != (uint32_t)USB_HOST_MODE) && (ms < HAL_USB_CURRENT_MODE_MAX_DELAY
 587              		.loc 1 267 15 discriminator 2
 588 003a 7868     		ldr	r0, [r7, #4]
 589 003c FFF7FEFF 		bl	USB_GetMode
 590 0040 0346     		mov	r3, r0
 591              		.loc 1 267 61 discriminator 2
 592 0042 012B     		cmp	r3, #1
 593 0044 1ED0     		beq	.L33
 594              		.loc 1 267 61 is_stmt 0 discriminator 1
 595 0046 FB68     		ldr	r3, [r7, #12]
 596 0048 C72B     		cmp	r3, #199
 597 004a F0D9     		bls	.L34
ARM GAS  C:\Users\23671\AppData\Local\Temp\ccHDlRLJ.s 			page 16


 598 004c 1AE0     		b	.L33
 599              	.L32:
 268:Drivers/STM32H7xx_HAL_Driver/Src/stm32h7xx_ll_usb.c ****   }
 269:Drivers/STM32H7xx_HAL_Driver/Src/stm32h7xx_ll_usb.c ****   else if (mode == USB_DEVICE_MODE)
 600              		.loc 1 269 11 is_stmt 1
 601 004e FB78     		ldrb	r3, [r7, #3]	@ zero_extendqisi2
 602 0050 002B     		cmp	r3, #0
 603 0052 15D1     		bne	.L35
 270:Drivers/STM32H7xx_HAL_Driver/Src/stm32h7xx_ll_usb.c ****   {
 271:Drivers/STM32H7xx_HAL_Driver/Src/stm32h7xx_ll_usb.c ****     USBx->GUSBCFG |= USB_OTG_GUSBCFG_FDMOD;
 604              		.loc 1 271 9
 605 0054 7B68     		ldr	r3, [r7, #4]
 606 0056 DB68     		ldr	r3, [r3, #12]
 607              		.loc 1 271 19
 608 0058 43F08042 		orr	r2, r3, #1073741824
 609 005c 7B68     		ldr	r3, [r7, #4]
 610 005e DA60     		str	r2, [r3, #12]
 611              	.L36:
 272:Drivers/STM32H7xx_HAL_Driver/Src/stm32h7xx_ll_usb.c **** 
 273:Drivers/STM32H7xx_HAL_Driver/Src/stm32h7xx_ll_usb.c ****     do
 274:Drivers/STM32H7xx_HAL_Driver/Src/stm32h7xx_ll_usb.c ****     {
 275:Drivers/STM32H7xx_HAL_Driver/Src/stm32h7xx_ll_usb.c ****       HAL_Delay(10U);
 612              		.loc 1 275 7
 613 0060 0A20     		movs	r0, #10
 614 0062 FFF7FEFF 		bl	HAL_Delay
 276:Drivers/STM32H7xx_HAL_Driver/Src/stm32h7xx_ll_usb.c ****       ms += 10U;
 615              		.loc 1 276 10
 616 0066 FB68     		ldr	r3, [r7, #12]
 617 0068 0A33     		adds	r3, r3, #10
 618 006a FB60     		str	r3, [r7, #12]
 277:Drivers/STM32H7xx_HAL_Driver/Src/stm32h7xx_ll_usb.c ****     } while ((USB_GetMode(USBx) != (uint32_t)USB_DEVICE_MODE) && (ms < HAL_USB_CURRENT_MODE_MAX_DEL
 619              		.loc 1 277 15 discriminator 2
 620 006c 7868     		ldr	r0, [r7, #4]
 621 006e FFF7FEFF 		bl	USB_GetMode
 622 0072 0346     		mov	r3, r0
 623              		.loc 1 277 63 discriminator 2
 624 0074 002B     		cmp	r3, #0
 625 0076 05D0     		beq	.L33
 626              		.loc 1 277 63 is_stmt 0 discriminator 1
 627 0078 FB68     		ldr	r3, [r7, #12]
 628 007a C72B     		cmp	r3, #199
 629 007c F0D9     		bls	.L36
 630 007e 01E0     		b	.L33
 631              	.L35:
 278:Drivers/STM32H7xx_HAL_Driver/Src/stm32h7xx_ll_usb.c ****   }
 279:Drivers/STM32H7xx_HAL_Driver/Src/stm32h7xx_ll_usb.c ****   else
 280:Drivers/STM32H7xx_HAL_Driver/Src/stm32h7xx_ll_usb.c ****   {
 281:Drivers/STM32H7xx_HAL_Driver/Src/stm32h7xx_ll_usb.c ****     return HAL_ERROR;
 632              		.loc 1 281 12 is_stmt 1
 633 0080 0123     		movs	r3, #1
 634 0082 05E0     		b	.L37
 635              	.L33:
 282:Drivers/STM32H7xx_HAL_Driver/Src/stm32h7xx_ll_usb.c ****   }
 283:Drivers/STM32H7xx_HAL_Driver/Src/stm32h7xx_ll_usb.c **** 
 284:Drivers/STM32H7xx_HAL_Driver/Src/stm32h7xx_ll_usb.c ****   if (ms == HAL_USB_CURRENT_MODE_MAX_DELAY_MS)
 636              		.loc 1 284 6
 637 0084 FB68     		ldr	r3, [r7, #12]
ARM GAS  C:\Users\23671\AppData\Local\Temp\ccHDlRLJ.s 			page 17


 638 0086 C82B     		cmp	r3, #200
 639 0088 01D1     		bne	.L38
 285:Drivers/STM32H7xx_HAL_Driver/Src/stm32h7xx_ll_usb.c ****   {
 286:Drivers/STM32H7xx_HAL_Driver/Src/stm32h7xx_ll_usb.c ****     return HAL_ERROR;
 640              		.loc 1 286 12
 641 008a 0123     		movs	r3, #1
 642 008c 00E0     		b	.L37
 643              	.L38:
 287:Drivers/STM32H7xx_HAL_Driver/Src/stm32h7xx_ll_usb.c ****   }
 288:Drivers/STM32H7xx_HAL_Driver/Src/stm32h7xx_ll_usb.c **** 
 289:Drivers/STM32H7xx_HAL_Driver/Src/stm32h7xx_ll_usb.c ****   return HAL_OK;
 644              		.loc 1 289 10
 645 008e 0023     		movs	r3, #0
 646              	.L37:
 290:Drivers/STM32H7xx_HAL_Driver/Src/stm32h7xx_ll_usb.c **** }
 647              		.loc 1 290 1
 648 0090 1846     		mov	r0, r3
 649 0092 1037     		adds	r7, r7, #16
 650              	.LCFI29:
 651              		.cfi_def_cfa_offset 8
 652 0094 BD46     		mov	sp, r7
 653              	.LCFI30:
 654              		.cfi_def_cfa_register 13
 655              		@ sp needed
 656 0096 80BD     		pop	{r7, pc}
 657              		.cfi_endproc
 658              	.LFE148:
 660              		.section	.text.USB_DevInit,"ax",%progbits
 661              		.align	1
 662              		.global	USB_DevInit
 663              		.syntax unified
 664              		.thumb
 665              		.thumb_func
 667              	USB_DevInit:
 668              	.LFB149:
 291:Drivers/STM32H7xx_HAL_Driver/Src/stm32h7xx_ll_usb.c **** 
 292:Drivers/STM32H7xx_HAL_Driver/Src/stm32h7xx_ll_usb.c **** /**
 293:Drivers/STM32H7xx_HAL_Driver/Src/stm32h7xx_ll_usb.c ****   * @brief  USB_DevInit Initializes the USB_OTG controller registers
 294:Drivers/STM32H7xx_HAL_Driver/Src/stm32h7xx_ll_usb.c ****   *         for device mode
 295:Drivers/STM32H7xx_HAL_Driver/Src/stm32h7xx_ll_usb.c ****   * @param  USBx  Selected device
 296:Drivers/STM32H7xx_HAL_Driver/Src/stm32h7xx_ll_usb.c ****   * @param  cfg   pointer to a USB_OTG_CfgTypeDef structure that contains
 297:Drivers/STM32H7xx_HAL_Driver/Src/stm32h7xx_ll_usb.c ****   *         the configuration information for the specified USBx peripheral.
 298:Drivers/STM32H7xx_HAL_Driver/Src/stm32h7xx_ll_usb.c ****   * @retval HAL status
 299:Drivers/STM32H7xx_HAL_Driver/Src/stm32h7xx_ll_usb.c ****   */
 300:Drivers/STM32H7xx_HAL_Driver/Src/stm32h7xx_ll_usb.c **** HAL_StatusTypeDef USB_DevInit(USB_OTG_GlobalTypeDef *USBx, USB_OTG_CfgTypeDef cfg)
 301:Drivers/STM32H7xx_HAL_Driver/Src/stm32h7xx_ll_usb.c **** {
 669              		.loc 1 301 1
 670              		.cfi_startproc
 671              		@ args = 20, pretend = 16, frame = 24
 672              		@ frame_needed = 1, uses_anonymous_args = 0
 673 0000 84B0     		sub	sp, sp, #16
 674              	.LCFI31:
 675              		.cfi_def_cfa_offset 16
 676 0002 80B5     		push	{r7, lr}
 677              	.LCFI32:
 678              		.cfi_def_cfa_offset 24
 679              		.cfi_offset 7, -24
ARM GAS  C:\Users\23671\AppData\Local\Temp\ccHDlRLJ.s 			page 18


 680              		.cfi_offset 14, -20
 681 0004 86B0     		sub	sp, sp, #24
 682              	.LCFI33:
 683              		.cfi_def_cfa_offset 48
 684 0006 00AF     		add	r7, sp, #0
 685              	.LCFI34:
 686              		.cfi_def_cfa_register 7
 687 0008 7860     		str	r0, [r7, #4]
 688 000a 07F12400 		add	r0, r7, #36
 689 000e 80E80E00 		stm	r0, {r1, r2, r3}
 302:Drivers/STM32H7xx_HAL_Driver/Src/stm32h7xx_ll_usb.c ****   HAL_StatusTypeDef ret = HAL_OK;
 690              		.loc 1 302 21
 691 0012 0023     		movs	r3, #0
 692 0014 FB75     		strb	r3, [r7, #23]
 303:Drivers/STM32H7xx_HAL_Driver/Src/stm32h7xx_ll_usb.c ****   uint32_t USBx_BASE = (uint32_t)USBx;
 693              		.loc 1 303 12
 694 0016 7B68     		ldr	r3, [r7, #4]
 695 0018 FB60     		str	r3, [r7, #12]
 304:Drivers/STM32H7xx_HAL_Driver/Src/stm32h7xx_ll_usb.c ****   uint32_t i;
 305:Drivers/STM32H7xx_HAL_Driver/Src/stm32h7xx_ll_usb.c **** 
 306:Drivers/STM32H7xx_HAL_Driver/Src/stm32h7xx_ll_usb.c ****   for (i = 0U; i < 15U; i++)
 696              		.loc 1 306 10
 697 001a 0023     		movs	r3, #0
 698 001c 3B61     		str	r3, [r7, #16]
 699              		.loc 1 306 3
 700 001e 09E0     		b	.L40
 701              	.L41:
 307:Drivers/STM32H7xx_HAL_Driver/Src/stm32h7xx_ll_usb.c ****   {
 308:Drivers/STM32H7xx_HAL_Driver/Src/stm32h7xx_ll_usb.c ****     USBx->DIEPTXF[i] = 0U;
 702              		.loc 1 308 22
 703 0020 7A68     		ldr	r2, [r7, #4]
 704 0022 3B69     		ldr	r3, [r7, #16]
 705 0024 4033     		adds	r3, r3, #64
 706 0026 9B00     		lsls	r3, r3, #2
 707 0028 1344     		add	r3, r3, r2
 708 002a 0022     		movs	r2, #0
 709 002c 5A60     		str	r2, [r3, #4]
 306:Drivers/STM32H7xx_HAL_Driver/Src/stm32h7xx_ll_usb.c ****   {
 710              		.loc 1 306 26 discriminator 3
 711 002e 3B69     		ldr	r3, [r7, #16]
 712 0030 0133     		adds	r3, r3, #1
 713 0032 3B61     		str	r3, [r7, #16]
 714              	.L40:
 306:Drivers/STM32H7xx_HAL_Driver/Src/stm32h7xx_ll_usb.c ****   {
 715              		.loc 1 306 18 discriminator 1
 716 0034 3B69     		ldr	r3, [r7, #16]
 717 0036 0E2B     		cmp	r3, #14
 718 0038 F2D9     		bls	.L41
 309:Drivers/STM32H7xx_HAL_Driver/Src/stm32h7xx_ll_usb.c ****   }
 310:Drivers/STM32H7xx_HAL_Driver/Src/stm32h7xx_ll_usb.c **** 
 311:Drivers/STM32H7xx_HAL_Driver/Src/stm32h7xx_ll_usb.c ****   /* VBUS Sensing setup */
 312:Drivers/STM32H7xx_HAL_Driver/Src/stm32h7xx_ll_usb.c ****   if (cfg.vbus_sensing_enable == 0U)
 719              		.loc 1 312 10
 720 003a 97F82E30 		ldrb	r3, [r7, #46]	@ zero_extendqisi2
 721              		.loc 1 312 6
 722 003e 002B     		cmp	r3, #0
 723 0040 1CD1     		bne	.L42
ARM GAS  C:\Users\23671\AppData\Local\Temp\ccHDlRLJ.s 			page 19


 313:Drivers/STM32H7xx_HAL_Driver/Src/stm32h7xx_ll_usb.c ****   {
 314:Drivers/STM32H7xx_HAL_Driver/Src/stm32h7xx_ll_usb.c ****     USBx_DEVICE->DCTL |= USB_OTG_DCTL_SDIS;
 724              		.loc 1 314 16
 725 0042 FB68     		ldr	r3, [r7, #12]
 726 0044 03F50063 		add	r3, r3, #2048
 727 0048 5B68     		ldr	r3, [r3, #4]
 728 004a FA68     		ldr	r2, [r7, #12]
 729 004c 02F50062 		add	r2, r2, #2048
 730              		.loc 1 314 23
 731 0050 43F00203 		orr	r3, r3, #2
 732 0054 5360     		str	r3, [r2, #4]
 315:Drivers/STM32H7xx_HAL_Driver/Src/stm32h7xx_ll_usb.c **** 
 316:Drivers/STM32H7xx_HAL_Driver/Src/stm32h7xx_ll_usb.c ****     /* Deactivate VBUS Sensing B */
 317:Drivers/STM32H7xx_HAL_Driver/Src/stm32h7xx_ll_usb.c ****     USBx->GCCFG &= ~USB_OTG_GCCFG_VBDEN;
 733              		.loc 1 317 9
 734 0056 7B68     		ldr	r3, [r7, #4]
 735 0058 9B6B     		ldr	r3, [r3, #56]
 736              		.loc 1 317 17
 737 005a 23F40012 		bic	r2, r3, #2097152
 738 005e 7B68     		ldr	r3, [r7, #4]
 739 0060 9A63     		str	r2, [r3, #56]
 318:Drivers/STM32H7xx_HAL_Driver/Src/stm32h7xx_ll_usb.c **** 
 319:Drivers/STM32H7xx_HAL_Driver/Src/stm32h7xx_ll_usb.c ****     /* B-peripheral session valid override enable */
 320:Drivers/STM32H7xx_HAL_Driver/Src/stm32h7xx_ll_usb.c ****     USBx->GOTGCTL |= USB_OTG_GOTGCTL_BVALOEN;
 740              		.loc 1 320 9
 741 0062 7B68     		ldr	r3, [r7, #4]
 742 0064 1B68     		ldr	r3, [r3]
 743              		.loc 1 320 19
 744 0066 43F04002 		orr	r2, r3, #64
 745 006a 7B68     		ldr	r3, [r7, #4]
 746 006c 1A60     		str	r2, [r3]
 321:Drivers/STM32H7xx_HAL_Driver/Src/stm32h7xx_ll_usb.c ****     USBx->GOTGCTL |= USB_OTG_GOTGCTL_BVALOVAL;
 747              		.loc 1 321 9
 748 006e 7B68     		ldr	r3, [r7, #4]
 749 0070 1B68     		ldr	r3, [r3]
 750              		.loc 1 321 19
 751 0072 43F08002 		orr	r2, r3, #128
 752 0076 7B68     		ldr	r3, [r7, #4]
 753 0078 1A60     		str	r2, [r3]
 754 007a 05E0     		b	.L43
 755              	.L42:
 322:Drivers/STM32H7xx_HAL_Driver/Src/stm32h7xx_ll_usb.c ****   }
 323:Drivers/STM32H7xx_HAL_Driver/Src/stm32h7xx_ll_usb.c ****   else
 324:Drivers/STM32H7xx_HAL_Driver/Src/stm32h7xx_ll_usb.c ****   {
 325:Drivers/STM32H7xx_HAL_Driver/Src/stm32h7xx_ll_usb.c ****     /* Enable HW VBUS sensing */
 326:Drivers/STM32H7xx_HAL_Driver/Src/stm32h7xx_ll_usb.c ****     USBx->GCCFG |= USB_OTG_GCCFG_VBDEN;
 756              		.loc 1 326 9
 757 007c 7B68     		ldr	r3, [r7, #4]
 758 007e 9B6B     		ldr	r3, [r3, #56]
 759              		.loc 1 326 17
 760 0080 43F40012 		orr	r2, r3, #2097152
 761 0084 7B68     		ldr	r3, [r7, #4]
 762 0086 9A63     		str	r2, [r3, #56]
 763              	.L43:
 327:Drivers/STM32H7xx_HAL_Driver/Src/stm32h7xx_ll_usb.c ****   }
 328:Drivers/STM32H7xx_HAL_Driver/Src/stm32h7xx_ll_usb.c **** 
 329:Drivers/STM32H7xx_HAL_Driver/Src/stm32h7xx_ll_usb.c ****   /* Restart the Phy Clock */
ARM GAS  C:\Users\23671\AppData\Local\Temp\ccHDlRLJ.s 			page 20


 330:Drivers/STM32H7xx_HAL_Driver/Src/stm32h7xx_ll_usb.c ****   USBx_PCGCCTL = 0U;
 764              		.loc 1 330 3
 765 0088 FB68     		ldr	r3, [r7, #12]
 766 008a 03F56063 		add	r3, r3, #3584
 767 008e 1A46     		mov	r2, r3
 768              		.loc 1 330 16
 769 0090 0023     		movs	r3, #0
 770 0092 1360     		str	r3, [r2]
 331:Drivers/STM32H7xx_HAL_Driver/Src/stm32h7xx_ll_usb.c **** 
 332:Drivers/STM32H7xx_HAL_Driver/Src/stm32h7xx_ll_usb.c ****   if (cfg.phy_itface == USB_OTG_ULPI_PHY)
 771              		.loc 1 332 10
 772 0094 97F82930 		ldrb	r3, [r7, #41]	@ zero_extendqisi2
 773              		.loc 1 332 6
 774 0098 012B     		cmp	r3, #1
 775 009a 0DD1     		bne	.L44
 333:Drivers/STM32H7xx_HAL_Driver/Src/stm32h7xx_ll_usb.c ****   {
 334:Drivers/STM32H7xx_HAL_Driver/Src/stm32h7xx_ll_usb.c ****     if (cfg.speed == USBD_HS_SPEED)
 776              		.loc 1 334 12
 777 009c 97F82730 		ldrb	r3, [r7, #39]	@ zero_extendqisi2
 778              		.loc 1 334 8
 779 00a0 002B     		cmp	r3, #0
 780 00a2 04D1     		bne	.L45
 335:Drivers/STM32H7xx_HAL_Driver/Src/stm32h7xx_ll_usb.c ****     {
 336:Drivers/STM32H7xx_HAL_Driver/Src/stm32h7xx_ll_usb.c ****       /* Set Core speed to High speed mode */
 337:Drivers/STM32H7xx_HAL_Driver/Src/stm32h7xx_ll_usb.c ****       (void)USB_SetDevSpeed(USBx, USB_OTG_SPEED_HIGH);
 781              		.loc 1 337 13
 782 00a4 0021     		movs	r1, #0
 783 00a6 7868     		ldr	r0, [r7, #4]
 784 00a8 FFF7FEFF 		bl	USB_SetDevSpeed
 785 00ac 08E0     		b	.L46
 786              	.L45:
 338:Drivers/STM32H7xx_HAL_Driver/Src/stm32h7xx_ll_usb.c ****     }
 339:Drivers/STM32H7xx_HAL_Driver/Src/stm32h7xx_ll_usb.c ****     else
 340:Drivers/STM32H7xx_HAL_Driver/Src/stm32h7xx_ll_usb.c ****     {
 341:Drivers/STM32H7xx_HAL_Driver/Src/stm32h7xx_ll_usb.c ****       /* Set Core speed to Full speed mode */
 342:Drivers/STM32H7xx_HAL_Driver/Src/stm32h7xx_ll_usb.c ****       (void)USB_SetDevSpeed(USBx, USB_OTG_SPEED_HIGH_IN_FULL);
 787              		.loc 1 342 13
 788 00ae 0121     		movs	r1, #1
 789 00b0 7868     		ldr	r0, [r7, #4]
 790 00b2 FFF7FEFF 		bl	USB_SetDevSpeed
 791 00b6 03E0     		b	.L46
 792              	.L44:
 343:Drivers/STM32H7xx_HAL_Driver/Src/stm32h7xx_ll_usb.c ****     }
 344:Drivers/STM32H7xx_HAL_Driver/Src/stm32h7xx_ll_usb.c ****   }
 345:Drivers/STM32H7xx_HAL_Driver/Src/stm32h7xx_ll_usb.c ****   else
 346:Drivers/STM32H7xx_HAL_Driver/Src/stm32h7xx_ll_usb.c ****   {
 347:Drivers/STM32H7xx_HAL_Driver/Src/stm32h7xx_ll_usb.c ****     /* Set Core speed to Full speed mode */
 348:Drivers/STM32H7xx_HAL_Driver/Src/stm32h7xx_ll_usb.c ****     (void)USB_SetDevSpeed(USBx, USB_OTG_SPEED_FULL);
 793              		.loc 1 348 11
 794 00b8 0321     		movs	r1, #3
 795 00ba 7868     		ldr	r0, [r7, #4]
 796 00bc FFF7FEFF 		bl	USB_SetDevSpeed
 797              	.L46:
 349:Drivers/STM32H7xx_HAL_Driver/Src/stm32h7xx_ll_usb.c ****   }
 350:Drivers/STM32H7xx_HAL_Driver/Src/stm32h7xx_ll_usb.c **** 
 351:Drivers/STM32H7xx_HAL_Driver/Src/stm32h7xx_ll_usb.c ****   /* Flush the FIFOs */
 352:Drivers/STM32H7xx_HAL_Driver/Src/stm32h7xx_ll_usb.c ****   if (USB_FlushTxFifo(USBx, 0x10U) != HAL_OK) /* all Tx FIFOs */
ARM GAS  C:\Users\23671\AppData\Local\Temp\ccHDlRLJ.s 			page 21


 798              		.loc 1 352 7
 799 00c0 1021     		movs	r1, #16
 800 00c2 7868     		ldr	r0, [r7, #4]
 801 00c4 FFF7FEFF 		bl	USB_FlushTxFifo
 802 00c8 0346     		mov	r3, r0
 803              		.loc 1 352 6 discriminator 1
 804 00ca 002B     		cmp	r3, #0
 805 00cc 01D0     		beq	.L47
 353:Drivers/STM32H7xx_HAL_Driver/Src/stm32h7xx_ll_usb.c ****   {
 354:Drivers/STM32H7xx_HAL_Driver/Src/stm32h7xx_ll_usb.c ****     ret = HAL_ERROR;
 806              		.loc 1 354 9
 807 00ce 0123     		movs	r3, #1
 808 00d0 FB75     		strb	r3, [r7, #23]
 809              	.L47:
 355:Drivers/STM32H7xx_HAL_Driver/Src/stm32h7xx_ll_usb.c ****   }
 356:Drivers/STM32H7xx_HAL_Driver/Src/stm32h7xx_ll_usb.c **** 
 357:Drivers/STM32H7xx_HAL_Driver/Src/stm32h7xx_ll_usb.c ****   if (USB_FlushRxFifo(USBx) != HAL_OK)
 810              		.loc 1 357 7
 811 00d2 7868     		ldr	r0, [r7, #4]
 812 00d4 FFF7FEFF 		bl	USB_FlushRxFifo
 813 00d8 0346     		mov	r3, r0
 814              		.loc 1 357 6 discriminator 1
 815 00da 002B     		cmp	r3, #0
 816 00dc 01D0     		beq	.L48
 358:Drivers/STM32H7xx_HAL_Driver/Src/stm32h7xx_ll_usb.c ****   {
 359:Drivers/STM32H7xx_HAL_Driver/Src/stm32h7xx_ll_usb.c ****     ret = HAL_ERROR;
 817              		.loc 1 359 9
 818 00de 0123     		movs	r3, #1
 819 00e0 FB75     		strb	r3, [r7, #23]
 820              	.L48:
 360:Drivers/STM32H7xx_HAL_Driver/Src/stm32h7xx_ll_usb.c ****   }
 361:Drivers/STM32H7xx_HAL_Driver/Src/stm32h7xx_ll_usb.c **** 
 362:Drivers/STM32H7xx_HAL_Driver/Src/stm32h7xx_ll_usb.c ****   /* Clear all pending Device Interrupts */
 363:Drivers/STM32H7xx_HAL_Driver/Src/stm32h7xx_ll_usb.c ****   USBx_DEVICE->DIEPMSK = 0U;
 821              		.loc 1 363 3
 822 00e2 FB68     		ldr	r3, [r7, #12]
 823 00e4 03F50063 		add	r3, r3, #2048
 824 00e8 1A46     		mov	r2, r3
 825              		.loc 1 363 24
 826 00ea 0023     		movs	r3, #0
 827 00ec 1361     		str	r3, [r2, #16]
 364:Drivers/STM32H7xx_HAL_Driver/Src/stm32h7xx_ll_usb.c ****   USBx_DEVICE->DOEPMSK = 0U;
 828              		.loc 1 364 3
 829 00ee FB68     		ldr	r3, [r7, #12]
 830 00f0 03F50063 		add	r3, r3, #2048
 831 00f4 1A46     		mov	r2, r3
 832              		.loc 1 364 24
 833 00f6 0023     		movs	r3, #0
 834 00f8 5361     		str	r3, [r2, #20]
 365:Drivers/STM32H7xx_HAL_Driver/Src/stm32h7xx_ll_usb.c ****   USBx_DEVICE->DAINTMSK = 0U;
 835              		.loc 1 365 3
 836 00fa FB68     		ldr	r3, [r7, #12]
 837 00fc 03F50063 		add	r3, r3, #2048
 838 0100 1A46     		mov	r2, r3
 839              		.loc 1 365 25
 840 0102 0023     		movs	r3, #0
 841 0104 D361     		str	r3, [r2, #28]
ARM GAS  C:\Users\23671\AppData\Local\Temp\ccHDlRLJ.s 			page 22


 366:Drivers/STM32H7xx_HAL_Driver/Src/stm32h7xx_ll_usb.c **** 
 367:Drivers/STM32H7xx_HAL_Driver/Src/stm32h7xx_ll_usb.c ****   for (i = 0U; i < cfg.dev_endpoints; i++)
 842              		.loc 1 367 10
 843 0106 0023     		movs	r3, #0
 844 0108 3B61     		str	r3, [r7, #16]
 845              		.loc 1 367 3
 846 010a 43E0     		b	.L49
 847              	.L53:
 368:Drivers/STM32H7xx_HAL_Driver/Src/stm32h7xx_ll_usb.c ****   {
 369:Drivers/STM32H7xx_HAL_Driver/Src/stm32h7xx_ll_usb.c ****     if ((USBx_INEP(i)->DIEPCTL & USB_OTG_DIEPCTL_EPENA) == USB_OTG_DIEPCTL_EPENA)
 848              		.loc 1 369 10
 849 010c 3B69     		ldr	r3, [r7, #16]
 850 010e 5A01     		lsls	r2, r3, #5
 851 0110 FB68     		ldr	r3, [r7, #12]
 852 0112 1344     		add	r3, r3, r2
 853 0114 03F51063 		add	r3, r3, #2304
 854              		.loc 1 369 22
 855 0118 1B68     		ldr	r3, [r3]
 856              		.loc 1 369 32
 857 011a 03F00043 		and	r3, r3, #-2147483648
 858              		.loc 1 369 8
 859 011e B3F1004F 		cmp	r3, #-2147483648
 860 0122 18D1     		bne	.L50
 370:Drivers/STM32H7xx_HAL_Driver/Src/stm32h7xx_ll_usb.c ****     {
 371:Drivers/STM32H7xx_HAL_Driver/Src/stm32h7xx_ll_usb.c ****       if (i == 0U)
 861              		.loc 1 371 10
 862 0124 3B69     		ldr	r3, [r7, #16]
 863 0126 002B     		cmp	r3, #0
 864 0128 0AD1     		bne	.L51
 372:Drivers/STM32H7xx_HAL_Driver/Src/stm32h7xx_ll_usb.c ****       {
 373:Drivers/STM32H7xx_HAL_Driver/Src/stm32h7xx_ll_usb.c ****         USBx_INEP(i)->DIEPCTL = USB_OTG_DIEPCTL_SNAK;
 865              		.loc 1 373 9
 866 012a 3B69     		ldr	r3, [r7, #16]
 867 012c 5A01     		lsls	r2, r3, #5
 868 012e FB68     		ldr	r3, [r7, #12]
 869 0130 1344     		add	r3, r3, r2
 870 0132 03F51063 		add	r3, r3, #2304
 871 0136 1A46     		mov	r2, r3
 872              		.loc 1 373 31
 873 0138 4FF00063 		mov	r3, #134217728
 874 013c 1360     		str	r3, [r2]
 875 013e 13E0     		b	.L52
 876              	.L51:
 374:Drivers/STM32H7xx_HAL_Driver/Src/stm32h7xx_ll_usb.c ****       }
 375:Drivers/STM32H7xx_HAL_Driver/Src/stm32h7xx_ll_usb.c ****       else
 376:Drivers/STM32H7xx_HAL_Driver/Src/stm32h7xx_ll_usb.c ****       {
 377:Drivers/STM32H7xx_HAL_Driver/Src/stm32h7xx_ll_usb.c ****         USBx_INEP(i)->DIEPCTL = USB_OTG_DIEPCTL_EPDIS | USB_OTG_DIEPCTL_SNAK;
 877              		.loc 1 377 9
 878 0140 3B69     		ldr	r3, [r7, #16]
 879 0142 5A01     		lsls	r2, r3, #5
 880 0144 FB68     		ldr	r3, [r7, #12]
 881 0146 1344     		add	r3, r3, r2
 882 0148 03F51063 		add	r3, r3, #2304
 883 014c 1A46     		mov	r2, r3
 884              		.loc 1 377 31
 885 014e 4FF09043 		mov	r3, #1207959552
 886 0152 1360     		str	r3, [r2]
ARM GAS  C:\Users\23671\AppData\Local\Temp\ccHDlRLJ.s 			page 23


 887 0154 08E0     		b	.L52
 888              	.L50:
 378:Drivers/STM32H7xx_HAL_Driver/Src/stm32h7xx_ll_usb.c ****       }
 379:Drivers/STM32H7xx_HAL_Driver/Src/stm32h7xx_ll_usb.c ****     }
 380:Drivers/STM32H7xx_HAL_Driver/Src/stm32h7xx_ll_usb.c ****     else
 381:Drivers/STM32H7xx_HAL_Driver/Src/stm32h7xx_ll_usb.c ****     {
 382:Drivers/STM32H7xx_HAL_Driver/Src/stm32h7xx_ll_usb.c ****       USBx_INEP(i)->DIEPCTL = 0U;
 889              		.loc 1 382 7
 890 0156 3B69     		ldr	r3, [r7, #16]
 891 0158 5A01     		lsls	r2, r3, #5
 892 015a FB68     		ldr	r3, [r7, #12]
 893 015c 1344     		add	r3, r3, r2
 894 015e 03F51063 		add	r3, r3, #2304
 895 0162 1A46     		mov	r2, r3
 896              		.loc 1 382 29
 897 0164 0023     		movs	r3, #0
 898 0166 1360     		str	r3, [r2]
 899              	.L52:
 383:Drivers/STM32H7xx_HAL_Driver/Src/stm32h7xx_ll_usb.c ****     }
 384:Drivers/STM32H7xx_HAL_Driver/Src/stm32h7xx_ll_usb.c **** 
 385:Drivers/STM32H7xx_HAL_Driver/Src/stm32h7xx_ll_usb.c ****     USBx_INEP(i)->DIEPTSIZ = 0U;
 900              		.loc 1 385 5
 901 0168 3B69     		ldr	r3, [r7, #16]
 902 016a 5A01     		lsls	r2, r3, #5
 903 016c FB68     		ldr	r3, [r7, #12]
 904 016e 1344     		add	r3, r3, r2
 905 0170 03F51063 		add	r3, r3, #2304
 906 0174 1A46     		mov	r2, r3
 907              		.loc 1 385 28
 908 0176 0023     		movs	r3, #0
 909 0178 1361     		str	r3, [r2, #16]
 386:Drivers/STM32H7xx_HAL_Driver/Src/stm32h7xx_ll_usb.c ****     USBx_INEP(i)->DIEPINT  = 0xFB7FU;
 910              		.loc 1 386 5
 911 017a 3B69     		ldr	r3, [r7, #16]
 912 017c 5A01     		lsls	r2, r3, #5
 913 017e FB68     		ldr	r3, [r7, #12]
 914 0180 1344     		add	r3, r3, r2
 915 0182 03F51063 		add	r3, r3, #2304
 916 0186 1A46     		mov	r2, r3
 917              		.loc 1 386 28
 918 0188 4FF67F33 		movw	r3, #64383
 919 018c 9360     		str	r3, [r2, #8]
 367:Drivers/STM32H7xx_HAL_Driver/Src/stm32h7xx_ll_usb.c ****   {
 920              		.loc 1 367 40 discriminator 2
 921 018e 3B69     		ldr	r3, [r7, #16]
 922 0190 0133     		adds	r3, r3, #1
 923 0192 3B61     		str	r3, [r7, #16]
 924              	.L49:
 367:Drivers/STM32H7xx_HAL_Driver/Src/stm32h7xx_ll_usb.c ****   {
 925              		.loc 1 367 23 discriminator 1
 926 0194 97F82430 		ldrb	r3, [r7, #36]	@ zero_extendqisi2
 927 0198 1A46     		mov	r2, r3
 367:Drivers/STM32H7xx_HAL_Driver/Src/stm32h7xx_ll_usb.c ****   {
 928              		.loc 1 367 18 discriminator 1
 929 019a 3B69     		ldr	r3, [r7, #16]
 930 019c 9342     		cmp	r3, r2
 931 019e B5D3     		bcc	.L53
ARM GAS  C:\Users\23671\AppData\Local\Temp\ccHDlRLJ.s 			page 24


 387:Drivers/STM32H7xx_HAL_Driver/Src/stm32h7xx_ll_usb.c ****   }
 388:Drivers/STM32H7xx_HAL_Driver/Src/stm32h7xx_ll_usb.c **** 
 389:Drivers/STM32H7xx_HAL_Driver/Src/stm32h7xx_ll_usb.c ****   for (i = 0U; i < cfg.dev_endpoints; i++)
 932              		.loc 1 389 10
 933 01a0 0023     		movs	r3, #0
 934 01a2 3B61     		str	r3, [r7, #16]
 935              		.loc 1 389 3
 936 01a4 43E0     		b	.L54
 937              	.L58:
 390:Drivers/STM32H7xx_HAL_Driver/Src/stm32h7xx_ll_usb.c ****   {
 391:Drivers/STM32H7xx_HAL_Driver/Src/stm32h7xx_ll_usb.c ****     if ((USBx_OUTEP(i)->DOEPCTL & USB_OTG_DOEPCTL_EPENA) == USB_OTG_DOEPCTL_EPENA)
 938              		.loc 1 391 10
 939 01a6 3B69     		ldr	r3, [r7, #16]
 940 01a8 5A01     		lsls	r2, r3, #5
 941 01aa FB68     		ldr	r3, [r7, #12]
 942 01ac 1344     		add	r3, r3, r2
 943 01ae 03F53063 		add	r3, r3, #2816
 944              		.loc 1 391 23
 945 01b2 1B68     		ldr	r3, [r3]
 946              		.loc 1 391 33
 947 01b4 03F00043 		and	r3, r3, #-2147483648
 948              		.loc 1 391 8
 949 01b8 B3F1004F 		cmp	r3, #-2147483648
 950 01bc 18D1     		bne	.L55
 392:Drivers/STM32H7xx_HAL_Driver/Src/stm32h7xx_ll_usb.c ****     {
 393:Drivers/STM32H7xx_HAL_Driver/Src/stm32h7xx_ll_usb.c ****       if (i == 0U)
 951              		.loc 1 393 10
 952 01be 3B69     		ldr	r3, [r7, #16]
 953 01c0 002B     		cmp	r3, #0
 954 01c2 0AD1     		bne	.L56
 394:Drivers/STM32H7xx_HAL_Driver/Src/stm32h7xx_ll_usb.c ****       {
 395:Drivers/STM32H7xx_HAL_Driver/Src/stm32h7xx_ll_usb.c ****         USBx_OUTEP(i)->DOEPCTL = USB_OTG_DOEPCTL_SNAK;
 955              		.loc 1 395 9
 956 01c4 3B69     		ldr	r3, [r7, #16]
 957 01c6 5A01     		lsls	r2, r3, #5
 958 01c8 FB68     		ldr	r3, [r7, #12]
 959 01ca 1344     		add	r3, r3, r2
 960 01cc 03F53063 		add	r3, r3, #2816
 961 01d0 1A46     		mov	r2, r3
 962              		.loc 1 395 32
 963 01d2 4FF00063 		mov	r3, #134217728
 964 01d6 1360     		str	r3, [r2]
 965 01d8 13E0     		b	.L57
 966              	.L56:
 396:Drivers/STM32H7xx_HAL_Driver/Src/stm32h7xx_ll_usb.c ****       }
 397:Drivers/STM32H7xx_HAL_Driver/Src/stm32h7xx_ll_usb.c ****       else
 398:Drivers/STM32H7xx_HAL_Driver/Src/stm32h7xx_ll_usb.c ****       {
 399:Drivers/STM32H7xx_HAL_Driver/Src/stm32h7xx_ll_usb.c ****         USBx_OUTEP(i)->DOEPCTL = USB_OTG_DOEPCTL_EPDIS | USB_OTG_DOEPCTL_SNAK;
 967              		.loc 1 399 9
 968 01da 3B69     		ldr	r3, [r7, #16]
 969 01dc 5A01     		lsls	r2, r3, #5
 970 01de FB68     		ldr	r3, [r7, #12]
 971 01e0 1344     		add	r3, r3, r2
 972 01e2 03F53063 		add	r3, r3, #2816
 973 01e6 1A46     		mov	r2, r3
 974              		.loc 1 399 32
 975 01e8 4FF09043 		mov	r3, #1207959552
ARM GAS  C:\Users\23671\AppData\Local\Temp\ccHDlRLJ.s 			page 25


 976 01ec 1360     		str	r3, [r2]
 977 01ee 08E0     		b	.L57
 978              	.L55:
 400:Drivers/STM32H7xx_HAL_Driver/Src/stm32h7xx_ll_usb.c ****       }
 401:Drivers/STM32H7xx_HAL_Driver/Src/stm32h7xx_ll_usb.c ****     }
 402:Drivers/STM32H7xx_HAL_Driver/Src/stm32h7xx_ll_usb.c ****     else
 403:Drivers/STM32H7xx_HAL_Driver/Src/stm32h7xx_ll_usb.c ****     {
 404:Drivers/STM32H7xx_HAL_Driver/Src/stm32h7xx_ll_usb.c ****       USBx_OUTEP(i)->DOEPCTL = 0U;
 979              		.loc 1 404 7
 980 01f0 3B69     		ldr	r3, [r7, #16]
 981 01f2 5A01     		lsls	r2, r3, #5
 982 01f4 FB68     		ldr	r3, [r7, #12]
 983 01f6 1344     		add	r3, r3, r2
 984 01f8 03F53063 		add	r3, r3, #2816
 985 01fc 1A46     		mov	r2, r3
 986              		.loc 1 404 30
 987 01fe 0023     		movs	r3, #0
 988 0200 1360     		str	r3, [r2]
 989              	.L57:
 405:Drivers/STM32H7xx_HAL_Driver/Src/stm32h7xx_ll_usb.c ****     }
 406:Drivers/STM32H7xx_HAL_Driver/Src/stm32h7xx_ll_usb.c **** 
 407:Drivers/STM32H7xx_HAL_Driver/Src/stm32h7xx_ll_usb.c ****     USBx_OUTEP(i)->DOEPTSIZ = 0U;
 990              		.loc 1 407 5
 991 0202 3B69     		ldr	r3, [r7, #16]
 992 0204 5A01     		lsls	r2, r3, #5
 993 0206 FB68     		ldr	r3, [r7, #12]
 994 0208 1344     		add	r3, r3, r2
 995 020a 03F53063 		add	r3, r3, #2816
 996 020e 1A46     		mov	r2, r3
 997              		.loc 1 407 29
 998 0210 0023     		movs	r3, #0
 999 0212 1361     		str	r3, [r2, #16]
 408:Drivers/STM32H7xx_HAL_Driver/Src/stm32h7xx_ll_usb.c ****     USBx_OUTEP(i)->DOEPINT  = 0xFB7FU;
 1000              		.loc 1 408 5
 1001 0214 3B69     		ldr	r3, [r7, #16]
 1002 0216 5A01     		lsls	r2, r3, #5
 1003 0218 FB68     		ldr	r3, [r7, #12]
 1004 021a 1344     		add	r3, r3, r2
 1005 021c 03F53063 		add	r3, r3, #2816
 1006 0220 1A46     		mov	r2, r3
 1007              		.loc 1 408 29
 1008 0222 4FF67F33 		movw	r3, #64383
 1009 0226 9360     		str	r3, [r2, #8]
 389:Drivers/STM32H7xx_HAL_Driver/Src/stm32h7xx_ll_usb.c ****   {
 1010              		.loc 1 389 40 discriminator 2
 1011 0228 3B69     		ldr	r3, [r7, #16]
 1012 022a 0133     		adds	r3, r3, #1
 1013 022c 3B61     		str	r3, [r7, #16]
 1014              	.L54:
 389:Drivers/STM32H7xx_HAL_Driver/Src/stm32h7xx_ll_usb.c ****   {
 1015              		.loc 1 389 23 discriminator 1
 1016 022e 97F82430 		ldrb	r3, [r7, #36]	@ zero_extendqisi2
 1017 0232 1A46     		mov	r2, r3
 389:Drivers/STM32H7xx_HAL_Driver/Src/stm32h7xx_ll_usb.c ****   {
 1018              		.loc 1 389 18 discriminator 1
 1019 0234 3B69     		ldr	r3, [r7, #16]
 1020 0236 9342     		cmp	r3, r2
ARM GAS  C:\Users\23671\AppData\Local\Temp\ccHDlRLJ.s 			page 26


 1021 0238 B5D3     		bcc	.L58
 409:Drivers/STM32H7xx_HAL_Driver/Src/stm32h7xx_ll_usb.c ****   }
 410:Drivers/STM32H7xx_HAL_Driver/Src/stm32h7xx_ll_usb.c **** 
 411:Drivers/STM32H7xx_HAL_Driver/Src/stm32h7xx_ll_usb.c ****   USBx_DEVICE->DIEPMSK &= ~(USB_OTG_DIEPMSK_TXFURM);
 1022              		.loc 1 411 14
 1023 023a FB68     		ldr	r3, [r7, #12]
 1024 023c 03F50063 		add	r3, r3, #2048
 1025 0240 1B69     		ldr	r3, [r3, #16]
 1026 0242 FA68     		ldr	r2, [r7, #12]
 1027 0244 02F50062 		add	r2, r2, #2048
 1028              		.loc 1 411 24
 1029 0248 23F48073 		bic	r3, r3, #256
 1030 024c 1361     		str	r3, [r2, #16]
 412:Drivers/STM32H7xx_HAL_Driver/Src/stm32h7xx_ll_usb.c **** 
 413:Drivers/STM32H7xx_HAL_Driver/Src/stm32h7xx_ll_usb.c ****   /* Disable all interrupts. */
 414:Drivers/STM32H7xx_HAL_Driver/Src/stm32h7xx_ll_usb.c ****   USBx->GINTMSK = 0U;
 1031              		.loc 1 414 17
 1032 024e 7B68     		ldr	r3, [r7, #4]
 1033 0250 0022     		movs	r2, #0
 1034 0252 9A61     		str	r2, [r3, #24]
 415:Drivers/STM32H7xx_HAL_Driver/Src/stm32h7xx_ll_usb.c **** 
 416:Drivers/STM32H7xx_HAL_Driver/Src/stm32h7xx_ll_usb.c ****   /* Clear any pending interrupts */
 417:Drivers/STM32H7xx_HAL_Driver/Src/stm32h7xx_ll_usb.c ****   USBx->GINTSTS = 0xBFFFFFFFU;
 1035              		.loc 1 417 17
 1036 0254 7B68     		ldr	r3, [r7, #4]
 1037 0256 6FF08042 		mvn	r2, #1073741824
 1038 025a 5A61     		str	r2, [r3, #20]
 418:Drivers/STM32H7xx_HAL_Driver/Src/stm32h7xx_ll_usb.c **** 
 419:Drivers/STM32H7xx_HAL_Driver/Src/stm32h7xx_ll_usb.c ****   /* Enable the common interrupts */
 420:Drivers/STM32H7xx_HAL_Driver/Src/stm32h7xx_ll_usb.c ****   if (cfg.dma_enable == 0U)
 1039              		.loc 1 420 10
 1040 025c 97F82630 		ldrb	r3, [r7, #38]	@ zero_extendqisi2
 1041              		.loc 1 420 6
 1042 0260 002B     		cmp	r3, #0
 1043 0262 05D1     		bne	.L59
 421:Drivers/STM32H7xx_HAL_Driver/Src/stm32h7xx_ll_usb.c ****   {
 422:Drivers/STM32H7xx_HAL_Driver/Src/stm32h7xx_ll_usb.c ****     USBx->GINTMSK |= USB_OTG_GINTMSK_RXFLVLM;
 1044              		.loc 1 422 9
 1045 0264 7B68     		ldr	r3, [r7, #4]
 1046 0266 9B69     		ldr	r3, [r3, #24]
 1047              		.loc 1 422 19
 1048 0268 43F01002 		orr	r2, r3, #16
 1049 026c 7B68     		ldr	r3, [r7, #4]
 1050 026e 9A61     		str	r2, [r3, #24]
 1051              	.L59:
 423:Drivers/STM32H7xx_HAL_Driver/Src/stm32h7xx_ll_usb.c ****   }
 424:Drivers/STM32H7xx_HAL_Driver/Src/stm32h7xx_ll_usb.c **** 
 425:Drivers/STM32H7xx_HAL_Driver/Src/stm32h7xx_ll_usb.c ****   /* Enable interrupts matching to the Device mode ONLY */
 426:Drivers/STM32H7xx_HAL_Driver/Src/stm32h7xx_ll_usb.c ****   USBx->GINTMSK |= USB_OTG_GINTMSK_USBSUSPM | USB_OTG_GINTMSK_USBRST |
 1052              		.loc 1 426 7
 1053 0270 7B68     		ldr	r3, [r7, #4]
 1054 0272 9A69     		ldr	r2, [r3, #24]
 1055              		.loc 1 426 17
 1056 0274 0F4B     		ldr	r3, .L63
 1057 0276 1343     		orrs	r3, r3, r2
 1058 0278 7A68     		ldr	r2, [r7, #4]
 1059 027a 9361     		str	r3, [r2, #24]
ARM GAS  C:\Users\23671\AppData\Local\Temp\ccHDlRLJ.s 			page 27


 427:Drivers/STM32H7xx_HAL_Driver/Src/stm32h7xx_ll_usb.c ****                    USB_OTG_GINTMSK_ENUMDNEM | USB_OTG_GINTMSK_IEPINT |
 428:Drivers/STM32H7xx_HAL_Driver/Src/stm32h7xx_ll_usb.c ****                    USB_OTG_GINTMSK_OEPINT   | USB_OTG_GINTMSK_IISOIXFRM |
 429:Drivers/STM32H7xx_HAL_Driver/Src/stm32h7xx_ll_usb.c ****                    USB_OTG_GINTMSK_PXFRM_IISOOXFRM | USB_OTG_GINTMSK_WUIM;
 430:Drivers/STM32H7xx_HAL_Driver/Src/stm32h7xx_ll_usb.c **** 
 431:Drivers/STM32H7xx_HAL_Driver/Src/stm32h7xx_ll_usb.c ****   if (cfg.Sof_enable != 0U)
 1060              		.loc 1 431 10
 1061 027c 97F82A30 		ldrb	r3, [r7, #42]	@ zero_extendqisi2
 1062              		.loc 1 431 6
 1063 0280 002B     		cmp	r3, #0
 1064 0282 05D0     		beq	.L60
 432:Drivers/STM32H7xx_HAL_Driver/Src/stm32h7xx_ll_usb.c ****   {
 433:Drivers/STM32H7xx_HAL_Driver/Src/stm32h7xx_ll_usb.c ****     USBx->GINTMSK |= USB_OTG_GINTMSK_SOFM;
 1065              		.loc 1 433 9
 1066 0284 7B68     		ldr	r3, [r7, #4]
 1067 0286 9B69     		ldr	r3, [r3, #24]
 1068              		.loc 1 433 19
 1069 0288 43F00802 		orr	r2, r3, #8
 1070 028c 7B68     		ldr	r3, [r7, #4]
 1071 028e 9A61     		str	r2, [r3, #24]
 1072              	.L60:
 434:Drivers/STM32H7xx_HAL_Driver/Src/stm32h7xx_ll_usb.c ****   }
 435:Drivers/STM32H7xx_HAL_Driver/Src/stm32h7xx_ll_usb.c **** 
 436:Drivers/STM32H7xx_HAL_Driver/Src/stm32h7xx_ll_usb.c ****   if (cfg.vbus_sensing_enable == 1U)
 1073              		.loc 1 436 10
 1074 0290 97F82E30 		ldrb	r3, [r7, #46]	@ zero_extendqisi2
 1075              		.loc 1 436 6
 1076 0294 012B     		cmp	r3, #1
 1077 0296 05D1     		bne	.L61
 437:Drivers/STM32H7xx_HAL_Driver/Src/stm32h7xx_ll_usb.c ****   {
 438:Drivers/STM32H7xx_HAL_Driver/Src/stm32h7xx_ll_usb.c ****     USBx->GINTMSK |= (USB_OTG_GINTMSK_SRQIM | USB_OTG_GINTMSK_OTGINT);
 1078              		.loc 1 438 9
 1079 0298 7B68     		ldr	r3, [r7, #4]
 1080 029a 9A69     		ldr	r2, [r3, #24]
 1081              		.loc 1 438 19
 1082 029c 064B     		ldr	r3, .L63+4
 1083 029e 1343     		orrs	r3, r3, r2
 1084 02a0 7A68     		ldr	r2, [r7, #4]
 1085 02a2 9361     		str	r3, [r2, #24]
 1086              	.L61:
 439:Drivers/STM32H7xx_HAL_Driver/Src/stm32h7xx_ll_usb.c ****   }
 440:Drivers/STM32H7xx_HAL_Driver/Src/stm32h7xx_ll_usb.c **** 
 441:Drivers/STM32H7xx_HAL_Driver/Src/stm32h7xx_ll_usb.c ****   return ret;
 1087              		.loc 1 441 10
 1088 02a4 FB7D     		ldrb	r3, [r7, #23]	@ zero_extendqisi2
 442:Drivers/STM32H7xx_HAL_Driver/Src/stm32h7xx_ll_usb.c **** }
 1089              		.loc 1 442 1
 1090 02a6 1846     		mov	r0, r3
 1091 02a8 1837     		adds	r7, r7, #24
 1092              	.LCFI35:
 1093              		.cfi_def_cfa_offset 24
 1094 02aa BD46     		mov	sp, r7
 1095              	.LCFI36:
 1096              		.cfi_def_cfa_register 13
 1097              		@ sp needed
 1098 02ac BDE88040 		pop	{r7, lr}
 1099              	.LCFI37:
 1100              		.cfi_restore 14
ARM GAS  C:\Users\23671\AppData\Local\Temp\ccHDlRLJ.s 			page 28


 1101              		.cfi_restore 7
 1102              		.cfi_def_cfa_offset 16
 1103 02b0 04B0     		add	sp, sp, #16
 1104              	.LCFI38:
 1105              		.cfi_def_cfa_offset 0
 1106 02b2 7047     		bx	lr
 1107              	.L64:
 1108              		.align	2
 1109              	.L63:
 1110 02b4 00383C80 		.word	-2143537152
 1111 02b8 04000040 		.word	1073741828
 1112              		.cfi_endproc
 1113              	.LFE149:
 1115              		.section	.text.USB_FlushTxFifo,"ax",%progbits
 1116              		.align	1
 1117              		.global	USB_FlushTxFifo
 1118              		.syntax unified
 1119              		.thumb
 1120              		.thumb_func
 1122              	USB_FlushTxFifo:
 1123              	.LFB150:
 443:Drivers/STM32H7xx_HAL_Driver/Src/stm32h7xx_ll_usb.c **** 
 444:Drivers/STM32H7xx_HAL_Driver/Src/stm32h7xx_ll_usb.c **** /**
 445:Drivers/STM32H7xx_HAL_Driver/Src/stm32h7xx_ll_usb.c ****   * @brief  USB_FlushTxFifo Flush a Tx FIFO
 446:Drivers/STM32H7xx_HAL_Driver/Src/stm32h7xx_ll_usb.c ****   * @param  USBx  Selected device
 447:Drivers/STM32H7xx_HAL_Driver/Src/stm32h7xx_ll_usb.c ****   * @param  num  FIFO number
 448:Drivers/STM32H7xx_HAL_Driver/Src/stm32h7xx_ll_usb.c ****   *         This parameter can be a value from 1 to 15
 449:Drivers/STM32H7xx_HAL_Driver/Src/stm32h7xx_ll_usb.c ****             15 means Flush all Tx FIFOs
 450:Drivers/STM32H7xx_HAL_Driver/Src/stm32h7xx_ll_usb.c ****   * @retval HAL status
 451:Drivers/STM32H7xx_HAL_Driver/Src/stm32h7xx_ll_usb.c ****   */
 452:Drivers/STM32H7xx_HAL_Driver/Src/stm32h7xx_ll_usb.c **** HAL_StatusTypeDef USB_FlushTxFifo(USB_OTG_GlobalTypeDef *USBx, uint32_t num)
 453:Drivers/STM32H7xx_HAL_Driver/Src/stm32h7xx_ll_usb.c **** {
 1124              		.loc 1 453 1
 1125              		.cfi_startproc
 1126              		@ args = 0, pretend = 0, frame = 16
 1127              		@ frame_needed = 1, uses_anonymous_args = 0
 1128              		@ link register save eliminated.
 1129 0000 80B4     		push	{r7}
 1130              	.LCFI39:
 1131              		.cfi_def_cfa_offset 4
 1132              		.cfi_offset 7, -4
 1133 0002 85B0     		sub	sp, sp, #20
 1134              	.LCFI40:
 1135              		.cfi_def_cfa_offset 24
 1136 0004 00AF     		add	r7, sp, #0
 1137              	.LCFI41:
 1138              		.cfi_def_cfa_register 7
 1139 0006 7860     		str	r0, [r7, #4]
 1140 0008 3960     		str	r1, [r7]
 454:Drivers/STM32H7xx_HAL_Driver/Src/stm32h7xx_ll_usb.c ****   __IO uint32_t count = 0U;
 1141              		.loc 1 454 17
 1142 000a 0023     		movs	r3, #0
 1143 000c FB60     		str	r3, [r7, #12]
 1144              	.L68:
 455:Drivers/STM32H7xx_HAL_Driver/Src/stm32h7xx_ll_usb.c **** 
 456:Drivers/STM32H7xx_HAL_Driver/Src/stm32h7xx_ll_usb.c ****   /* Wait for AHB master IDLE state. */
 457:Drivers/STM32H7xx_HAL_Driver/Src/stm32h7xx_ll_usb.c ****   do
ARM GAS  C:\Users\23671\AppData\Local\Temp\ccHDlRLJ.s 			page 29


 458:Drivers/STM32H7xx_HAL_Driver/Src/stm32h7xx_ll_usb.c ****   {
 459:Drivers/STM32H7xx_HAL_Driver/Src/stm32h7xx_ll_usb.c ****     count++;
 1145              		.loc 1 459 10
 1146 000e FB68     		ldr	r3, [r7, #12]
 1147 0010 0133     		adds	r3, r3, #1
 1148 0012 FB60     		str	r3, [r7, #12]
 460:Drivers/STM32H7xx_HAL_Driver/Src/stm32h7xx_ll_usb.c **** 
 461:Drivers/STM32H7xx_HAL_Driver/Src/stm32h7xx_ll_usb.c ****     if (count > HAL_USB_TIMEOUT)
 1149              		.loc 1 461 15
 1150 0014 FB68     		ldr	r3, [r7, #12]
 1151              		.loc 1 461 8
 1152 0016 B3F1706F 		cmp	r3, #251658240
 1153 001a 01D9     		bls	.L66
 462:Drivers/STM32H7xx_HAL_Driver/Src/stm32h7xx_ll_usb.c ****     {
 463:Drivers/STM32H7xx_HAL_Driver/Src/stm32h7xx_ll_usb.c ****       return HAL_TIMEOUT;
 1154              		.loc 1 463 14
 1155 001c 0323     		movs	r3, #3
 1156 001e 1BE0     		b	.L67
 1157              	.L66:
 464:Drivers/STM32H7xx_HAL_Driver/Src/stm32h7xx_ll_usb.c ****     }
 465:Drivers/STM32H7xx_HAL_Driver/Src/stm32h7xx_ll_usb.c ****   } while ((USBx->GRSTCTL & USB_OTG_GRSTCTL_AHBIDL) == 0U);
 1158              		.loc 1 465 17
 1159 0020 7B68     		ldr	r3, [r7, #4]
 1160 0022 1B69     		ldr	r3, [r3, #16]
 1161              		.loc 1 465 53
 1162 0024 002B     		cmp	r3, #0
 1163 0026 F2DA     		bge	.L68
 466:Drivers/STM32H7xx_HAL_Driver/Src/stm32h7xx_ll_usb.c **** 
 467:Drivers/STM32H7xx_HAL_Driver/Src/stm32h7xx_ll_usb.c ****   /* Flush TX Fifo */
 468:Drivers/STM32H7xx_HAL_Driver/Src/stm32h7xx_ll_usb.c ****   count = 0U;
 1164              		.loc 1 468 9
 1165 0028 0023     		movs	r3, #0
 1166 002a FB60     		str	r3, [r7, #12]
 469:Drivers/STM32H7xx_HAL_Driver/Src/stm32h7xx_ll_usb.c ****   USBx->GRSTCTL = (USB_OTG_GRSTCTL_TXFFLSH | (num << 6));
 1167              		.loc 1 469 51
 1168 002c 3B68     		ldr	r3, [r7]
 1169 002e 9B01     		lsls	r3, r3, #6
 1170              		.loc 1 469 44
 1171 0030 43F02002 		orr	r2, r3, #32
 1172              		.loc 1 469 17
 1173 0034 7B68     		ldr	r3, [r7, #4]
 1174 0036 1A61     		str	r2, [r3, #16]
 1175              	.L70:
 470:Drivers/STM32H7xx_HAL_Driver/Src/stm32h7xx_ll_usb.c **** 
 471:Drivers/STM32H7xx_HAL_Driver/Src/stm32h7xx_ll_usb.c ****   do
 472:Drivers/STM32H7xx_HAL_Driver/Src/stm32h7xx_ll_usb.c ****   {
 473:Drivers/STM32H7xx_HAL_Driver/Src/stm32h7xx_ll_usb.c ****     count++;
 1176              		.loc 1 473 10
 1177 0038 FB68     		ldr	r3, [r7, #12]
 1178 003a 0133     		adds	r3, r3, #1
 1179 003c FB60     		str	r3, [r7, #12]
 474:Drivers/STM32H7xx_HAL_Driver/Src/stm32h7xx_ll_usb.c **** 
 475:Drivers/STM32H7xx_HAL_Driver/Src/stm32h7xx_ll_usb.c ****     if (count > HAL_USB_TIMEOUT)
 1180              		.loc 1 475 15
 1181 003e FB68     		ldr	r3, [r7, #12]
 1182              		.loc 1 475 8
 1183 0040 B3F1706F 		cmp	r3, #251658240
ARM GAS  C:\Users\23671\AppData\Local\Temp\ccHDlRLJ.s 			page 30


 1184 0044 01D9     		bls	.L69
 476:Drivers/STM32H7xx_HAL_Driver/Src/stm32h7xx_ll_usb.c ****     {
 477:Drivers/STM32H7xx_HAL_Driver/Src/stm32h7xx_ll_usb.c ****       return HAL_TIMEOUT;
 1185              		.loc 1 477 14
 1186 0046 0323     		movs	r3, #3
 1187 0048 06E0     		b	.L67
 1188              	.L69:
 478:Drivers/STM32H7xx_HAL_Driver/Src/stm32h7xx_ll_usb.c ****     }
 479:Drivers/STM32H7xx_HAL_Driver/Src/stm32h7xx_ll_usb.c ****   } while ((USBx->GRSTCTL & USB_OTG_GRSTCTL_TXFFLSH) == USB_OTG_GRSTCTL_TXFFLSH);
 1189              		.loc 1 479 17
 1190 004a 7B68     		ldr	r3, [r7, #4]
 1191 004c 1B69     		ldr	r3, [r3, #16]
 1192              		.loc 1 479 27
 1193 004e 03F02003 		and	r3, r3, #32
 1194              		.loc 1 479 54
 1195 0052 202B     		cmp	r3, #32
 1196 0054 F0D0     		beq	.L70
 480:Drivers/STM32H7xx_HAL_Driver/Src/stm32h7xx_ll_usb.c **** 
 481:Drivers/STM32H7xx_HAL_Driver/Src/stm32h7xx_ll_usb.c ****   return HAL_OK;
 1197              		.loc 1 481 10
 1198 0056 0023     		movs	r3, #0
 1199              	.L67:
 482:Drivers/STM32H7xx_HAL_Driver/Src/stm32h7xx_ll_usb.c **** }
 1200              		.loc 1 482 1
 1201 0058 1846     		mov	r0, r3
 1202 005a 1437     		adds	r7, r7, #20
 1203              	.LCFI42:
 1204              		.cfi_def_cfa_offset 4
 1205 005c BD46     		mov	sp, r7
 1206              	.LCFI43:
 1207              		.cfi_def_cfa_register 13
 1208              		@ sp needed
 1209 005e 5DF8047B 		ldr	r7, [sp], #4
 1210              	.LCFI44:
 1211              		.cfi_restore 7
 1212              		.cfi_def_cfa_offset 0
 1213 0062 7047     		bx	lr
 1214              		.cfi_endproc
 1215              	.LFE150:
 1217              		.section	.text.USB_FlushRxFifo,"ax",%progbits
 1218              		.align	1
 1219              		.global	USB_FlushRxFifo
 1220              		.syntax unified
 1221              		.thumb
 1222              		.thumb_func
 1224              	USB_FlushRxFifo:
 1225              	.LFB151:
 483:Drivers/STM32H7xx_HAL_Driver/Src/stm32h7xx_ll_usb.c **** 
 484:Drivers/STM32H7xx_HAL_Driver/Src/stm32h7xx_ll_usb.c **** /**
 485:Drivers/STM32H7xx_HAL_Driver/Src/stm32h7xx_ll_usb.c ****   * @brief  USB_FlushRxFifo  Flush Rx FIFO
 486:Drivers/STM32H7xx_HAL_Driver/Src/stm32h7xx_ll_usb.c ****   * @param  USBx  Selected device
 487:Drivers/STM32H7xx_HAL_Driver/Src/stm32h7xx_ll_usb.c ****   * @retval HAL status
 488:Drivers/STM32H7xx_HAL_Driver/Src/stm32h7xx_ll_usb.c ****   */
 489:Drivers/STM32H7xx_HAL_Driver/Src/stm32h7xx_ll_usb.c **** HAL_StatusTypeDef USB_FlushRxFifo(USB_OTG_GlobalTypeDef *USBx)
 490:Drivers/STM32H7xx_HAL_Driver/Src/stm32h7xx_ll_usb.c **** {
 1226              		.loc 1 490 1
 1227              		.cfi_startproc
ARM GAS  C:\Users\23671\AppData\Local\Temp\ccHDlRLJ.s 			page 31


 1228              		@ args = 0, pretend = 0, frame = 16
 1229              		@ frame_needed = 1, uses_anonymous_args = 0
 1230              		@ link register save eliminated.
 1231 0000 80B4     		push	{r7}
 1232              	.LCFI45:
 1233              		.cfi_def_cfa_offset 4
 1234              		.cfi_offset 7, -4
 1235 0002 85B0     		sub	sp, sp, #20
 1236              	.LCFI46:
 1237              		.cfi_def_cfa_offset 24
 1238 0004 00AF     		add	r7, sp, #0
 1239              	.LCFI47:
 1240              		.cfi_def_cfa_register 7
 1241 0006 7860     		str	r0, [r7, #4]
 491:Drivers/STM32H7xx_HAL_Driver/Src/stm32h7xx_ll_usb.c ****   __IO uint32_t count = 0U;
 1242              		.loc 1 491 17
 1243 0008 0023     		movs	r3, #0
 1244 000a FB60     		str	r3, [r7, #12]
 1245              	.L74:
 492:Drivers/STM32H7xx_HAL_Driver/Src/stm32h7xx_ll_usb.c **** 
 493:Drivers/STM32H7xx_HAL_Driver/Src/stm32h7xx_ll_usb.c ****   /* Wait for AHB master IDLE state. */
 494:Drivers/STM32H7xx_HAL_Driver/Src/stm32h7xx_ll_usb.c ****   do
 495:Drivers/STM32H7xx_HAL_Driver/Src/stm32h7xx_ll_usb.c ****   {
 496:Drivers/STM32H7xx_HAL_Driver/Src/stm32h7xx_ll_usb.c ****     count++;
 1246              		.loc 1 496 10
 1247 000c FB68     		ldr	r3, [r7, #12]
 1248 000e 0133     		adds	r3, r3, #1
 1249 0010 FB60     		str	r3, [r7, #12]
 497:Drivers/STM32H7xx_HAL_Driver/Src/stm32h7xx_ll_usb.c **** 
 498:Drivers/STM32H7xx_HAL_Driver/Src/stm32h7xx_ll_usb.c ****     if (count > HAL_USB_TIMEOUT)
 1250              		.loc 1 498 15
 1251 0012 FB68     		ldr	r3, [r7, #12]
 1252              		.loc 1 498 8
 1253 0014 B3F1706F 		cmp	r3, #251658240
 1254 0018 01D9     		bls	.L72
 499:Drivers/STM32H7xx_HAL_Driver/Src/stm32h7xx_ll_usb.c ****     {
 500:Drivers/STM32H7xx_HAL_Driver/Src/stm32h7xx_ll_usb.c ****       return HAL_TIMEOUT;
 1255              		.loc 1 500 14
 1256 001a 0323     		movs	r3, #3
 1257 001c 18E0     		b	.L73
 1258              	.L72:
 501:Drivers/STM32H7xx_HAL_Driver/Src/stm32h7xx_ll_usb.c ****     }
 502:Drivers/STM32H7xx_HAL_Driver/Src/stm32h7xx_ll_usb.c ****   } while ((USBx->GRSTCTL & USB_OTG_GRSTCTL_AHBIDL) == 0U);
 1259              		.loc 1 502 17
 1260 001e 7B68     		ldr	r3, [r7, #4]
 1261 0020 1B69     		ldr	r3, [r3, #16]
 1262              		.loc 1 502 53
 1263 0022 002B     		cmp	r3, #0
 1264 0024 F2DA     		bge	.L74
 503:Drivers/STM32H7xx_HAL_Driver/Src/stm32h7xx_ll_usb.c **** 
 504:Drivers/STM32H7xx_HAL_Driver/Src/stm32h7xx_ll_usb.c ****   /* Flush RX Fifo */
 505:Drivers/STM32H7xx_HAL_Driver/Src/stm32h7xx_ll_usb.c ****   count = 0U;
 1265              		.loc 1 505 9
 1266 0026 0023     		movs	r3, #0
 1267 0028 FB60     		str	r3, [r7, #12]
 506:Drivers/STM32H7xx_HAL_Driver/Src/stm32h7xx_ll_usb.c ****   USBx->GRSTCTL = USB_OTG_GRSTCTL_RXFFLSH;
 1268              		.loc 1 506 17
ARM GAS  C:\Users\23671\AppData\Local\Temp\ccHDlRLJ.s 			page 32


 1269 002a 7B68     		ldr	r3, [r7, #4]
 1270 002c 1022     		movs	r2, #16
 1271 002e 1A61     		str	r2, [r3, #16]
 1272              	.L76:
 507:Drivers/STM32H7xx_HAL_Driver/Src/stm32h7xx_ll_usb.c **** 
 508:Drivers/STM32H7xx_HAL_Driver/Src/stm32h7xx_ll_usb.c ****   do
 509:Drivers/STM32H7xx_HAL_Driver/Src/stm32h7xx_ll_usb.c ****   {
 510:Drivers/STM32H7xx_HAL_Driver/Src/stm32h7xx_ll_usb.c ****     count++;
 1273              		.loc 1 510 10
 1274 0030 FB68     		ldr	r3, [r7, #12]
 1275 0032 0133     		adds	r3, r3, #1
 1276 0034 FB60     		str	r3, [r7, #12]
 511:Drivers/STM32H7xx_HAL_Driver/Src/stm32h7xx_ll_usb.c **** 
 512:Drivers/STM32H7xx_HAL_Driver/Src/stm32h7xx_ll_usb.c ****     if (count > HAL_USB_TIMEOUT)
 1277              		.loc 1 512 15
 1278 0036 FB68     		ldr	r3, [r7, #12]
 1279              		.loc 1 512 8
 1280 0038 B3F1706F 		cmp	r3, #251658240
 1281 003c 01D9     		bls	.L75
 513:Drivers/STM32H7xx_HAL_Driver/Src/stm32h7xx_ll_usb.c ****     {
 514:Drivers/STM32H7xx_HAL_Driver/Src/stm32h7xx_ll_usb.c ****       return HAL_TIMEOUT;
 1282              		.loc 1 514 14
 1283 003e 0323     		movs	r3, #3
 1284 0040 06E0     		b	.L73
 1285              	.L75:
 515:Drivers/STM32H7xx_HAL_Driver/Src/stm32h7xx_ll_usb.c ****     }
 516:Drivers/STM32H7xx_HAL_Driver/Src/stm32h7xx_ll_usb.c ****   } while ((USBx->GRSTCTL & USB_OTG_GRSTCTL_RXFFLSH) == USB_OTG_GRSTCTL_RXFFLSH);
 1286              		.loc 1 516 17
 1287 0042 7B68     		ldr	r3, [r7, #4]
 1288 0044 1B69     		ldr	r3, [r3, #16]
 1289              		.loc 1 516 27
 1290 0046 03F01003 		and	r3, r3, #16
 1291              		.loc 1 516 54
 1292 004a 102B     		cmp	r3, #16
 1293 004c F0D0     		beq	.L76
 517:Drivers/STM32H7xx_HAL_Driver/Src/stm32h7xx_ll_usb.c **** 
 518:Drivers/STM32H7xx_HAL_Driver/Src/stm32h7xx_ll_usb.c ****   return HAL_OK;
 1294              		.loc 1 518 10
 1295 004e 0023     		movs	r3, #0
 1296              	.L73:
 519:Drivers/STM32H7xx_HAL_Driver/Src/stm32h7xx_ll_usb.c **** }
 1297              		.loc 1 519 1
 1298 0050 1846     		mov	r0, r3
 1299 0052 1437     		adds	r7, r7, #20
 1300              	.LCFI48:
 1301              		.cfi_def_cfa_offset 4
 1302 0054 BD46     		mov	sp, r7
 1303              	.LCFI49:
 1304              		.cfi_def_cfa_register 13
 1305              		@ sp needed
 1306 0056 5DF8047B 		ldr	r7, [sp], #4
 1307              	.LCFI50:
 1308              		.cfi_restore 7
 1309              		.cfi_def_cfa_offset 0
 1310 005a 7047     		bx	lr
 1311              		.cfi_endproc
 1312              	.LFE151:
ARM GAS  C:\Users\23671\AppData\Local\Temp\ccHDlRLJ.s 			page 33


 1314              		.section	.text.USB_SetDevSpeed,"ax",%progbits
 1315              		.align	1
 1316              		.global	USB_SetDevSpeed
 1317              		.syntax unified
 1318              		.thumb
 1319              		.thumb_func
 1321              	USB_SetDevSpeed:
 1322              	.LFB152:
 520:Drivers/STM32H7xx_HAL_Driver/Src/stm32h7xx_ll_usb.c **** 
 521:Drivers/STM32H7xx_HAL_Driver/Src/stm32h7xx_ll_usb.c **** /**
 522:Drivers/STM32H7xx_HAL_Driver/Src/stm32h7xx_ll_usb.c ****   * @brief  USB_SetDevSpeed  Initializes the DevSpd field of DCFG register
 523:Drivers/STM32H7xx_HAL_Driver/Src/stm32h7xx_ll_usb.c ****   *         depending the PHY type and the enumeration speed of the device.
 524:Drivers/STM32H7xx_HAL_Driver/Src/stm32h7xx_ll_usb.c ****   * @param  USBx  Selected device
 525:Drivers/STM32H7xx_HAL_Driver/Src/stm32h7xx_ll_usb.c ****   * @param  speed  device speed
 526:Drivers/STM32H7xx_HAL_Driver/Src/stm32h7xx_ll_usb.c ****   *          This parameter can be one of these values:
 527:Drivers/STM32H7xx_HAL_Driver/Src/stm32h7xx_ll_usb.c ****   *            @arg USB_OTG_SPEED_HIGH: High speed mode
 528:Drivers/STM32H7xx_HAL_Driver/Src/stm32h7xx_ll_usb.c ****   *            @arg USB_OTG_SPEED_HIGH_IN_FULL: High speed core in Full Speed mode
 529:Drivers/STM32H7xx_HAL_Driver/Src/stm32h7xx_ll_usb.c ****   *            @arg USB_OTG_SPEED_FULL: Full speed mode
 530:Drivers/STM32H7xx_HAL_Driver/Src/stm32h7xx_ll_usb.c ****   * @retval  Hal status
 531:Drivers/STM32H7xx_HAL_Driver/Src/stm32h7xx_ll_usb.c ****   */
 532:Drivers/STM32H7xx_HAL_Driver/Src/stm32h7xx_ll_usb.c **** HAL_StatusTypeDef USB_SetDevSpeed(const USB_OTG_GlobalTypeDef *USBx, uint8_t speed)
 533:Drivers/STM32H7xx_HAL_Driver/Src/stm32h7xx_ll_usb.c **** {
 1323              		.loc 1 533 1
 1324              		.cfi_startproc
 1325              		@ args = 0, pretend = 0, frame = 16
 1326              		@ frame_needed = 1, uses_anonymous_args = 0
 1327              		@ link register save eliminated.
 1328 0000 80B4     		push	{r7}
 1329              	.LCFI51:
 1330              		.cfi_def_cfa_offset 4
 1331              		.cfi_offset 7, -4
 1332 0002 85B0     		sub	sp, sp, #20
 1333              	.LCFI52:
 1334              		.cfi_def_cfa_offset 24
 1335 0004 00AF     		add	r7, sp, #0
 1336              	.LCFI53:
 1337              		.cfi_def_cfa_register 7
 1338 0006 7860     		str	r0, [r7, #4]
 1339 0008 0B46     		mov	r3, r1
 1340 000a FB70     		strb	r3, [r7, #3]
 534:Drivers/STM32H7xx_HAL_Driver/Src/stm32h7xx_ll_usb.c ****   uint32_t USBx_BASE = (uint32_t)USBx;
 1341              		.loc 1 534 12
 1342 000c 7B68     		ldr	r3, [r7, #4]
 1343 000e FB60     		str	r3, [r7, #12]
 535:Drivers/STM32H7xx_HAL_Driver/Src/stm32h7xx_ll_usb.c **** 
 536:Drivers/STM32H7xx_HAL_Driver/Src/stm32h7xx_ll_usb.c ****   USBx_DEVICE->DCFG |= speed;
 1344              		.loc 1 536 14
 1345 0010 FB68     		ldr	r3, [r7, #12]
 1346 0012 03F50063 		add	r3, r3, #2048
 1347 0016 1A68     		ldr	r2, [r3]
 1348              		.loc 1 536 21
 1349 0018 FB78     		ldrb	r3, [r7, #3]	@ zero_extendqisi2
 1350              		.loc 1 536 14
 1351 001a F968     		ldr	r1, [r7, #12]
 1352 001c 01F50061 		add	r1, r1, #2048
 1353              		.loc 1 536 21
 1354 0020 1343     		orrs	r3, r3, r2
ARM GAS  C:\Users\23671\AppData\Local\Temp\ccHDlRLJ.s 			page 34


 1355 0022 0B60     		str	r3, [r1]
 537:Drivers/STM32H7xx_HAL_Driver/Src/stm32h7xx_ll_usb.c ****   return HAL_OK;
 1356              		.loc 1 537 10
 1357 0024 0023     		movs	r3, #0
 538:Drivers/STM32H7xx_HAL_Driver/Src/stm32h7xx_ll_usb.c **** }
 1358              		.loc 1 538 1
 1359 0026 1846     		mov	r0, r3
 1360 0028 1437     		adds	r7, r7, #20
 1361              	.LCFI54:
 1362              		.cfi_def_cfa_offset 4
 1363 002a BD46     		mov	sp, r7
 1364              	.LCFI55:
 1365              		.cfi_def_cfa_register 13
 1366              		@ sp needed
 1367 002c 5DF8047B 		ldr	r7, [sp], #4
 1368              	.LCFI56:
 1369              		.cfi_restore 7
 1370              		.cfi_def_cfa_offset 0
 1371 0030 7047     		bx	lr
 1372              		.cfi_endproc
 1373              	.LFE152:
 1375              		.section	.text.USB_GetDevSpeed,"ax",%progbits
 1376              		.align	1
 1377              		.global	USB_GetDevSpeed
 1378              		.syntax unified
 1379              		.thumb
 1380              		.thumb_func
 1382              	USB_GetDevSpeed:
 1383              	.LFB153:
 539:Drivers/STM32H7xx_HAL_Driver/Src/stm32h7xx_ll_usb.c **** 
 540:Drivers/STM32H7xx_HAL_Driver/Src/stm32h7xx_ll_usb.c **** /**
 541:Drivers/STM32H7xx_HAL_Driver/Src/stm32h7xx_ll_usb.c ****   * @brief  USB_GetDevSpeed  Return the Dev Speed
 542:Drivers/STM32H7xx_HAL_Driver/Src/stm32h7xx_ll_usb.c ****   * @param  USBx  Selected device
 543:Drivers/STM32H7xx_HAL_Driver/Src/stm32h7xx_ll_usb.c ****   * @retval speed  device speed
 544:Drivers/STM32H7xx_HAL_Driver/Src/stm32h7xx_ll_usb.c ****   *          This parameter can be one of these values:
 545:Drivers/STM32H7xx_HAL_Driver/Src/stm32h7xx_ll_usb.c ****   *            @arg USBD_HS_SPEED: High speed mode
 546:Drivers/STM32H7xx_HAL_Driver/Src/stm32h7xx_ll_usb.c ****   *            @arg USBD_FS_SPEED: Full speed mode
 547:Drivers/STM32H7xx_HAL_Driver/Src/stm32h7xx_ll_usb.c ****   */
 548:Drivers/STM32H7xx_HAL_Driver/Src/stm32h7xx_ll_usb.c **** uint8_t USB_GetDevSpeed(const USB_OTG_GlobalTypeDef *USBx)
 549:Drivers/STM32H7xx_HAL_Driver/Src/stm32h7xx_ll_usb.c **** {
 1384              		.loc 1 549 1
 1385              		.cfi_startproc
 1386              		@ args = 0, pretend = 0, frame = 24
 1387              		@ frame_needed = 1, uses_anonymous_args = 0
 1388              		@ link register save eliminated.
 1389 0000 80B4     		push	{r7}
 1390              	.LCFI57:
 1391              		.cfi_def_cfa_offset 4
 1392              		.cfi_offset 7, -4
 1393 0002 87B0     		sub	sp, sp, #28
 1394              	.LCFI58:
 1395              		.cfi_def_cfa_offset 32
 1396 0004 00AF     		add	r7, sp, #0
 1397              	.LCFI59:
 1398              		.cfi_def_cfa_register 7
 1399 0006 7860     		str	r0, [r7, #4]
 550:Drivers/STM32H7xx_HAL_Driver/Src/stm32h7xx_ll_usb.c ****   uint32_t USBx_BASE = (uint32_t)USBx;
ARM GAS  C:\Users\23671\AppData\Local\Temp\ccHDlRLJ.s 			page 35


 1400              		.loc 1 550 12
 1401 0008 7B68     		ldr	r3, [r7, #4]
 1402 000a 3B61     		str	r3, [r7, #16]
 551:Drivers/STM32H7xx_HAL_Driver/Src/stm32h7xx_ll_usb.c ****   uint8_t speed;
 552:Drivers/STM32H7xx_HAL_Driver/Src/stm32h7xx_ll_usb.c ****   uint32_t DevEnumSpeed = USBx_DEVICE->DSTS & USB_OTG_DSTS_ENUMSPD;
 1403              		.loc 1 552 27
 1404 000c 3B69     		ldr	r3, [r7, #16]
 1405 000e 03F50063 		add	r3, r3, #2048
 1406              		.loc 1 552 38
 1407 0012 9B68     		ldr	r3, [r3, #8]
 1408              		.loc 1 552 12
 1409 0014 03F00603 		and	r3, r3, #6
 1410 0018 FB60     		str	r3, [r7, #12]
 553:Drivers/STM32H7xx_HAL_Driver/Src/stm32h7xx_ll_usb.c **** 
 554:Drivers/STM32H7xx_HAL_Driver/Src/stm32h7xx_ll_usb.c ****   if (DevEnumSpeed == DSTS_ENUMSPD_HS_PHY_30MHZ_OR_60MHZ)
 1411              		.loc 1 554 6
 1412 001a FB68     		ldr	r3, [r7, #12]
 1413 001c 002B     		cmp	r3, #0
 1414 001e 02D1     		bne	.L80
 555:Drivers/STM32H7xx_HAL_Driver/Src/stm32h7xx_ll_usb.c ****   {
 556:Drivers/STM32H7xx_HAL_Driver/Src/stm32h7xx_ll_usb.c ****     speed = USBD_HS_SPEED;
 1415              		.loc 1 556 11
 1416 0020 0023     		movs	r3, #0
 1417 0022 FB75     		strb	r3, [r7, #23]
 1418 0024 0AE0     		b	.L81
 1419              	.L80:
 557:Drivers/STM32H7xx_HAL_Driver/Src/stm32h7xx_ll_usb.c ****   }
 558:Drivers/STM32H7xx_HAL_Driver/Src/stm32h7xx_ll_usb.c ****   else if ((DevEnumSpeed == DSTS_ENUMSPD_FS_PHY_30MHZ_OR_60MHZ) ||
 1420              		.loc 1 558 11
 1421 0026 FB68     		ldr	r3, [r7, #12]
 1422 0028 022B     		cmp	r3, #2
 1423 002a 02D0     		beq	.L82
 1424              		.loc 1 558 65 discriminator 1
 1425 002c FB68     		ldr	r3, [r7, #12]
 1426 002e 062B     		cmp	r3, #6
 1427 0030 02D1     		bne	.L83
 1428              	.L82:
 559:Drivers/STM32H7xx_HAL_Driver/Src/stm32h7xx_ll_usb.c ****            (DevEnumSpeed == DSTS_ENUMSPD_FS_PHY_48MHZ))
 560:Drivers/STM32H7xx_HAL_Driver/Src/stm32h7xx_ll_usb.c ****   {
 561:Drivers/STM32H7xx_HAL_Driver/Src/stm32h7xx_ll_usb.c ****     speed = USBD_FS_SPEED;
 1429              		.loc 1 561 11
 1430 0032 0223     		movs	r3, #2
 1431 0034 FB75     		strb	r3, [r7, #23]
 1432 0036 01E0     		b	.L81
 1433              	.L83:
 562:Drivers/STM32H7xx_HAL_Driver/Src/stm32h7xx_ll_usb.c ****   }
 563:Drivers/STM32H7xx_HAL_Driver/Src/stm32h7xx_ll_usb.c ****   else
 564:Drivers/STM32H7xx_HAL_Driver/Src/stm32h7xx_ll_usb.c ****   {
 565:Drivers/STM32H7xx_HAL_Driver/Src/stm32h7xx_ll_usb.c ****     speed = 0xFU;
 1434              		.loc 1 565 11
 1435 0038 0F23     		movs	r3, #15
 1436 003a FB75     		strb	r3, [r7, #23]
 1437              	.L81:
 566:Drivers/STM32H7xx_HAL_Driver/Src/stm32h7xx_ll_usb.c ****   }
 567:Drivers/STM32H7xx_HAL_Driver/Src/stm32h7xx_ll_usb.c **** 
 568:Drivers/STM32H7xx_HAL_Driver/Src/stm32h7xx_ll_usb.c ****   return speed;
 1438              		.loc 1 568 10
ARM GAS  C:\Users\23671\AppData\Local\Temp\ccHDlRLJ.s 			page 36


 1439 003c FB7D     		ldrb	r3, [r7, #23]	@ zero_extendqisi2
 569:Drivers/STM32H7xx_HAL_Driver/Src/stm32h7xx_ll_usb.c **** }
 1440              		.loc 1 569 1
 1441 003e 1846     		mov	r0, r3
 1442 0040 1C37     		adds	r7, r7, #28
 1443              	.LCFI60:
 1444              		.cfi_def_cfa_offset 4
 1445 0042 BD46     		mov	sp, r7
 1446              	.LCFI61:
 1447              		.cfi_def_cfa_register 13
 1448              		@ sp needed
 1449 0044 5DF8047B 		ldr	r7, [sp], #4
 1450              	.LCFI62:
 1451              		.cfi_restore 7
 1452              		.cfi_def_cfa_offset 0
 1453 0048 7047     		bx	lr
 1454              		.cfi_endproc
 1455              	.LFE153:
 1457              		.section	.text.USB_ActivateEndpoint,"ax",%progbits
 1458              		.align	1
 1459              		.global	USB_ActivateEndpoint
 1460              		.syntax unified
 1461              		.thumb
 1462              		.thumb_func
 1464              	USB_ActivateEndpoint:
 1465              	.LFB154:
 570:Drivers/STM32H7xx_HAL_Driver/Src/stm32h7xx_ll_usb.c **** 
 571:Drivers/STM32H7xx_HAL_Driver/Src/stm32h7xx_ll_usb.c **** /**
 572:Drivers/STM32H7xx_HAL_Driver/Src/stm32h7xx_ll_usb.c ****   * @brief  Activate and configure an endpoint
 573:Drivers/STM32H7xx_HAL_Driver/Src/stm32h7xx_ll_usb.c ****   * @param  USBx  Selected device
 574:Drivers/STM32H7xx_HAL_Driver/Src/stm32h7xx_ll_usb.c ****   * @param  ep pointer to endpoint structure
 575:Drivers/STM32H7xx_HAL_Driver/Src/stm32h7xx_ll_usb.c ****   * @retval HAL status
 576:Drivers/STM32H7xx_HAL_Driver/Src/stm32h7xx_ll_usb.c ****   */
 577:Drivers/STM32H7xx_HAL_Driver/Src/stm32h7xx_ll_usb.c **** HAL_StatusTypeDef USB_ActivateEndpoint(const USB_OTG_GlobalTypeDef *USBx, const USB_OTG_EPTypeDef *
 578:Drivers/STM32H7xx_HAL_Driver/Src/stm32h7xx_ll_usb.c **** {
 1466              		.loc 1 578 1
 1467              		.cfi_startproc
 1468              		@ args = 0, pretend = 0, frame = 16
 1469              		@ frame_needed = 1, uses_anonymous_args = 0
 1470              		@ link register save eliminated.
 1471 0000 80B4     		push	{r7}
 1472              	.LCFI63:
 1473              		.cfi_def_cfa_offset 4
 1474              		.cfi_offset 7, -4
 1475 0002 85B0     		sub	sp, sp, #20
 1476              	.LCFI64:
 1477              		.cfi_def_cfa_offset 24
 1478 0004 00AF     		add	r7, sp, #0
 1479              	.LCFI65:
 1480              		.cfi_def_cfa_register 7
 1481 0006 7860     		str	r0, [r7, #4]
 1482 0008 3960     		str	r1, [r7]
 579:Drivers/STM32H7xx_HAL_Driver/Src/stm32h7xx_ll_usb.c ****   uint32_t USBx_BASE = (uint32_t)USBx;
 1483              		.loc 1 579 12
 1484 000a 7B68     		ldr	r3, [r7, #4]
 1485 000c FB60     		str	r3, [r7, #12]
 580:Drivers/STM32H7xx_HAL_Driver/Src/stm32h7xx_ll_usb.c ****   uint32_t epnum = (uint32_t)ep->num;
ARM GAS  C:\Users\23671\AppData\Local\Temp\ccHDlRLJ.s 			page 37


 1486              		.loc 1 580 32
 1487 000e 3B68     		ldr	r3, [r7]
 1488 0010 1B78     		ldrb	r3, [r3]	@ zero_extendqisi2
 1489              		.loc 1 580 12
 1490 0012 BB60     		str	r3, [r7, #8]
 581:Drivers/STM32H7xx_HAL_Driver/Src/stm32h7xx_ll_usb.c **** 
 582:Drivers/STM32H7xx_HAL_Driver/Src/stm32h7xx_ll_usb.c ****   if (ep->is_in == 1U)
 1491              		.loc 1 582 9
 1492 0014 3B68     		ldr	r3, [r7]
 1493 0016 5B78     		ldrb	r3, [r3, #1]	@ zero_extendqisi2
 1494              		.loc 1 582 6
 1495 0018 012B     		cmp	r3, #1
 1496 001a 39D1     		bne	.L86
 583:Drivers/STM32H7xx_HAL_Driver/Src/stm32h7xx_ll_usb.c ****   {
 584:Drivers/STM32H7xx_HAL_Driver/Src/stm32h7xx_ll_usb.c ****     USBx_DEVICE->DAINTMSK |= USB_OTG_DAINTMSK_IEPM & (uint32_t)(1UL << (ep->num & EP_ADDR_MSK));
 1497              		.loc 1 584 16
 1498 001c FB68     		ldr	r3, [r7, #12]
 1499 001e 03F50063 		add	r3, r3, #2048
 1500 0022 DA69     		ldr	r2, [r3, #28]
 1501              		.loc 1 584 75
 1502 0024 3B68     		ldr	r3, [r7]
 1503 0026 1B78     		ldrb	r3, [r3]	@ zero_extendqisi2
 1504              		.loc 1 584 81
 1505 0028 03F00F03 		and	r3, r3, #15
 1506              		.loc 1 584 54
 1507 002c 0121     		movs	r1, #1
 1508 002e 01FA03F3 		lsl	r3, r1, r3
 1509              		.loc 1 584 52
 1510 0032 9BB2     		uxth	r3, r3
 1511              		.loc 1 584 16
 1512 0034 F968     		ldr	r1, [r7, #12]
 1513 0036 01F50061 		add	r1, r1, #2048
 1514              		.loc 1 584 27
 1515 003a 1343     		orrs	r3, r3, r2
 1516 003c CB61     		str	r3, [r1, #28]
 585:Drivers/STM32H7xx_HAL_Driver/Src/stm32h7xx_ll_usb.c **** 
 586:Drivers/STM32H7xx_HAL_Driver/Src/stm32h7xx_ll_usb.c ****     if ((USBx_INEP(epnum)->DIEPCTL & USB_OTG_DIEPCTL_USBAEP) == 0U)
 1517              		.loc 1 586 10
 1518 003e BB68     		ldr	r3, [r7, #8]
 1519 0040 5A01     		lsls	r2, r3, #5
 1520 0042 FB68     		ldr	r3, [r7, #12]
 1521 0044 1344     		add	r3, r3, r2
 1522 0046 03F51063 		add	r3, r3, #2304
 1523              		.loc 1 586 26
 1524 004a 1B68     		ldr	r3, [r3]
 1525              		.loc 1 586 36
 1526 004c 03F40043 		and	r3, r3, #32768
 1527              		.loc 1 586 8
 1528 0050 002B     		cmp	r3, #0
 1529 0052 53D1     		bne	.L87
 587:Drivers/STM32H7xx_HAL_Driver/Src/stm32h7xx_ll_usb.c ****     {
 588:Drivers/STM32H7xx_HAL_Driver/Src/stm32h7xx_ll_usb.c ****       USBx_INEP(epnum)->DIEPCTL |= (ep->maxpacket & USB_OTG_DIEPCTL_MPSIZ) |
 1530              		.loc 1 588 23
 1531 0054 BB68     		ldr	r3, [r7, #8]
 1532 0056 5A01     		lsls	r2, r3, #5
 1533 0058 FB68     		ldr	r3, [r7, #12]
 1534 005a 1344     		add	r3, r3, r2
ARM GAS  C:\Users\23671\AppData\Local\Temp\ccHDlRLJ.s 			page 38


 1535 005c 03F51063 		add	r3, r3, #2304
 1536 0060 1A68     		ldr	r2, [r3]
 1537              		.loc 1 588 39
 1538 0062 3B68     		ldr	r3, [r7]
 1539 0064 9B68     		ldr	r3, [r3, #8]
 1540              		.loc 1 588 51
 1541 0066 C3F30A01 		ubfx	r1, r3, #0, #11
 589:Drivers/STM32H7xx_HAL_Driver/Src/stm32h7xx_ll_usb.c ****                                    ((uint32_t)ep->type << 18) | (epnum << 22) |
 1542              		.loc 1 589 49
 1543 006a 3B68     		ldr	r3, [r7]
 1544 006c 1B79     		ldrb	r3, [r3, #4]	@ zero_extendqisi2
 1545              		.loc 1 589 56
 1546 006e 9B04     		lsls	r3, r3, #18
 588:Drivers/STM32H7xx_HAL_Driver/Src/stm32h7xx_ll_usb.c ****                                    ((uint32_t)ep->type << 18) | (epnum << 22) |
 1547              		.loc 1 588 76
 1548 0070 1943     		orrs	r1, r1, r3
 1549              		.loc 1 589 72
 1550 0072 BB68     		ldr	r3, [r7, #8]
 1551 0074 9B05     		lsls	r3, r3, #22
 1552              		.loc 1 589 63
 1553 0076 0B43     		orrs	r3, r3, r1
 588:Drivers/STM32H7xx_HAL_Driver/Src/stm32h7xx_ll_usb.c ****                                    ((uint32_t)ep->type << 18) | (epnum << 22) |
 1554              		.loc 1 588 33
 1555 0078 1A43     		orrs	r2, r2, r3
 588:Drivers/STM32H7xx_HAL_Driver/Src/stm32h7xx_ll_usb.c ****                                    ((uint32_t)ep->type << 18) | (epnum << 22) |
 1556              		.loc 1 588 23
 1557 007a BB68     		ldr	r3, [r7, #8]
 1558 007c 5901     		lsls	r1, r3, #5
 1559 007e FB68     		ldr	r3, [r7, #12]
 1560 0080 0B44     		add	r3, r3, r1
 1561 0082 03F51063 		add	r3, r3, #2304
 1562 0086 1946     		mov	r1, r3
 588:Drivers/STM32H7xx_HAL_Driver/Src/stm32h7xx_ll_usb.c ****                                    ((uint32_t)ep->type << 18) | (epnum << 22) |
 1563              		.loc 1 588 33
 1564 0088 204B     		ldr	r3, .L89
 1565 008a 1343     		orrs	r3, r3, r2
 1566 008c 0B60     		str	r3, [r1]
 1567 008e 35E0     		b	.L87
 1568              	.L86:
 590:Drivers/STM32H7xx_HAL_Driver/Src/stm32h7xx_ll_usb.c ****                                    USB_OTG_DIEPCTL_SD0PID_SEVNFRM |
 591:Drivers/STM32H7xx_HAL_Driver/Src/stm32h7xx_ll_usb.c ****                                    USB_OTG_DIEPCTL_USBAEP;
 592:Drivers/STM32H7xx_HAL_Driver/Src/stm32h7xx_ll_usb.c ****     }
 593:Drivers/STM32H7xx_HAL_Driver/Src/stm32h7xx_ll_usb.c ****   }
 594:Drivers/STM32H7xx_HAL_Driver/Src/stm32h7xx_ll_usb.c ****   else
 595:Drivers/STM32H7xx_HAL_Driver/Src/stm32h7xx_ll_usb.c ****   {
 596:Drivers/STM32H7xx_HAL_Driver/Src/stm32h7xx_ll_usb.c ****     USBx_DEVICE->DAINTMSK |= USB_OTG_DAINTMSK_OEPM & ((uint32_t)(1UL << (ep->num & EP_ADDR_MSK)) <<
 1569              		.loc 1 596 16
 1570 0090 FB68     		ldr	r3, [r7, #12]
 1571 0092 03F50063 		add	r3, r3, #2048
 1572 0096 DA69     		ldr	r2, [r3, #28]
 1573              		.loc 1 596 76
 1574 0098 3B68     		ldr	r3, [r7]
 1575 009a 1B78     		ldrb	r3, [r3]	@ zero_extendqisi2
 1576              		.loc 1 596 82
 1577 009c 03F00F03 		and	r3, r3, #15
 1578              		.loc 1 596 55
 1579 00a0 0121     		movs	r1, #1
ARM GAS  C:\Users\23671\AppData\Local\Temp\ccHDlRLJ.s 			page 39


 1580 00a2 01FA03F3 		lsl	r3, r1, r3
 1581              		.loc 1 596 52
 1582 00a6 1B04     		lsls	r3, r3, #16
 1583              		.loc 1 596 16
 1584 00a8 F968     		ldr	r1, [r7, #12]
 1585 00aa 01F50061 		add	r1, r1, #2048
 1586              		.loc 1 596 27
 1587 00ae 1343     		orrs	r3, r3, r2
 1588 00b0 CB61     		str	r3, [r1, #28]
 597:Drivers/STM32H7xx_HAL_Driver/Src/stm32h7xx_ll_usb.c **** 
 598:Drivers/STM32H7xx_HAL_Driver/Src/stm32h7xx_ll_usb.c ****     if (((USBx_OUTEP(epnum)->DOEPCTL) & USB_OTG_DOEPCTL_USBAEP) == 0U)
 1589              		.loc 1 598 11
 1590 00b2 BB68     		ldr	r3, [r7, #8]
 1591 00b4 5A01     		lsls	r2, r3, #5
 1592 00b6 FB68     		ldr	r3, [r7, #12]
 1593 00b8 1344     		add	r3, r3, r2
 1594 00ba 03F53063 		add	r3, r3, #2816
 1595              		.loc 1 598 28
 1596 00be 1B68     		ldr	r3, [r3]
 1597              		.loc 1 598 39
 1598 00c0 03F40043 		and	r3, r3, #32768
 1599              		.loc 1 598 8
 1600 00c4 002B     		cmp	r3, #0
 1601 00c6 19D1     		bne	.L87
 599:Drivers/STM32H7xx_HAL_Driver/Src/stm32h7xx_ll_usb.c ****     {
 600:Drivers/STM32H7xx_HAL_Driver/Src/stm32h7xx_ll_usb.c ****       USBx_OUTEP(epnum)->DOEPCTL |= (ep->maxpacket & USB_OTG_DOEPCTL_MPSIZ) |
 1602              		.loc 1 600 24
 1603 00c8 BB68     		ldr	r3, [r7, #8]
 1604 00ca 5A01     		lsls	r2, r3, #5
 1605 00cc FB68     		ldr	r3, [r7, #12]
 1606 00ce 1344     		add	r3, r3, r2
 1607 00d0 03F53063 		add	r3, r3, #2816
 1608 00d4 1A68     		ldr	r2, [r3]
 1609              		.loc 1 600 40
 1610 00d6 3B68     		ldr	r3, [r7]
 1611 00d8 9B68     		ldr	r3, [r3, #8]
 1612              		.loc 1 600 52
 1613 00da C3F30A01 		ubfx	r1, r3, #0, #11
 601:Drivers/STM32H7xx_HAL_Driver/Src/stm32h7xx_ll_usb.c ****                                     ((uint32_t)ep->type << 18) |
 1614              		.loc 1 601 50
 1615 00de 3B68     		ldr	r3, [r7]
 1616 00e0 1B79     		ldrb	r3, [r3, #4]	@ zero_extendqisi2
 1617              		.loc 1 601 57
 1618 00e2 9B04     		lsls	r3, r3, #18
 600:Drivers/STM32H7xx_HAL_Driver/Src/stm32h7xx_ll_usb.c ****                                     ((uint32_t)ep->type << 18) |
 1619              		.loc 1 600 77
 1620 00e4 0B43     		orrs	r3, r3, r1
 600:Drivers/STM32H7xx_HAL_Driver/Src/stm32h7xx_ll_usb.c ****                                     ((uint32_t)ep->type << 18) |
 1621              		.loc 1 600 34
 1622 00e6 1A43     		orrs	r2, r2, r3
 600:Drivers/STM32H7xx_HAL_Driver/Src/stm32h7xx_ll_usb.c ****                                     ((uint32_t)ep->type << 18) |
 1623              		.loc 1 600 24
 1624 00e8 BB68     		ldr	r3, [r7, #8]
 1625 00ea 5901     		lsls	r1, r3, #5
 1626 00ec FB68     		ldr	r3, [r7, #12]
 1627 00ee 0B44     		add	r3, r3, r1
 1628 00f0 03F53063 		add	r3, r3, #2816
ARM GAS  C:\Users\23671\AppData\Local\Temp\ccHDlRLJ.s 			page 40


 1629 00f4 1946     		mov	r1, r3
 600:Drivers/STM32H7xx_HAL_Driver/Src/stm32h7xx_ll_usb.c ****                                     ((uint32_t)ep->type << 18) |
 1630              		.loc 1 600 34
 1631 00f6 054B     		ldr	r3, .L89
 1632 00f8 1343     		orrs	r3, r3, r2
 1633 00fa 0B60     		str	r3, [r1]
 1634              	.L87:
 602:Drivers/STM32H7xx_HAL_Driver/Src/stm32h7xx_ll_usb.c ****                                     USB_OTG_DIEPCTL_SD0PID_SEVNFRM |
 603:Drivers/STM32H7xx_HAL_Driver/Src/stm32h7xx_ll_usb.c ****                                     USB_OTG_DOEPCTL_USBAEP;
 604:Drivers/STM32H7xx_HAL_Driver/Src/stm32h7xx_ll_usb.c ****     }
 605:Drivers/STM32H7xx_HAL_Driver/Src/stm32h7xx_ll_usb.c ****   }
 606:Drivers/STM32H7xx_HAL_Driver/Src/stm32h7xx_ll_usb.c ****   return HAL_OK;
 1635              		.loc 1 606 10
 1636 00fc 0023     		movs	r3, #0
 607:Drivers/STM32H7xx_HAL_Driver/Src/stm32h7xx_ll_usb.c **** }
 1637              		.loc 1 607 1
 1638 00fe 1846     		mov	r0, r3
 1639 0100 1437     		adds	r7, r7, #20
 1640              	.LCFI66:
 1641              		.cfi_def_cfa_offset 4
 1642 0102 BD46     		mov	sp, r7
 1643              	.LCFI67:
 1644              		.cfi_def_cfa_register 13
 1645              		@ sp needed
 1646 0104 5DF8047B 		ldr	r7, [sp], #4
 1647              	.LCFI68:
 1648              		.cfi_restore 7
 1649              		.cfi_def_cfa_offset 0
 1650 0108 7047     		bx	lr
 1651              	.L90:
 1652 010a 00BF     		.align	2
 1653              	.L89:
 1654 010c 00800010 		.word	268468224
 1655              		.cfi_endproc
 1656              	.LFE154:
 1658              		.section	.text.USB_ActivateDedicatedEndpoint,"ax",%progbits
 1659              		.align	1
 1660              		.global	USB_ActivateDedicatedEndpoint
 1661              		.syntax unified
 1662              		.thumb
 1663              		.thumb_func
 1665              	USB_ActivateDedicatedEndpoint:
 1666              	.LFB155:
 608:Drivers/STM32H7xx_HAL_Driver/Src/stm32h7xx_ll_usb.c **** 
 609:Drivers/STM32H7xx_HAL_Driver/Src/stm32h7xx_ll_usb.c **** /**
 610:Drivers/STM32H7xx_HAL_Driver/Src/stm32h7xx_ll_usb.c ****   * @brief  Activate and configure a dedicated endpoint
 611:Drivers/STM32H7xx_HAL_Driver/Src/stm32h7xx_ll_usb.c ****   * @param  USBx  Selected device
 612:Drivers/STM32H7xx_HAL_Driver/Src/stm32h7xx_ll_usb.c ****   * @param  ep pointer to endpoint structure
 613:Drivers/STM32H7xx_HAL_Driver/Src/stm32h7xx_ll_usb.c ****   * @retval HAL status
 614:Drivers/STM32H7xx_HAL_Driver/Src/stm32h7xx_ll_usb.c ****   */
 615:Drivers/STM32H7xx_HAL_Driver/Src/stm32h7xx_ll_usb.c **** HAL_StatusTypeDef USB_ActivateDedicatedEndpoint(const USB_OTG_GlobalTypeDef *USBx, const USB_OTG_EP
 616:Drivers/STM32H7xx_HAL_Driver/Src/stm32h7xx_ll_usb.c **** {
 1667              		.loc 1 616 1
 1668              		.cfi_startproc
 1669              		@ args = 0, pretend = 0, frame = 16
 1670              		@ frame_needed = 1, uses_anonymous_args = 0
 1671              		@ link register save eliminated.
ARM GAS  C:\Users\23671\AppData\Local\Temp\ccHDlRLJ.s 			page 41


 1672 0000 80B4     		push	{r7}
 1673              	.LCFI69:
 1674              		.cfi_def_cfa_offset 4
 1675              		.cfi_offset 7, -4
 1676 0002 85B0     		sub	sp, sp, #20
 1677              	.LCFI70:
 1678              		.cfi_def_cfa_offset 24
 1679 0004 00AF     		add	r7, sp, #0
 1680              	.LCFI71:
 1681              		.cfi_def_cfa_register 7
 1682 0006 7860     		str	r0, [r7, #4]
 1683 0008 3960     		str	r1, [r7]
 617:Drivers/STM32H7xx_HAL_Driver/Src/stm32h7xx_ll_usb.c ****   uint32_t USBx_BASE = (uint32_t)USBx;
 1684              		.loc 1 617 12
 1685 000a 7B68     		ldr	r3, [r7, #4]
 1686 000c FB60     		str	r3, [r7, #12]
 618:Drivers/STM32H7xx_HAL_Driver/Src/stm32h7xx_ll_usb.c ****   uint32_t epnum = (uint32_t)ep->num;
 1687              		.loc 1 618 32
 1688 000e 3B68     		ldr	r3, [r7]
 1689 0010 1B78     		ldrb	r3, [r3]	@ zero_extendqisi2
 1690              		.loc 1 618 12
 1691 0012 BB60     		str	r3, [r7, #8]
 619:Drivers/STM32H7xx_HAL_Driver/Src/stm32h7xx_ll_usb.c **** 
 620:Drivers/STM32H7xx_HAL_Driver/Src/stm32h7xx_ll_usb.c ****   /* Read DEPCTLn register */
 621:Drivers/STM32H7xx_HAL_Driver/Src/stm32h7xx_ll_usb.c ****   if (ep->is_in == 1U)
 1692              		.loc 1 621 9
 1693 0014 3B68     		ldr	r3, [r7]
 1694 0016 5B78     		ldrb	r3, [r3, #1]	@ zero_extendqisi2
 1695              		.loc 1 621 6
 1696 0018 012B     		cmp	r3, #1
 1697 001a 39D1     		bne	.L92
 622:Drivers/STM32H7xx_HAL_Driver/Src/stm32h7xx_ll_usb.c ****   {
 623:Drivers/STM32H7xx_HAL_Driver/Src/stm32h7xx_ll_usb.c ****     if (((USBx_INEP(epnum)->DIEPCTL) & USB_OTG_DIEPCTL_USBAEP) == 0U)
 1698              		.loc 1 623 11
 1699 001c BB68     		ldr	r3, [r7, #8]
 1700 001e 5A01     		lsls	r2, r3, #5
 1701 0020 FB68     		ldr	r3, [r7, #12]
 1702 0022 1344     		add	r3, r3, r2
 1703 0024 03F51063 		add	r3, r3, #2304
 1704              		.loc 1 623 27
 1705 0028 1B68     		ldr	r3, [r3]
 1706              		.loc 1 623 38
 1707 002a 03F40043 		and	r3, r3, #32768
 1708              		.loc 1 623 8
 1709 002e 002B     		cmp	r3, #0
 1710 0030 1CD1     		bne	.L93
 624:Drivers/STM32H7xx_HAL_Driver/Src/stm32h7xx_ll_usb.c ****     {
 625:Drivers/STM32H7xx_HAL_Driver/Src/stm32h7xx_ll_usb.c ****       USBx_INEP(epnum)->DIEPCTL |= (ep->maxpacket & USB_OTG_DIEPCTL_MPSIZ) |
 1711              		.loc 1 625 23
 1712 0032 BB68     		ldr	r3, [r7, #8]
 1713 0034 5A01     		lsls	r2, r3, #5
 1714 0036 FB68     		ldr	r3, [r7, #12]
 1715 0038 1344     		add	r3, r3, r2
 1716 003a 03F51063 		add	r3, r3, #2304
 1717 003e 1A68     		ldr	r2, [r3]
 1718              		.loc 1 625 39
 1719 0040 3B68     		ldr	r3, [r7]
ARM GAS  C:\Users\23671\AppData\Local\Temp\ccHDlRLJ.s 			page 42


 1720 0042 9B68     		ldr	r3, [r3, #8]
 1721              		.loc 1 625 51
 1722 0044 C3F30A01 		ubfx	r1, r3, #0, #11
 626:Drivers/STM32H7xx_HAL_Driver/Src/stm32h7xx_ll_usb.c ****                                    ((uint32_t)ep->type << 18) | (epnum << 22) |
 1723              		.loc 1 626 49
 1724 0048 3B68     		ldr	r3, [r7]
 1725 004a 1B79     		ldrb	r3, [r3, #4]	@ zero_extendqisi2
 1726              		.loc 1 626 56
 1727 004c 9B04     		lsls	r3, r3, #18
 625:Drivers/STM32H7xx_HAL_Driver/Src/stm32h7xx_ll_usb.c ****                                    ((uint32_t)ep->type << 18) | (epnum << 22) |
 1728              		.loc 1 625 76
 1729 004e 1943     		orrs	r1, r1, r3
 1730              		.loc 1 626 72
 1731 0050 BB68     		ldr	r3, [r7, #8]
 1732 0052 9B05     		lsls	r3, r3, #22
 1733              		.loc 1 626 63
 1734 0054 0B43     		orrs	r3, r3, r1
 625:Drivers/STM32H7xx_HAL_Driver/Src/stm32h7xx_ll_usb.c ****                                    ((uint32_t)ep->type << 18) | (epnum << 22) |
 1735              		.loc 1 625 33
 1736 0056 1A43     		orrs	r2, r2, r3
 625:Drivers/STM32H7xx_HAL_Driver/Src/stm32h7xx_ll_usb.c ****                                    ((uint32_t)ep->type << 18) | (epnum << 22) |
 1737              		.loc 1 625 23
 1738 0058 BB68     		ldr	r3, [r7, #8]
 1739 005a 5901     		lsls	r1, r3, #5
 1740 005c FB68     		ldr	r3, [r7, #12]
 1741 005e 0B44     		add	r3, r3, r1
 1742 0060 03F51063 		add	r3, r3, #2304
 1743 0064 1946     		mov	r1, r3
 625:Drivers/STM32H7xx_HAL_Driver/Src/stm32h7xx_ll_usb.c ****                                    ((uint32_t)ep->type << 18) | (epnum << 22) |
 1744              		.loc 1 625 33
 1745 0066 2A4B     		ldr	r3, .L97
 1746 0068 1343     		orrs	r3, r3, r2
 1747 006a 0B60     		str	r3, [r1]
 1748              	.L93:
 627:Drivers/STM32H7xx_HAL_Driver/Src/stm32h7xx_ll_usb.c ****                                    USB_OTG_DIEPCTL_SD0PID_SEVNFRM |
 628:Drivers/STM32H7xx_HAL_Driver/Src/stm32h7xx_ll_usb.c ****                                    USB_OTG_DIEPCTL_USBAEP;
 629:Drivers/STM32H7xx_HAL_Driver/Src/stm32h7xx_ll_usb.c ****     }
 630:Drivers/STM32H7xx_HAL_Driver/Src/stm32h7xx_ll_usb.c **** 
 631:Drivers/STM32H7xx_HAL_Driver/Src/stm32h7xx_ll_usb.c ****     USBx_DEVICE->DEACHMSK |= USB_OTG_DAINTMSK_IEPM & (uint32_t)(1UL << (ep->num & EP_ADDR_MSK));
 1749              		.loc 1 631 16
 1750 006c FB68     		ldr	r3, [r7, #12]
 1751 006e 03F50063 		add	r3, r3, #2048
 1752 0072 DA6B     		ldr	r2, [r3, #60]
 1753              		.loc 1 631 75
 1754 0074 3B68     		ldr	r3, [r7]
 1755 0076 1B78     		ldrb	r3, [r3]	@ zero_extendqisi2
 1756              		.loc 1 631 81
 1757 0078 03F00F03 		and	r3, r3, #15
 1758              		.loc 1 631 54
 1759 007c 0121     		movs	r1, #1
 1760 007e 01FA03F3 		lsl	r3, r1, r3
 1761              		.loc 1 631 52
 1762 0082 9BB2     		uxth	r3, r3
 1763              		.loc 1 631 16
 1764 0084 F968     		ldr	r1, [r7, #12]
 1765 0086 01F50061 		add	r1, r1, #2048
 1766              		.loc 1 631 27
ARM GAS  C:\Users\23671\AppData\Local\Temp\ccHDlRLJ.s 			page 43


 1767 008a 1343     		orrs	r3, r3, r2
 1768 008c CB63     		str	r3, [r1, #60]
 1769 008e 37E0     		b	.L94
 1770              	.L92:
 632:Drivers/STM32H7xx_HAL_Driver/Src/stm32h7xx_ll_usb.c ****   }
 633:Drivers/STM32H7xx_HAL_Driver/Src/stm32h7xx_ll_usb.c ****   else
 634:Drivers/STM32H7xx_HAL_Driver/Src/stm32h7xx_ll_usb.c ****   {
 635:Drivers/STM32H7xx_HAL_Driver/Src/stm32h7xx_ll_usb.c ****     if (((USBx_OUTEP(epnum)->DOEPCTL) & USB_OTG_DOEPCTL_USBAEP) == 0U)
 1771              		.loc 1 635 11
 1772 0090 BB68     		ldr	r3, [r7, #8]
 1773 0092 5A01     		lsls	r2, r3, #5
 1774 0094 FB68     		ldr	r3, [r7, #12]
 1775 0096 1344     		add	r3, r3, r2
 1776 0098 03F53063 		add	r3, r3, #2816
 1777              		.loc 1 635 28
 1778 009c 1B68     		ldr	r3, [r3]
 1779              		.loc 1 635 39
 1780 009e 03F40043 		and	r3, r3, #32768
 1781              		.loc 1 635 8
 1782 00a2 002B     		cmp	r3, #0
 1783 00a4 1BD1     		bne	.L95
 636:Drivers/STM32H7xx_HAL_Driver/Src/stm32h7xx_ll_usb.c ****     {
 637:Drivers/STM32H7xx_HAL_Driver/Src/stm32h7xx_ll_usb.c ****       USBx_OUTEP(epnum)->DOEPCTL |= (ep->maxpacket & USB_OTG_DOEPCTL_MPSIZ) |
 1784              		.loc 1 637 24
 1785 00a6 BB68     		ldr	r3, [r7, #8]
 1786 00a8 5A01     		lsls	r2, r3, #5
 1787 00aa FB68     		ldr	r3, [r7, #12]
 1788 00ac 1344     		add	r3, r3, r2
 1789 00ae 03F53063 		add	r3, r3, #2816
 1790 00b2 1A68     		ldr	r2, [r3]
 1791              		.loc 1 637 40
 1792 00b4 3B68     		ldr	r3, [r7]
 1793 00b6 9B68     		ldr	r3, [r3, #8]
 1794              		.loc 1 637 52
 1795 00b8 C3F30A01 		ubfx	r1, r3, #0, #11
 638:Drivers/STM32H7xx_HAL_Driver/Src/stm32h7xx_ll_usb.c ****                                     ((uint32_t)ep->type << 18) | (epnum << 22) |
 1796              		.loc 1 638 50
 1797 00bc 3B68     		ldr	r3, [r7]
 1798 00be 1B79     		ldrb	r3, [r3, #4]	@ zero_extendqisi2
 1799              		.loc 1 638 57
 1800 00c0 9B04     		lsls	r3, r3, #18
 637:Drivers/STM32H7xx_HAL_Driver/Src/stm32h7xx_ll_usb.c ****                                     ((uint32_t)ep->type << 18) | (epnum << 22) |
 1801              		.loc 1 637 77
 1802 00c2 1943     		orrs	r1, r1, r3
 1803              		.loc 1 638 73
 1804 00c4 BB68     		ldr	r3, [r7, #8]
 1805 00c6 9B05     		lsls	r3, r3, #22
 1806              		.loc 1 638 64
 1807 00c8 0B43     		orrs	r3, r3, r1
 637:Drivers/STM32H7xx_HAL_Driver/Src/stm32h7xx_ll_usb.c ****                                     ((uint32_t)ep->type << 18) | (epnum << 22) |
 1808              		.loc 1 637 34
 1809 00ca 1343     		orrs	r3, r3, r2
 637:Drivers/STM32H7xx_HAL_Driver/Src/stm32h7xx_ll_usb.c ****                                     ((uint32_t)ep->type << 18) | (epnum << 22) |
 1810              		.loc 1 637 24
 1811 00cc BA68     		ldr	r2, [r7, #8]
 1812 00ce 5101     		lsls	r1, r2, #5
 1813 00d0 FA68     		ldr	r2, [r7, #12]
ARM GAS  C:\Users\23671\AppData\Local\Temp\ccHDlRLJ.s 			page 44


 1814 00d2 0A44     		add	r2, r2, r1
 1815 00d4 02F53062 		add	r2, r2, #2816
 637:Drivers/STM32H7xx_HAL_Driver/Src/stm32h7xx_ll_usb.c ****                                     ((uint32_t)ep->type << 18) | (epnum << 22) |
 1816              		.loc 1 637 34
 1817 00d8 43F40043 		orr	r3, r3, #32768
 1818 00dc 1360     		str	r3, [r2]
 1819              	.L95:
 639:Drivers/STM32H7xx_HAL_Driver/Src/stm32h7xx_ll_usb.c ****                                     USB_OTG_DOEPCTL_USBAEP;
 640:Drivers/STM32H7xx_HAL_Driver/Src/stm32h7xx_ll_usb.c ****     }
 641:Drivers/STM32H7xx_HAL_Driver/Src/stm32h7xx_ll_usb.c **** 
 642:Drivers/STM32H7xx_HAL_Driver/Src/stm32h7xx_ll_usb.c ****     USBx_DEVICE->DEACHMSK |= USB_OTG_DAINTMSK_OEPM & ((uint32_t)(1UL << (ep->num & EP_ADDR_MSK)) <<
 1820              		.loc 1 642 16
 1821 00de FB68     		ldr	r3, [r7, #12]
 1822 00e0 03F50063 		add	r3, r3, #2048
 1823 00e4 DA6B     		ldr	r2, [r3, #60]
 1824              		.loc 1 642 76
 1825 00e6 3B68     		ldr	r3, [r7]
 1826 00e8 1B78     		ldrb	r3, [r3]	@ zero_extendqisi2
 1827              		.loc 1 642 82
 1828 00ea 03F00F03 		and	r3, r3, #15
 1829              		.loc 1 642 55
 1830 00ee 0121     		movs	r1, #1
 1831 00f0 01FA03F3 		lsl	r3, r1, r3
 1832              		.loc 1 642 52
 1833 00f4 1B04     		lsls	r3, r3, #16
 1834              		.loc 1 642 16
 1835 00f6 F968     		ldr	r1, [r7, #12]
 1836 00f8 01F50061 		add	r1, r1, #2048
 1837              		.loc 1 642 27
 1838 00fc 1343     		orrs	r3, r3, r2
 1839 00fe CB63     		str	r3, [r1, #60]
 1840              	.L94:
 643:Drivers/STM32H7xx_HAL_Driver/Src/stm32h7xx_ll_usb.c ****   }
 644:Drivers/STM32H7xx_HAL_Driver/Src/stm32h7xx_ll_usb.c **** 
 645:Drivers/STM32H7xx_HAL_Driver/Src/stm32h7xx_ll_usb.c ****   return HAL_OK;
 1841              		.loc 1 645 10
 1842 0100 0023     		movs	r3, #0
 646:Drivers/STM32H7xx_HAL_Driver/Src/stm32h7xx_ll_usb.c **** }
 1843              		.loc 1 646 1
 1844 0102 1846     		mov	r0, r3
 1845 0104 1437     		adds	r7, r7, #20
 1846              	.LCFI72:
 1847              		.cfi_def_cfa_offset 4
 1848 0106 BD46     		mov	sp, r7
 1849              	.LCFI73:
 1850              		.cfi_def_cfa_register 13
 1851              		@ sp needed
 1852 0108 5DF8047B 		ldr	r7, [sp], #4
 1853              	.LCFI74:
 1854              		.cfi_restore 7
 1855              		.cfi_def_cfa_offset 0
 1856 010c 7047     		bx	lr
 1857              	.L98:
 1858 010e 00BF     		.align	2
 1859              	.L97:
 1860 0110 00800010 		.word	268468224
 1861              		.cfi_endproc
ARM GAS  C:\Users\23671\AppData\Local\Temp\ccHDlRLJ.s 			page 45


 1862              	.LFE155:
 1864              		.section	.text.USB_DeactivateEndpoint,"ax",%progbits
 1865              		.align	1
 1866              		.global	USB_DeactivateEndpoint
 1867              		.syntax unified
 1868              		.thumb
 1869              		.thumb_func
 1871              	USB_DeactivateEndpoint:
 1872              	.LFB156:
 647:Drivers/STM32H7xx_HAL_Driver/Src/stm32h7xx_ll_usb.c **** 
 648:Drivers/STM32H7xx_HAL_Driver/Src/stm32h7xx_ll_usb.c **** /**
 649:Drivers/STM32H7xx_HAL_Driver/Src/stm32h7xx_ll_usb.c ****   * @brief  De-activate and de-initialize an endpoint
 650:Drivers/STM32H7xx_HAL_Driver/Src/stm32h7xx_ll_usb.c ****   * @param  USBx  Selected device
 651:Drivers/STM32H7xx_HAL_Driver/Src/stm32h7xx_ll_usb.c ****   * @param  ep pointer to endpoint structure
 652:Drivers/STM32H7xx_HAL_Driver/Src/stm32h7xx_ll_usb.c ****   * @retval HAL status
 653:Drivers/STM32H7xx_HAL_Driver/Src/stm32h7xx_ll_usb.c ****   */
 654:Drivers/STM32H7xx_HAL_Driver/Src/stm32h7xx_ll_usb.c **** HAL_StatusTypeDef USB_DeactivateEndpoint(const USB_OTG_GlobalTypeDef *USBx, const USB_OTG_EPTypeDef
 655:Drivers/STM32H7xx_HAL_Driver/Src/stm32h7xx_ll_usb.c **** {
 1873              		.loc 1 655 1
 1874              		.cfi_startproc
 1875              		@ args = 0, pretend = 0, frame = 16
 1876              		@ frame_needed = 1, uses_anonymous_args = 0
 1877              		@ link register save eliminated.
 1878 0000 80B4     		push	{r7}
 1879              	.LCFI75:
 1880              		.cfi_def_cfa_offset 4
 1881              		.cfi_offset 7, -4
 1882 0002 85B0     		sub	sp, sp, #20
 1883              	.LCFI76:
 1884              		.cfi_def_cfa_offset 24
 1885 0004 00AF     		add	r7, sp, #0
 1886              	.LCFI77:
 1887              		.cfi_def_cfa_register 7
 1888 0006 7860     		str	r0, [r7, #4]
 1889 0008 3960     		str	r1, [r7]
 656:Drivers/STM32H7xx_HAL_Driver/Src/stm32h7xx_ll_usb.c ****   uint32_t USBx_BASE = (uint32_t)USBx;
 1890              		.loc 1 656 12
 1891 000a 7B68     		ldr	r3, [r7, #4]
 1892 000c FB60     		str	r3, [r7, #12]
 657:Drivers/STM32H7xx_HAL_Driver/Src/stm32h7xx_ll_usb.c ****   uint32_t epnum = (uint32_t)ep->num;
 1893              		.loc 1 657 32
 1894 000e 3B68     		ldr	r3, [r7]
 1895 0010 1B78     		ldrb	r3, [r3]	@ zero_extendqisi2
 1896              		.loc 1 657 12
 1897 0012 BB60     		str	r3, [r7, #8]
 658:Drivers/STM32H7xx_HAL_Driver/Src/stm32h7xx_ll_usb.c **** 
 659:Drivers/STM32H7xx_HAL_Driver/Src/stm32h7xx_ll_usb.c ****   /* Read DEPCTLn register */
 660:Drivers/STM32H7xx_HAL_Driver/Src/stm32h7xx_ll_usb.c ****   if (ep->is_in == 1U)
 1898              		.loc 1 660 9
 1899 0014 3B68     		ldr	r3, [r7]
 1900 0016 5B78     		ldrb	r3, [r3, #1]	@ zero_extendqisi2
 1901              		.loc 1 660 6
 1902 0018 012B     		cmp	r3, #1
 1903 001a 61D1     		bne	.L100
 661:Drivers/STM32H7xx_HAL_Driver/Src/stm32h7xx_ll_usb.c ****   {
 662:Drivers/STM32H7xx_HAL_Driver/Src/stm32h7xx_ll_usb.c ****     if ((USBx_INEP(epnum)->DIEPCTL & USB_OTG_DIEPCTL_EPENA) == USB_OTG_DIEPCTL_EPENA)
 1904              		.loc 1 662 10
ARM GAS  C:\Users\23671\AppData\Local\Temp\ccHDlRLJ.s 			page 46


 1905 001c BB68     		ldr	r3, [r7, #8]
 1906 001e 5A01     		lsls	r2, r3, #5
 1907 0020 FB68     		ldr	r3, [r7, #12]
 1908 0022 1344     		add	r3, r3, r2
 1909 0024 03F51063 		add	r3, r3, #2304
 1910              		.loc 1 662 26
 1911 0028 1B68     		ldr	r3, [r3]
 1912              		.loc 1 662 36
 1913 002a 03F00043 		and	r3, r3, #-2147483648
 1914              		.loc 1 662 8
 1915 002e B3F1004F 		cmp	r3, #-2147483648
 1916 0032 1FD1     		bne	.L101
 663:Drivers/STM32H7xx_HAL_Driver/Src/stm32h7xx_ll_usb.c ****     {
 664:Drivers/STM32H7xx_HAL_Driver/Src/stm32h7xx_ll_usb.c ****       USBx_INEP(epnum)->DIEPCTL |= USB_OTG_DIEPCTL_SNAK;
 1917              		.loc 1 664 23
 1918 0034 BB68     		ldr	r3, [r7, #8]
 1919 0036 5A01     		lsls	r2, r3, #5
 1920 0038 FB68     		ldr	r3, [r7, #12]
 1921 003a 1344     		add	r3, r3, r2
 1922 003c 03F51063 		add	r3, r3, #2304
 1923 0040 1B68     		ldr	r3, [r3]
 1924 0042 BA68     		ldr	r2, [r7, #8]
 1925 0044 5101     		lsls	r1, r2, #5
 1926 0046 FA68     		ldr	r2, [r7, #12]
 1927 0048 0A44     		add	r2, r2, r1
 1928 004a 02F51062 		add	r2, r2, #2304
 1929              		.loc 1 664 33
 1930 004e 43F00063 		orr	r3, r3, #134217728
 1931 0052 1360     		str	r3, [r2]
 665:Drivers/STM32H7xx_HAL_Driver/Src/stm32h7xx_ll_usb.c ****       USBx_INEP(epnum)->DIEPCTL |= USB_OTG_DIEPCTL_EPDIS;
 1932              		.loc 1 665 23
 1933 0054 BB68     		ldr	r3, [r7, #8]
 1934 0056 5A01     		lsls	r2, r3, #5
 1935 0058 FB68     		ldr	r3, [r7, #12]
 1936 005a 1344     		add	r3, r3, r2
 1937 005c 03F51063 		add	r3, r3, #2304
 1938 0060 1B68     		ldr	r3, [r3]
 1939 0062 BA68     		ldr	r2, [r7, #8]
 1940 0064 5101     		lsls	r1, r2, #5
 1941 0066 FA68     		ldr	r2, [r7, #12]
 1942 0068 0A44     		add	r2, r2, r1
 1943 006a 02F51062 		add	r2, r2, #2304
 1944              		.loc 1 665 33
 1945 006e 43F08043 		orr	r3, r3, #1073741824
 1946 0072 1360     		str	r3, [r2]
 1947              	.L101:
 666:Drivers/STM32H7xx_HAL_Driver/Src/stm32h7xx_ll_usb.c ****     }
 667:Drivers/STM32H7xx_HAL_Driver/Src/stm32h7xx_ll_usb.c **** 
 668:Drivers/STM32H7xx_HAL_Driver/Src/stm32h7xx_ll_usb.c ****     USBx_DEVICE->DEACHMSK &= ~(USB_OTG_DAINTMSK_IEPM & (uint32_t)(1UL << (ep->num & EP_ADDR_MSK)));
 1948              		.loc 1 668 16
 1949 0074 FB68     		ldr	r3, [r7, #12]
 1950 0076 03F50063 		add	r3, r3, #2048
 1951 007a DA6B     		ldr	r2, [r3, #60]
 1952              		.loc 1 668 77
 1953 007c 3B68     		ldr	r3, [r7]
 1954 007e 1B78     		ldrb	r3, [r3]	@ zero_extendqisi2
 1955              		.loc 1 668 83
ARM GAS  C:\Users\23671\AppData\Local\Temp\ccHDlRLJ.s 			page 47


 1956 0080 03F00F03 		and	r3, r3, #15
 1957              		.loc 1 668 56
 1958 0084 0121     		movs	r1, #1
 1959 0086 01FA03F3 		lsl	r3, r1, r3
 1960              		.loc 1 668 54
 1961 008a 9BB2     		uxth	r3, r3
 1962              		.loc 1 668 30
 1963 008c DB43     		mvns	r3, r3
 1964              		.loc 1 668 16
 1965 008e F968     		ldr	r1, [r7, #12]
 1966 0090 01F50061 		add	r1, r1, #2048
 1967              		.loc 1 668 27
 1968 0094 1340     		ands	r3, r3, r2
 1969 0096 CB63     		str	r3, [r1, #60]
 669:Drivers/STM32H7xx_HAL_Driver/Src/stm32h7xx_ll_usb.c ****     USBx_DEVICE->DAINTMSK &= ~(USB_OTG_DAINTMSK_IEPM & (uint32_t)(1UL << (ep->num & EP_ADDR_MSK)));
 1970              		.loc 1 669 16
 1971 0098 FB68     		ldr	r3, [r7, #12]
 1972 009a 03F50063 		add	r3, r3, #2048
 1973 009e DA69     		ldr	r2, [r3, #28]
 1974              		.loc 1 669 77
 1975 00a0 3B68     		ldr	r3, [r7]
 1976 00a2 1B78     		ldrb	r3, [r3]	@ zero_extendqisi2
 1977              		.loc 1 669 83
 1978 00a4 03F00F03 		and	r3, r3, #15
 1979              		.loc 1 669 56
 1980 00a8 0121     		movs	r1, #1
 1981 00aa 01FA03F3 		lsl	r3, r1, r3
 1982              		.loc 1 669 54
 1983 00ae 9BB2     		uxth	r3, r3
 1984              		.loc 1 669 30
 1985 00b0 DB43     		mvns	r3, r3
 1986              		.loc 1 669 16
 1987 00b2 F968     		ldr	r1, [r7, #12]
 1988 00b4 01F50061 		add	r1, r1, #2048
 1989              		.loc 1 669 27
 1990 00b8 1340     		ands	r3, r3, r2
 1991 00ba CB61     		str	r3, [r1, #28]
 670:Drivers/STM32H7xx_HAL_Driver/Src/stm32h7xx_ll_usb.c ****     USBx_INEP(epnum)->DIEPCTL &= ~(USB_OTG_DIEPCTL_USBAEP |
 1992              		.loc 1 670 21
 1993 00bc BB68     		ldr	r3, [r7, #8]
 1994 00be 5A01     		lsls	r2, r3, #5
 1995 00c0 FB68     		ldr	r3, [r7, #12]
 1996 00c2 1344     		add	r3, r3, r2
 1997 00c4 03F51063 		add	r3, r3, #2304
 1998 00c8 1A68     		ldr	r2, [r3]
 1999 00ca BB68     		ldr	r3, [r7, #8]
 2000 00cc 5901     		lsls	r1, r3, #5
 2001 00ce FB68     		ldr	r3, [r7, #12]
 2002 00d0 0B44     		add	r3, r3, r1
 2003 00d2 03F51063 		add	r3, r3, #2304
 2004 00d6 1946     		mov	r1, r3
 2005              		.loc 1 670 31
 2006 00d8 354B     		ldr	r3, .L105
 2007 00da 1340     		ands	r3, r3, r2
 2008 00dc 0B60     		str	r3, [r1]
 2009 00de 60E0     		b	.L102
 2010              	.L100:
ARM GAS  C:\Users\23671\AppData\Local\Temp\ccHDlRLJ.s 			page 48


 671:Drivers/STM32H7xx_HAL_Driver/Src/stm32h7xx_ll_usb.c ****                                    USB_OTG_DIEPCTL_MPSIZ |
 672:Drivers/STM32H7xx_HAL_Driver/Src/stm32h7xx_ll_usb.c ****                                    USB_OTG_DIEPCTL_TXFNUM |
 673:Drivers/STM32H7xx_HAL_Driver/Src/stm32h7xx_ll_usb.c ****                                    USB_OTG_DIEPCTL_SD0PID_SEVNFRM |
 674:Drivers/STM32H7xx_HAL_Driver/Src/stm32h7xx_ll_usb.c ****                                    USB_OTG_DIEPCTL_EPTYP);
 675:Drivers/STM32H7xx_HAL_Driver/Src/stm32h7xx_ll_usb.c ****   }
 676:Drivers/STM32H7xx_HAL_Driver/Src/stm32h7xx_ll_usb.c ****   else
 677:Drivers/STM32H7xx_HAL_Driver/Src/stm32h7xx_ll_usb.c ****   {
 678:Drivers/STM32H7xx_HAL_Driver/Src/stm32h7xx_ll_usb.c ****     if ((USBx_OUTEP(epnum)->DOEPCTL & USB_OTG_DOEPCTL_EPENA) == USB_OTG_DOEPCTL_EPENA)
 2011              		.loc 1 678 10
 2012 00e0 BB68     		ldr	r3, [r7, #8]
 2013 00e2 5A01     		lsls	r2, r3, #5
 2014 00e4 FB68     		ldr	r3, [r7, #12]
 2015 00e6 1344     		add	r3, r3, r2
 2016 00e8 03F53063 		add	r3, r3, #2816
 2017              		.loc 1 678 27
 2018 00ec 1B68     		ldr	r3, [r3]
 2019              		.loc 1 678 37
 2020 00ee 03F00043 		and	r3, r3, #-2147483648
 2021              		.loc 1 678 8
 2022 00f2 B3F1004F 		cmp	r3, #-2147483648
 2023 00f6 1FD1     		bne	.L103
 679:Drivers/STM32H7xx_HAL_Driver/Src/stm32h7xx_ll_usb.c ****     {
 680:Drivers/STM32H7xx_HAL_Driver/Src/stm32h7xx_ll_usb.c ****       USBx_OUTEP(epnum)->DOEPCTL |= USB_OTG_DOEPCTL_SNAK;
 2024              		.loc 1 680 24
 2025 00f8 BB68     		ldr	r3, [r7, #8]
 2026 00fa 5A01     		lsls	r2, r3, #5
 2027 00fc FB68     		ldr	r3, [r7, #12]
 2028 00fe 1344     		add	r3, r3, r2
 2029 0100 03F53063 		add	r3, r3, #2816
 2030 0104 1B68     		ldr	r3, [r3]
 2031 0106 BA68     		ldr	r2, [r7, #8]
 2032 0108 5101     		lsls	r1, r2, #5
 2033 010a FA68     		ldr	r2, [r7, #12]
 2034 010c 0A44     		add	r2, r2, r1
 2035 010e 02F53062 		add	r2, r2, #2816
 2036              		.loc 1 680 34
 2037 0112 43F00063 		orr	r3, r3, #134217728
 2038 0116 1360     		str	r3, [r2]
 681:Drivers/STM32H7xx_HAL_Driver/Src/stm32h7xx_ll_usb.c ****       USBx_OUTEP(epnum)->DOEPCTL |= USB_OTG_DOEPCTL_EPDIS;
 2039              		.loc 1 681 24
 2040 0118 BB68     		ldr	r3, [r7, #8]
 2041 011a 5A01     		lsls	r2, r3, #5
 2042 011c FB68     		ldr	r3, [r7, #12]
 2043 011e 1344     		add	r3, r3, r2
 2044 0120 03F53063 		add	r3, r3, #2816
 2045 0124 1B68     		ldr	r3, [r3]
 2046 0126 BA68     		ldr	r2, [r7, #8]
 2047 0128 5101     		lsls	r1, r2, #5
 2048 012a FA68     		ldr	r2, [r7, #12]
 2049 012c 0A44     		add	r2, r2, r1
 2050 012e 02F53062 		add	r2, r2, #2816
 2051              		.loc 1 681 34
 2052 0132 43F08043 		orr	r3, r3, #1073741824
 2053 0136 1360     		str	r3, [r2]
 2054              	.L103:
 682:Drivers/STM32H7xx_HAL_Driver/Src/stm32h7xx_ll_usb.c ****     }
 683:Drivers/STM32H7xx_HAL_Driver/Src/stm32h7xx_ll_usb.c **** 
ARM GAS  C:\Users\23671\AppData\Local\Temp\ccHDlRLJ.s 			page 49


 684:Drivers/STM32H7xx_HAL_Driver/Src/stm32h7xx_ll_usb.c ****     USBx_DEVICE->DEACHMSK &= ~(USB_OTG_DAINTMSK_OEPM & ((uint32_t)(1UL << (ep->num & EP_ADDR_MSK)) 
 2055              		.loc 1 684 16
 2056 0138 FB68     		ldr	r3, [r7, #12]
 2057 013a 03F50063 		add	r3, r3, #2048
 2058 013e DA6B     		ldr	r2, [r3, #60]
 2059              		.loc 1 684 78
 2060 0140 3B68     		ldr	r3, [r7]
 2061 0142 1B78     		ldrb	r3, [r3]	@ zero_extendqisi2
 2062              		.loc 1 684 84
 2063 0144 03F00F03 		and	r3, r3, #15
 2064              		.loc 1 684 57
 2065 0148 0121     		movs	r1, #1
 2066 014a 01FA03F3 		lsl	r3, r1, r3
 2067              		.loc 1 684 54
 2068 014e 1B04     		lsls	r3, r3, #16
 2069              		.loc 1 684 30
 2070 0150 DB43     		mvns	r3, r3
 2071              		.loc 1 684 16
 2072 0152 F968     		ldr	r1, [r7, #12]
 2073 0154 01F50061 		add	r1, r1, #2048
 2074              		.loc 1 684 27
 2075 0158 1340     		ands	r3, r3, r2
 2076 015a CB63     		str	r3, [r1, #60]
 685:Drivers/STM32H7xx_HAL_Driver/Src/stm32h7xx_ll_usb.c ****     USBx_DEVICE->DAINTMSK &= ~(USB_OTG_DAINTMSK_OEPM & ((uint32_t)(1UL << (ep->num & EP_ADDR_MSK)) 
 2077              		.loc 1 685 16
 2078 015c FB68     		ldr	r3, [r7, #12]
 2079 015e 03F50063 		add	r3, r3, #2048
 2080 0162 DA69     		ldr	r2, [r3, #28]
 2081              		.loc 1 685 78
 2082 0164 3B68     		ldr	r3, [r7]
 2083 0166 1B78     		ldrb	r3, [r3]	@ zero_extendqisi2
 2084              		.loc 1 685 84
 2085 0168 03F00F03 		and	r3, r3, #15
 2086              		.loc 1 685 57
 2087 016c 0121     		movs	r1, #1
 2088 016e 01FA03F3 		lsl	r3, r1, r3
 2089              		.loc 1 685 54
 2090 0172 1B04     		lsls	r3, r3, #16
 2091              		.loc 1 685 30
 2092 0174 DB43     		mvns	r3, r3
 2093              		.loc 1 685 16
 2094 0176 F968     		ldr	r1, [r7, #12]
 2095 0178 01F50061 		add	r1, r1, #2048
 2096              		.loc 1 685 27
 2097 017c 1340     		ands	r3, r3, r2
 2098 017e CB61     		str	r3, [r1, #28]
 686:Drivers/STM32H7xx_HAL_Driver/Src/stm32h7xx_ll_usb.c ****     USBx_OUTEP(epnum)->DOEPCTL &= ~(USB_OTG_DOEPCTL_USBAEP |
 2099              		.loc 1 686 22
 2100 0180 BB68     		ldr	r3, [r7, #8]
 2101 0182 5A01     		lsls	r2, r3, #5
 2102 0184 FB68     		ldr	r3, [r7, #12]
 2103 0186 1344     		add	r3, r3, r2
 2104 0188 03F53063 		add	r3, r3, #2816
 2105 018c 1A68     		ldr	r2, [r3]
 2106 018e BB68     		ldr	r3, [r7, #8]
 2107 0190 5901     		lsls	r1, r3, #5
 2108 0192 FB68     		ldr	r3, [r7, #12]
ARM GAS  C:\Users\23671\AppData\Local\Temp\ccHDlRLJ.s 			page 50


 2109 0194 0B44     		add	r3, r3, r1
 2110 0196 03F53063 		add	r3, r3, #2816
 2111 019a 1946     		mov	r1, r3
 2112              		.loc 1 686 32
 2113 019c 054B     		ldr	r3, .L105+4
 2114 019e 1340     		ands	r3, r3, r2
 2115 01a0 0B60     		str	r3, [r1]
 2116              	.L102:
 687:Drivers/STM32H7xx_HAL_Driver/Src/stm32h7xx_ll_usb.c ****                                     USB_OTG_DOEPCTL_MPSIZ |
 688:Drivers/STM32H7xx_HAL_Driver/Src/stm32h7xx_ll_usb.c ****                                     USB_OTG_DOEPCTL_SD0PID_SEVNFRM |
 689:Drivers/STM32H7xx_HAL_Driver/Src/stm32h7xx_ll_usb.c ****                                     USB_OTG_DOEPCTL_EPTYP);
 690:Drivers/STM32H7xx_HAL_Driver/Src/stm32h7xx_ll_usb.c ****   }
 691:Drivers/STM32H7xx_HAL_Driver/Src/stm32h7xx_ll_usb.c **** 
 692:Drivers/STM32H7xx_HAL_Driver/Src/stm32h7xx_ll_usb.c ****   return HAL_OK;
 2117              		.loc 1 692 10
 2118 01a2 0023     		movs	r3, #0
 693:Drivers/STM32H7xx_HAL_Driver/Src/stm32h7xx_ll_usb.c **** }
 2119              		.loc 1 693 1
 2120 01a4 1846     		mov	r0, r3
 2121 01a6 1437     		adds	r7, r7, #20
 2122              	.LCFI78:
 2123              		.cfi_def_cfa_offset 4
 2124 01a8 BD46     		mov	sp, r7
 2125              	.LCFI79:
 2126              		.cfi_def_cfa_register 13
 2127              		@ sp needed
 2128 01aa 5DF8047B 		ldr	r7, [sp], #4
 2129              	.LCFI80:
 2130              		.cfi_restore 7
 2131              		.cfi_def_cfa_offset 0
 2132 01ae 7047     		bx	lr
 2133              	.L106:
 2134              		.align	2
 2135              	.L105:
 2136 01b0 007833EC 		.word	-332171264
 2137 01b4 0078F3EF 		.word	-269256704
 2138              		.cfi_endproc
 2139              	.LFE156:
 2141              		.section	.text.USB_DeactivateDedicatedEndpoint,"ax",%progbits
 2142              		.align	1
 2143              		.global	USB_DeactivateDedicatedEndpoint
 2144              		.syntax unified
 2145              		.thumb
 2146              		.thumb_func
 2148              	USB_DeactivateDedicatedEndpoint:
 2149              	.LFB157:
 694:Drivers/STM32H7xx_HAL_Driver/Src/stm32h7xx_ll_usb.c **** 
 695:Drivers/STM32H7xx_HAL_Driver/Src/stm32h7xx_ll_usb.c **** /**
 696:Drivers/STM32H7xx_HAL_Driver/Src/stm32h7xx_ll_usb.c ****   * @brief  De-activate and de-initialize a dedicated endpoint
 697:Drivers/STM32H7xx_HAL_Driver/Src/stm32h7xx_ll_usb.c ****   * @param  USBx  Selected device
 698:Drivers/STM32H7xx_HAL_Driver/Src/stm32h7xx_ll_usb.c ****   * @param  ep pointer to endpoint structure
 699:Drivers/STM32H7xx_HAL_Driver/Src/stm32h7xx_ll_usb.c ****   * @retval HAL status
 700:Drivers/STM32H7xx_HAL_Driver/Src/stm32h7xx_ll_usb.c ****   */
 701:Drivers/STM32H7xx_HAL_Driver/Src/stm32h7xx_ll_usb.c **** HAL_StatusTypeDef USB_DeactivateDedicatedEndpoint(const USB_OTG_GlobalTypeDef *USBx, const USB_OTG_
 702:Drivers/STM32H7xx_HAL_Driver/Src/stm32h7xx_ll_usb.c **** {
 2150              		.loc 1 702 1
 2151              		.cfi_startproc
ARM GAS  C:\Users\23671\AppData\Local\Temp\ccHDlRLJ.s 			page 51


 2152              		@ args = 0, pretend = 0, frame = 16
 2153              		@ frame_needed = 1, uses_anonymous_args = 0
 2154              		@ link register save eliminated.
 2155 0000 80B4     		push	{r7}
 2156              	.LCFI81:
 2157              		.cfi_def_cfa_offset 4
 2158              		.cfi_offset 7, -4
 2159 0002 85B0     		sub	sp, sp, #20
 2160              	.LCFI82:
 2161              		.cfi_def_cfa_offset 24
 2162 0004 00AF     		add	r7, sp, #0
 2163              	.LCFI83:
 2164              		.cfi_def_cfa_register 7
 2165 0006 7860     		str	r0, [r7, #4]
 2166 0008 3960     		str	r1, [r7]
 703:Drivers/STM32H7xx_HAL_Driver/Src/stm32h7xx_ll_usb.c ****   uint32_t USBx_BASE = (uint32_t)USBx;
 2167              		.loc 1 703 12
 2168 000a 7B68     		ldr	r3, [r7, #4]
 2169 000c FB60     		str	r3, [r7, #12]
 704:Drivers/STM32H7xx_HAL_Driver/Src/stm32h7xx_ll_usb.c ****   uint32_t epnum = (uint32_t)ep->num;
 2170              		.loc 1 704 32
 2171 000e 3B68     		ldr	r3, [r7]
 2172 0010 1B78     		ldrb	r3, [r3]	@ zero_extendqisi2
 2173              		.loc 1 704 12
 2174 0012 BB60     		str	r3, [r7, #8]
 705:Drivers/STM32H7xx_HAL_Driver/Src/stm32h7xx_ll_usb.c **** 
 706:Drivers/STM32H7xx_HAL_Driver/Src/stm32h7xx_ll_usb.c ****   /* Read DEPCTLn register */
 707:Drivers/STM32H7xx_HAL_Driver/Src/stm32h7xx_ll_usb.c ****   if (ep->is_in == 1U)
 2175              		.loc 1 707 9
 2176 0014 3B68     		ldr	r3, [r7]
 2177 0016 5B78     		ldrb	r3, [r3, #1]	@ zero_extendqisi2
 2178              		.loc 1 707 6
 2179 0018 012B     		cmp	r3, #1
 2180 001a 4ED1     		bne	.L108
 708:Drivers/STM32H7xx_HAL_Driver/Src/stm32h7xx_ll_usb.c ****   {
 709:Drivers/STM32H7xx_HAL_Driver/Src/stm32h7xx_ll_usb.c ****     if ((USBx_INEP(epnum)->DIEPCTL & USB_OTG_DIEPCTL_EPENA) == USB_OTG_DIEPCTL_EPENA)
 2181              		.loc 1 709 10
 2182 001c BB68     		ldr	r3, [r7, #8]
 2183 001e 5A01     		lsls	r2, r3, #5
 2184 0020 FB68     		ldr	r3, [r7, #12]
 2185 0022 1344     		add	r3, r3, r2
 2186 0024 03F51063 		add	r3, r3, #2304
 2187              		.loc 1 709 26
 2188 0028 1B68     		ldr	r3, [r3]
 2189              		.loc 1 709 36
 2190 002a 03F00043 		and	r3, r3, #-2147483648
 2191              		.loc 1 709 8
 2192 002e B3F1004F 		cmp	r3, #-2147483648
 2193 0032 1FD1     		bne	.L109
 710:Drivers/STM32H7xx_HAL_Driver/Src/stm32h7xx_ll_usb.c ****     {
 711:Drivers/STM32H7xx_HAL_Driver/Src/stm32h7xx_ll_usb.c ****       USBx_INEP(epnum)->DIEPCTL  |= USB_OTG_DIEPCTL_SNAK;
 2194              		.loc 1 711 23
 2195 0034 BB68     		ldr	r3, [r7, #8]
 2196 0036 5A01     		lsls	r2, r3, #5
 2197 0038 FB68     		ldr	r3, [r7, #12]
 2198 003a 1344     		add	r3, r3, r2
 2199 003c 03F51063 		add	r3, r3, #2304
ARM GAS  C:\Users\23671\AppData\Local\Temp\ccHDlRLJ.s 			page 52


 2200 0040 1B68     		ldr	r3, [r3]
 2201 0042 BA68     		ldr	r2, [r7, #8]
 2202 0044 5101     		lsls	r1, r2, #5
 2203 0046 FA68     		ldr	r2, [r7, #12]
 2204 0048 0A44     		add	r2, r2, r1
 2205 004a 02F51062 		add	r2, r2, #2304
 2206              		.loc 1 711 34
 2207 004e 43F00063 		orr	r3, r3, #134217728
 2208 0052 1360     		str	r3, [r2]
 712:Drivers/STM32H7xx_HAL_Driver/Src/stm32h7xx_ll_usb.c ****       USBx_INEP(epnum)->DIEPCTL  |= USB_OTG_DIEPCTL_EPDIS;
 2209              		.loc 1 712 23
 2210 0054 BB68     		ldr	r3, [r7, #8]
 2211 0056 5A01     		lsls	r2, r3, #5
 2212 0058 FB68     		ldr	r3, [r7, #12]
 2213 005a 1344     		add	r3, r3, r2
 2214 005c 03F51063 		add	r3, r3, #2304
 2215 0060 1B68     		ldr	r3, [r3]
 2216 0062 BA68     		ldr	r2, [r7, #8]
 2217 0064 5101     		lsls	r1, r2, #5
 2218 0066 FA68     		ldr	r2, [r7, #12]
 2219 0068 0A44     		add	r2, r2, r1
 2220 006a 02F51062 		add	r2, r2, #2304
 2221              		.loc 1 712 34
 2222 006e 43F08043 		orr	r3, r3, #1073741824
 2223 0072 1360     		str	r3, [r2]
 2224              	.L109:
 713:Drivers/STM32H7xx_HAL_Driver/Src/stm32h7xx_ll_usb.c ****     }
 714:Drivers/STM32H7xx_HAL_Driver/Src/stm32h7xx_ll_usb.c **** 
 715:Drivers/STM32H7xx_HAL_Driver/Src/stm32h7xx_ll_usb.c ****     USBx_INEP(epnum)->DIEPCTL &= ~ USB_OTG_DIEPCTL_USBAEP;
 2225              		.loc 1 715 21
 2226 0074 BB68     		ldr	r3, [r7, #8]
 2227 0076 5A01     		lsls	r2, r3, #5
 2228 0078 FB68     		ldr	r3, [r7, #12]
 2229 007a 1344     		add	r3, r3, r2
 2230 007c 03F51063 		add	r3, r3, #2304
 2231 0080 1B68     		ldr	r3, [r3]
 2232 0082 BA68     		ldr	r2, [r7, #8]
 2233 0084 5101     		lsls	r1, r2, #5
 2234 0086 FA68     		ldr	r2, [r7, #12]
 2235 0088 0A44     		add	r2, r2, r1
 2236 008a 02F51062 		add	r2, r2, #2304
 2237              		.loc 1 715 31
 2238 008e 23F40043 		bic	r3, r3, #32768
 2239 0092 1360     		str	r3, [r2]
 716:Drivers/STM32H7xx_HAL_Driver/Src/stm32h7xx_ll_usb.c ****     USBx_DEVICE->DAINTMSK &= ~(USB_OTG_DAINTMSK_IEPM & (uint32_t)(1UL << (ep->num & EP_ADDR_MSK)));
 2240              		.loc 1 716 16
 2241 0094 FB68     		ldr	r3, [r7, #12]
 2242 0096 03F50063 		add	r3, r3, #2048
 2243 009a DA69     		ldr	r2, [r3, #28]
 2244              		.loc 1 716 77
 2245 009c 3B68     		ldr	r3, [r7]
 2246 009e 1B78     		ldrb	r3, [r3]	@ zero_extendqisi2
 2247              		.loc 1 716 83
 2248 00a0 03F00F03 		and	r3, r3, #15
 2249              		.loc 1 716 56
 2250 00a4 0121     		movs	r1, #1
 2251 00a6 01FA03F3 		lsl	r3, r1, r3
ARM GAS  C:\Users\23671\AppData\Local\Temp\ccHDlRLJ.s 			page 53


 2252              		.loc 1 716 54
 2253 00aa 9BB2     		uxth	r3, r3
 2254              		.loc 1 716 30
 2255 00ac DB43     		mvns	r3, r3
 2256              		.loc 1 716 16
 2257 00ae F968     		ldr	r1, [r7, #12]
 2258 00b0 01F50061 		add	r1, r1, #2048
 2259              		.loc 1 716 27
 2260 00b4 1340     		ands	r3, r3, r2
 2261 00b6 CB61     		str	r3, [r1, #28]
 2262 00b8 4DE0     		b	.L110
 2263              	.L108:
 717:Drivers/STM32H7xx_HAL_Driver/Src/stm32h7xx_ll_usb.c ****   }
 718:Drivers/STM32H7xx_HAL_Driver/Src/stm32h7xx_ll_usb.c ****   else
 719:Drivers/STM32H7xx_HAL_Driver/Src/stm32h7xx_ll_usb.c ****   {
 720:Drivers/STM32H7xx_HAL_Driver/Src/stm32h7xx_ll_usb.c ****     if ((USBx_OUTEP(epnum)->DOEPCTL & USB_OTG_DOEPCTL_EPENA) == USB_OTG_DOEPCTL_EPENA)
 2264              		.loc 1 720 10
 2265 00ba BB68     		ldr	r3, [r7, #8]
 2266 00bc 5A01     		lsls	r2, r3, #5
 2267 00be FB68     		ldr	r3, [r7, #12]
 2268 00c0 1344     		add	r3, r3, r2
 2269 00c2 03F53063 		add	r3, r3, #2816
 2270              		.loc 1 720 27
 2271 00c6 1B68     		ldr	r3, [r3]
 2272              		.loc 1 720 37
 2273 00c8 03F00043 		and	r3, r3, #-2147483648
 2274              		.loc 1 720 8
 2275 00cc B3F1004F 		cmp	r3, #-2147483648
 2276 00d0 1FD1     		bne	.L111
 721:Drivers/STM32H7xx_HAL_Driver/Src/stm32h7xx_ll_usb.c ****     {
 722:Drivers/STM32H7xx_HAL_Driver/Src/stm32h7xx_ll_usb.c ****       USBx_OUTEP(epnum)->DOEPCTL  |= USB_OTG_DOEPCTL_SNAK;
 2277              		.loc 1 722 24
 2278 00d2 BB68     		ldr	r3, [r7, #8]
 2279 00d4 5A01     		lsls	r2, r3, #5
 2280 00d6 FB68     		ldr	r3, [r7, #12]
 2281 00d8 1344     		add	r3, r3, r2
 2282 00da 03F53063 		add	r3, r3, #2816
 2283 00de 1B68     		ldr	r3, [r3]
 2284 00e0 BA68     		ldr	r2, [r7, #8]
 2285 00e2 5101     		lsls	r1, r2, #5
 2286 00e4 FA68     		ldr	r2, [r7, #12]
 2287 00e6 0A44     		add	r2, r2, r1
 2288 00e8 02F53062 		add	r2, r2, #2816
 2289              		.loc 1 722 35
 2290 00ec 43F00063 		orr	r3, r3, #134217728
 2291 00f0 1360     		str	r3, [r2]
 723:Drivers/STM32H7xx_HAL_Driver/Src/stm32h7xx_ll_usb.c ****       USBx_OUTEP(epnum)->DOEPCTL  |= USB_OTG_DOEPCTL_EPDIS;
 2292              		.loc 1 723 24
 2293 00f2 BB68     		ldr	r3, [r7, #8]
 2294 00f4 5A01     		lsls	r2, r3, #5
 2295 00f6 FB68     		ldr	r3, [r7, #12]
 2296 00f8 1344     		add	r3, r3, r2
 2297 00fa 03F53063 		add	r3, r3, #2816
 2298 00fe 1B68     		ldr	r3, [r3]
 2299 0100 BA68     		ldr	r2, [r7, #8]
 2300 0102 5101     		lsls	r1, r2, #5
 2301 0104 FA68     		ldr	r2, [r7, #12]
ARM GAS  C:\Users\23671\AppData\Local\Temp\ccHDlRLJ.s 			page 54


 2302 0106 0A44     		add	r2, r2, r1
 2303 0108 02F53062 		add	r2, r2, #2816
 2304              		.loc 1 723 35
 2305 010c 43F08043 		orr	r3, r3, #1073741824
 2306 0110 1360     		str	r3, [r2]
 2307              	.L111:
 724:Drivers/STM32H7xx_HAL_Driver/Src/stm32h7xx_ll_usb.c ****     }
 725:Drivers/STM32H7xx_HAL_Driver/Src/stm32h7xx_ll_usb.c **** 
 726:Drivers/STM32H7xx_HAL_Driver/Src/stm32h7xx_ll_usb.c ****     USBx_OUTEP(epnum)->DOEPCTL &= ~USB_OTG_DOEPCTL_USBAEP;
 2308              		.loc 1 726 22
 2309 0112 BB68     		ldr	r3, [r7, #8]
 2310 0114 5A01     		lsls	r2, r3, #5
 2311 0116 FB68     		ldr	r3, [r7, #12]
 2312 0118 1344     		add	r3, r3, r2
 2313 011a 03F53063 		add	r3, r3, #2816
 2314 011e 1B68     		ldr	r3, [r3]
 2315 0120 BA68     		ldr	r2, [r7, #8]
 2316 0122 5101     		lsls	r1, r2, #5
 2317 0124 FA68     		ldr	r2, [r7, #12]
 2318 0126 0A44     		add	r2, r2, r1
 2319 0128 02F53062 		add	r2, r2, #2816
 2320              		.loc 1 726 32
 2321 012c 23F40043 		bic	r3, r3, #32768
 2322 0130 1360     		str	r3, [r2]
 727:Drivers/STM32H7xx_HAL_Driver/Src/stm32h7xx_ll_usb.c ****     USBx_DEVICE->DAINTMSK &= ~(USB_OTG_DAINTMSK_OEPM & ((uint32_t)(1UL << (ep->num & EP_ADDR_MSK)) 
 2323              		.loc 1 727 16
 2324 0132 FB68     		ldr	r3, [r7, #12]
 2325 0134 03F50063 		add	r3, r3, #2048
 2326 0138 DA69     		ldr	r2, [r3, #28]
 2327              		.loc 1 727 78
 2328 013a 3B68     		ldr	r3, [r7]
 2329 013c 1B78     		ldrb	r3, [r3]	@ zero_extendqisi2
 2330              		.loc 1 727 84
 2331 013e 03F00F03 		and	r3, r3, #15
 2332              		.loc 1 727 57
 2333 0142 0121     		movs	r1, #1
 2334 0144 01FA03F3 		lsl	r3, r1, r3
 2335              		.loc 1 727 54
 2336 0148 1B04     		lsls	r3, r3, #16
 2337              		.loc 1 727 30
 2338 014a DB43     		mvns	r3, r3
 2339              		.loc 1 727 16
 2340 014c F968     		ldr	r1, [r7, #12]
 2341 014e 01F50061 		add	r1, r1, #2048
 2342              		.loc 1 727 27
 2343 0152 1340     		ands	r3, r3, r2
 2344 0154 CB61     		str	r3, [r1, #28]
 2345              	.L110:
 728:Drivers/STM32H7xx_HAL_Driver/Src/stm32h7xx_ll_usb.c ****   }
 729:Drivers/STM32H7xx_HAL_Driver/Src/stm32h7xx_ll_usb.c **** 
 730:Drivers/STM32H7xx_HAL_Driver/Src/stm32h7xx_ll_usb.c ****   return HAL_OK;
 2346              		.loc 1 730 10
 2347 0156 0023     		movs	r3, #0
 731:Drivers/STM32H7xx_HAL_Driver/Src/stm32h7xx_ll_usb.c **** }
 2348              		.loc 1 731 1
 2349 0158 1846     		mov	r0, r3
 2350 015a 1437     		adds	r7, r7, #20
ARM GAS  C:\Users\23671\AppData\Local\Temp\ccHDlRLJ.s 			page 55


 2351              	.LCFI84:
 2352              		.cfi_def_cfa_offset 4
 2353 015c BD46     		mov	sp, r7
 2354              	.LCFI85:
 2355              		.cfi_def_cfa_register 13
 2356              		@ sp needed
 2357 015e 5DF8047B 		ldr	r7, [sp], #4
 2358              	.LCFI86:
 2359              		.cfi_restore 7
 2360              		.cfi_def_cfa_offset 0
 2361 0162 7047     		bx	lr
 2362              		.cfi_endproc
 2363              	.LFE157:
 2365              		.section	.text.USB_EPStartXfer,"ax",%progbits
 2366              		.align	1
 2367              		.global	USB_EPStartXfer
 2368              		.syntax unified
 2369              		.thumb
 2370              		.thumb_func
 2372              	USB_EPStartXfer:
 2373              	.LFB158:
 732:Drivers/STM32H7xx_HAL_Driver/Src/stm32h7xx_ll_usb.c **** 
 733:Drivers/STM32H7xx_HAL_Driver/Src/stm32h7xx_ll_usb.c **** /**
 734:Drivers/STM32H7xx_HAL_Driver/Src/stm32h7xx_ll_usb.c ****   * @brief  USB_EPStartXfer : setup and starts a transfer over an EP
 735:Drivers/STM32H7xx_HAL_Driver/Src/stm32h7xx_ll_usb.c ****   * @param  USBx  Selected device
 736:Drivers/STM32H7xx_HAL_Driver/Src/stm32h7xx_ll_usb.c ****   * @param  ep pointer to endpoint structure
 737:Drivers/STM32H7xx_HAL_Driver/Src/stm32h7xx_ll_usb.c ****   * @param  dma USB dma enabled or disabled
 738:Drivers/STM32H7xx_HAL_Driver/Src/stm32h7xx_ll_usb.c ****   *          This parameter can be one of these values:
 739:Drivers/STM32H7xx_HAL_Driver/Src/stm32h7xx_ll_usb.c ****   *           0 : DMA feature not used
 740:Drivers/STM32H7xx_HAL_Driver/Src/stm32h7xx_ll_usb.c ****   *           1 : DMA feature used
 741:Drivers/STM32H7xx_HAL_Driver/Src/stm32h7xx_ll_usb.c ****   * @retval HAL status
 742:Drivers/STM32H7xx_HAL_Driver/Src/stm32h7xx_ll_usb.c ****   */
 743:Drivers/STM32H7xx_HAL_Driver/Src/stm32h7xx_ll_usb.c **** HAL_StatusTypeDef USB_EPStartXfer(USB_OTG_GlobalTypeDef *USBx, USB_OTG_EPTypeDef *ep, uint8_t dma)
 744:Drivers/STM32H7xx_HAL_Driver/Src/stm32h7xx_ll_usb.c **** {
 2374              		.loc 1 744 1
 2375              		.cfi_startproc
 2376              		@ args = 0, pretend = 0, frame = 32
 2377              		@ frame_needed = 1, uses_anonymous_args = 0
 2378 0000 80B5     		push	{r7, lr}
 2379              	.LCFI87:
 2380              		.cfi_def_cfa_offset 8
 2381              		.cfi_offset 7, -8
 2382              		.cfi_offset 14, -4
 2383 0002 8AB0     		sub	sp, sp, #40
 2384              	.LCFI88:
 2385              		.cfi_def_cfa_offset 48
 2386 0004 02AF     		add	r7, sp, #8
 2387              	.LCFI89:
 2388              		.cfi_def_cfa 7, 40
 2389 0006 F860     		str	r0, [r7, #12]
 2390 0008 B960     		str	r1, [r7, #8]
 2391 000a 1346     		mov	r3, r2
 2392 000c FB71     		strb	r3, [r7, #7]
 745:Drivers/STM32H7xx_HAL_Driver/Src/stm32h7xx_ll_usb.c ****   uint32_t USBx_BASE = (uint32_t)USBx;
 2393              		.loc 1 745 12
 2394 000e FB68     		ldr	r3, [r7, #12]
 2395 0010 FB61     		str	r3, [r7, #28]
ARM GAS  C:\Users\23671\AppData\Local\Temp\ccHDlRLJ.s 			page 56


 746:Drivers/STM32H7xx_HAL_Driver/Src/stm32h7xx_ll_usb.c ****   uint32_t epnum = (uint32_t)ep->num;
 2396              		.loc 1 746 32
 2397 0012 BB68     		ldr	r3, [r7, #8]
 2398 0014 1B78     		ldrb	r3, [r3]	@ zero_extendqisi2
 2399              		.loc 1 746 12
 2400 0016 BB61     		str	r3, [r7, #24]
 747:Drivers/STM32H7xx_HAL_Driver/Src/stm32h7xx_ll_usb.c ****   uint16_t pktcnt;
 748:Drivers/STM32H7xx_HAL_Driver/Src/stm32h7xx_ll_usb.c **** 
 749:Drivers/STM32H7xx_HAL_Driver/Src/stm32h7xx_ll_usb.c ****   /* IN endpoint */
 750:Drivers/STM32H7xx_HAL_Driver/Src/stm32h7xx_ll_usb.c ****   if (ep->is_in == 1U)
 2401              		.loc 1 750 9
 2402 0018 BB68     		ldr	r3, [r7, #8]
 2403 001a 5B78     		ldrb	r3, [r3, #1]	@ zero_extendqisi2
 2404              		.loc 1 750 6
 2405 001c 012B     		cmp	r3, #1
 2406 001e 40F08581 		bne	.L114
 751:Drivers/STM32H7xx_HAL_Driver/Src/stm32h7xx_ll_usb.c ****   {
 752:Drivers/STM32H7xx_HAL_Driver/Src/stm32h7xx_ll_usb.c ****     /* Zero Length Packet? */
 753:Drivers/STM32H7xx_HAL_Driver/Src/stm32h7xx_ll_usb.c ****     if (ep->xfer_len == 0U)
 2407              		.loc 1 753 11
 2408 0022 BB68     		ldr	r3, [r7, #8]
 2409 0024 1B69     		ldr	r3, [r3, #16]
 2410              		.loc 1 753 8
 2411 0026 002B     		cmp	r3, #0
 2412 0028 32D1     		bne	.L115
 754:Drivers/STM32H7xx_HAL_Driver/Src/stm32h7xx_ll_usb.c ****     {
 755:Drivers/STM32H7xx_HAL_Driver/Src/stm32h7xx_ll_usb.c ****       USBx_INEP(epnum)->DIEPTSIZ &= ~(USB_OTG_DIEPTSIZ_PKTCNT);
 2413              		.loc 1 755 23
 2414 002a BB69     		ldr	r3, [r7, #24]
 2415 002c 5A01     		lsls	r2, r3, #5
 2416 002e FB69     		ldr	r3, [r7, #28]
 2417 0030 1344     		add	r3, r3, r2
 2418 0032 03F51063 		add	r3, r3, #2304
 2419 0036 1A69     		ldr	r2, [r3, #16]
 2420 0038 BB69     		ldr	r3, [r7, #24]
 2421 003a 5901     		lsls	r1, r3, #5
 2422 003c FB69     		ldr	r3, [r7, #28]
 2423 003e 0B44     		add	r3, r3, r1
 2424 0040 03F51063 		add	r3, r3, #2304
 2425 0044 1946     		mov	r1, r3
 2426              		.loc 1 755 34
 2427 0046 A74B     		ldr	r3, .L136
 2428 0048 1340     		ands	r3, r3, r2
 2429 004a 0B61     		str	r3, [r1, #16]
 756:Drivers/STM32H7xx_HAL_Driver/Src/stm32h7xx_ll_usb.c ****       USBx_INEP(epnum)->DIEPTSIZ |= (USB_OTG_DIEPTSIZ_PKTCNT & (1U << 19));
 2430              		.loc 1 756 23
 2431 004c BB69     		ldr	r3, [r7, #24]
 2432 004e 5A01     		lsls	r2, r3, #5
 2433 0050 FB69     		ldr	r3, [r7, #28]
 2434 0052 1344     		add	r3, r3, r2
 2435 0054 03F51063 		add	r3, r3, #2304
 2436 0058 1B69     		ldr	r3, [r3, #16]
 2437 005a BA69     		ldr	r2, [r7, #24]
 2438 005c 5101     		lsls	r1, r2, #5
 2439 005e FA69     		ldr	r2, [r7, #28]
 2440 0060 0A44     		add	r2, r2, r1
 2441 0062 02F51062 		add	r2, r2, #2304
ARM GAS  C:\Users\23671\AppData\Local\Temp\ccHDlRLJ.s 			page 57


 2442              		.loc 1 756 34
 2443 0066 43F40023 		orr	r3, r3, #524288
 2444 006a 1361     		str	r3, [r2, #16]
 757:Drivers/STM32H7xx_HAL_Driver/Src/stm32h7xx_ll_usb.c ****       USBx_INEP(epnum)->DIEPTSIZ &= ~(USB_OTG_DIEPTSIZ_XFRSIZ);
 2445              		.loc 1 757 23
 2446 006c BB69     		ldr	r3, [r7, #24]
 2447 006e 5A01     		lsls	r2, r3, #5
 2448 0070 FB69     		ldr	r3, [r7, #28]
 2449 0072 1344     		add	r3, r3, r2
 2450 0074 03F51063 		add	r3, r3, #2304
 2451 0078 1A69     		ldr	r2, [r3, #16]
 2452 007a BB69     		ldr	r3, [r7, #24]
 2453 007c 5901     		lsls	r1, r3, #5
 2454 007e FB69     		ldr	r3, [r7, #28]
 2455 0080 0B44     		add	r3, r3, r1
 2456 0082 03F51063 		add	r3, r3, #2304
 2457 0086 1946     		mov	r1, r3
 2458              		.loc 1 757 34
 2459 0088 974B     		ldr	r3, .L136+4
 2460 008a 1340     		ands	r3, r3, r2
 2461 008c 0B61     		str	r3, [r1, #16]
 2462 008e 97E0     		b	.L116
 2463              	.L115:
 758:Drivers/STM32H7xx_HAL_Driver/Src/stm32h7xx_ll_usb.c ****     }
 759:Drivers/STM32H7xx_HAL_Driver/Src/stm32h7xx_ll_usb.c ****     else
 760:Drivers/STM32H7xx_HAL_Driver/Src/stm32h7xx_ll_usb.c ****     {
 761:Drivers/STM32H7xx_HAL_Driver/Src/stm32h7xx_ll_usb.c ****       /* Program the transfer size and packet count
 762:Drivers/STM32H7xx_HAL_Driver/Src/stm32h7xx_ll_usb.c ****       * as follows: xfersize = N * maxpacket +
 763:Drivers/STM32H7xx_HAL_Driver/Src/stm32h7xx_ll_usb.c ****       * short_packet pktcnt = N + (short_packet
 764:Drivers/STM32H7xx_HAL_Driver/Src/stm32h7xx_ll_usb.c ****       * exist ? 1 : 0)
 765:Drivers/STM32H7xx_HAL_Driver/Src/stm32h7xx_ll_usb.c ****       */
 766:Drivers/STM32H7xx_HAL_Driver/Src/stm32h7xx_ll_usb.c ****       USBx_INEP(epnum)->DIEPTSIZ &= ~(USB_OTG_DIEPTSIZ_XFRSIZ);
 2464              		.loc 1 766 23
 2465 0090 BB69     		ldr	r3, [r7, #24]
 2466 0092 5A01     		lsls	r2, r3, #5
 2467 0094 FB69     		ldr	r3, [r7, #28]
 2468 0096 1344     		add	r3, r3, r2
 2469 0098 03F51063 		add	r3, r3, #2304
 2470 009c 1A69     		ldr	r2, [r3, #16]
 2471 009e BB69     		ldr	r3, [r7, #24]
 2472 00a0 5901     		lsls	r1, r3, #5
 2473 00a2 FB69     		ldr	r3, [r7, #28]
 2474 00a4 0B44     		add	r3, r3, r1
 2475 00a6 03F51063 		add	r3, r3, #2304
 2476 00aa 1946     		mov	r1, r3
 2477              		.loc 1 766 34
 2478 00ac 8E4B     		ldr	r3, .L136+4
 2479 00ae 1340     		ands	r3, r3, r2
 2480 00b0 0B61     		str	r3, [r1, #16]
 767:Drivers/STM32H7xx_HAL_Driver/Src/stm32h7xx_ll_usb.c ****       USBx_INEP(epnum)->DIEPTSIZ &= ~(USB_OTG_DIEPTSIZ_PKTCNT);
 2481              		.loc 1 767 23
 2482 00b2 BB69     		ldr	r3, [r7, #24]
 2483 00b4 5A01     		lsls	r2, r3, #5
 2484 00b6 FB69     		ldr	r3, [r7, #28]
 2485 00b8 1344     		add	r3, r3, r2
 2486 00ba 03F51063 		add	r3, r3, #2304
 2487 00be 1A69     		ldr	r2, [r3, #16]
ARM GAS  C:\Users\23671\AppData\Local\Temp\ccHDlRLJ.s 			page 58


 2488 00c0 BB69     		ldr	r3, [r7, #24]
 2489 00c2 5901     		lsls	r1, r3, #5
 2490 00c4 FB69     		ldr	r3, [r7, #28]
 2491 00c6 0B44     		add	r3, r3, r1
 2492 00c8 03F51063 		add	r3, r3, #2304
 2493 00cc 1946     		mov	r1, r3
 2494              		.loc 1 767 34
 2495 00ce 854B     		ldr	r3, .L136
 2496 00d0 1340     		ands	r3, r3, r2
 2497 00d2 0B61     		str	r3, [r1, #16]
 768:Drivers/STM32H7xx_HAL_Driver/Src/stm32h7xx_ll_usb.c **** 
 769:Drivers/STM32H7xx_HAL_Driver/Src/stm32h7xx_ll_usb.c ****       if (epnum == 0U)
 2498              		.loc 1 769 10
 2499 00d4 BB69     		ldr	r3, [r7, #24]
 2500 00d6 002B     		cmp	r3, #0
 2501 00d8 1AD1     		bne	.L117
 770:Drivers/STM32H7xx_HAL_Driver/Src/stm32h7xx_ll_usb.c ****       {
 771:Drivers/STM32H7xx_HAL_Driver/Src/stm32h7xx_ll_usb.c ****         if (ep->xfer_len > ep->maxpacket)
 2502              		.loc 1 771 15
 2503 00da BB68     		ldr	r3, [r7, #8]
 2504 00dc 1A69     		ldr	r2, [r3, #16]
 2505              		.loc 1 771 30
 2506 00de BB68     		ldr	r3, [r7, #8]
 2507 00e0 9B68     		ldr	r3, [r3, #8]
 2508              		.loc 1 771 12
 2509 00e2 9A42     		cmp	r2, r3
 2510 00e4 03D9     		bls	.L118
 772:Drivers/STM32H7xx_HAL_Driver/Src/stm32h7xx_ll_usb.c ****         {
 773:Drivers/STM32H7xx_HAL_Driver/Src/stm32h7xx_ll_usb.c ****           ep->xfer_len = ep->maxpacket;
 2511              		.loc 1 773 28
 2512 00e6 BB68     		ldr	r3, [r7, #8]
 2513 00e8 9A68     		ldr	r2, [r3, #8]
 2514              		.loc 1 773 24
 2515 00ea BB68     		ldr	r3, [r7, #8]
 2516 00ec 1A61     		str	r2, [r3, #16]
 2517              	.L118:
 774:Drivers/STM32H7xx_HAL_Driver/Src/stm32h7xx_ll_usb.c ****         }
 775:Drivers/STM32H7xx_HAL_Driver/Src/stm32h7xx_ll_usb.c **** 
 776:Drivers/STM32H7xx_HAL_Driver/Src/stm32h7xx_ll_usb.c ****         USBx_INEP(epnum)->DIEPTSIZ |= (USB_OTG_DIEPTSIZ_PKTCNT & (1U << 19));
 2518              		.loc 1 776 25
 2519 00ee BB69     		ldr	r3, [r7, #24]
 2520 00f0 5A01     		lsls	r2, r3, #5
 2521 00f2 FB69     		ldr	r3, [r7, #28]
 2522 00f4 1344     		add	r3, r3, r2
 2523 00f6 03F51063 		add	r3, r3, #2304
 2524 00fa 1B69     		ldr	r3, [r3, #16]
 2525 00fc BA69     		ldr	r2, [r7, #24]
 2526 00fe 5101     		lsls	r1, r2, #5
 2527 0100 FA69     		ldr	r2, [r7, #28]
 2528 0102 0A44     		add	r2, r2, r1
 2529 0104 02F51062 		add	r2, r2, #2304
 2530              		.loc 1 776 36
 2531 0108 43F40023 		orr	r3, r3, #524288
 2532 010c 1361     		str	r3, [r2, #16]
 2533 010e 44E0     		b	.L119
 2534              	.L117:
 777:Drivers/STM32H7xx_HAL_Driver/Src/stm32h7xx_ll_usb.c ****       }
ARM GAS  C:\Users\23671\AppData\Local\Temp\ccHDlRLJ.s 			page 59


 778:Drivers/STM32H7xx_HAL_Driver/Src/stm32h7xx_ll_usb.c ****       else
 779:Drivers/STM32H7xx_HAL_Driver/Src/stm32h7xx_ll_usb.c ****       {
 780:Drivers/STM32H7xx_HAL_Driver/Src/stm32h7xx_ll_usb.c ****         pktcnt = (uint16_t)((ep->xfer_len + ep->maxpacket - 1U) / ep->maxpacket);
 2535              		.loc 1 780 32
 2536 0110 BB68     		ldr	r3, [r7, #8]
 2537 0112 1A69     		ldr	r2, [r3, #16]
 2538              		.loc 1 780 47
 2539 0114 BB68     		ldr	r3, [r7, #8]
 2540 0116 9B68     		ldr	r3, [r3, #8]
 2541              		.loc 1 780 43
 2542 0118 1344     		add	r3, r3, r2
 2543              		.loc 1 780 59
 2544 011a 5A1E     		subs	r2, r3, #1
 2545              		.loc 1 780 69
 2546 011c BB68     		ldr	r3, [r7, #8]
 2547 011e 9B68     		ldr	r3, [r3, #8]
 2548              		.loc 1 780 65
 2549 0120 B2FBF3F3 		udiv	r3, r2, r3
 2550              		.loc 1 780 16
 2551 0124 FB82     		strh	r3, [r7, #22]	@ movhi
 781:Drivers/STM32H7xx_HAL_Driver/Src/stm32h7xx_ll_usb.c ****         USBx_INEP(epnum)->DIEPTSIZ |= (USB_OTG_DIEPTSIZ_PKTCNT & ((uint32_t)pktcnt << 19));
 2552              		.loc 1 781 25
 2553 0126 BB69     		ldr	r3, [r7, #24]
 2554 0128 5A01     		lsls	r2, r3, #5
 2555 012a FB69     		ldr	r3, [r7, #28]
 2556 012c 1344     		add	r3, r3, r2
 2557 012e 03F51063 		add	r3, r3, #2304
 2558 0132 1A69     		ldr	r2, [r3, #16]
 2559              		.loc 1 781 67
 2560 0134 FB8A     		ldrh	r3, [r7, #22]
 2561              		.loc 1 781 84
 2562 0136 D904     		lsls	r1, r3, #19
 2563              		.loc 1 781 64
 2564 0138 6C4B     		ldr	r3, .L136+8
 2565 013a 0B40     		ands	r3, r3, r1
 2566              		.loc 1 781 25
 2567 013c B969     		ldr	r1, [r7, #24]
 2568 013e 4801     		lsls	r0, r1, #5
 2569 0140 F969     		ldr	r1, [r7, #28]
 2570 0142 0144     		add	r1, r1, r0
 2571 0144 01F51061 		add	r1, r1, #2304
 2572              		.loc 1 781 36
 2573 0148 1343     		orrs	r3, r3, r2
 2574 014a 0B61     		str	r3, [r1, #16]
 782:Drivers/STM32H7xx_HAL_Driver/Src/stm32h7xx_ll_usb.c **** 
 783:Drivers/STM32H7xx_HAL_Driver/Src/stm32h7xx_ll_usb.c ****         if (ep->type == EP_TYPE_ISOC)
 2575              		.loc 1 783 15
 2576 014c BB68     		ldr	r3, [r7, #8]
 2577 014e 1B79     		ldrb	r3, [r3, #4]	@ zero_extendqisi2
 2578              		.loc 1 783 12
 2579 0150 012B     		cmp	r3, #1
 2580 0152 22D1     		bne	.L119
 784:Drivers/STM32H7xx_HAL_Driver/Src/stm32h7xx_ll_usb.c ****         {
 785:Drivers/STM32H7xx_HAL_Driver/Src/stm32h7xx_ll_usb.c ****           USBx_INEP(epnum)->DIEPTSIZ &= ~(USB_OTG_DIEPTSIZ_MULCNT);
 2581              		.loc 1 785 27
 2582 0154 BB69     		ldr	r3, [r7, #24]
 2583 0156 5A01     		lsls	r2, r3, #5
ARM GAS  C:\Users\23671\AppData\Local\Temp\ccHDlRLJ.s 			page 60


 2584 0158 FB69     		ldr	r3, [r7, #28]
 2585 015a 1344     		add	r3, r3, r2
 2586 015c 03F51063 		add	r3, r3, #2304
 2587 0160 1B69     		ldr	r3, [r3, #16]
 2588 0162 BA69     		ldr	r2, [r7, #24]
 2589 0164 5101     		lsls	r1, r2, #5
 2590 0166 FA69     		ldr	r2, [r7, #28]
 2591 0168 0A44     		add	r2, r2, r1
 2592 016a 02F51062 		add	r2, r2, #2304
 2593              		.loc 1 785 38
 2594 016e 23F0C043 		bic	r3, r3, #1610612736
 2595 0172 1361     		str	r3, [r2, #16]
 786:Drivers/STM32H7xx_HAL_Driver/Src/stm32h7xx_ll_usb.c ****           USBx_INEP(epnum)->DIEPTSIZ |= (USB_OTG_DIEPTSIZ_MULCNT & ((uint32_t)pktcnt << 29));
 2596              		.loc 1 786 27
 2597 0174 BB69     		ldr	r3, [r7, #24]
 2598 0176 5A01     		lsls	r2, r3, #5
 2599 0178 FB69     		ldr	r3, [r7, #28]
 2600 017a 1344     		add	r3, r3, r2
 2601 017c 03F51063 		add	r3, r3, #2304
 2602 0180 1A69     		ldr	r2, [r3, #16]
 2603              		.loc 1 786 69
 2604 0182 FB8A     		ldrh	r3, [r7, #22]
 2605              		.loc 1 786 86
 2606 0184 5B07     		lsls	r3, r3, #29
 2607              		.loc 1 786 66
 2608 0186 03F0C043 		and	r3, r3, #1610612736
 2609              		.loc 1 786 27
 2610 018a B969     		ldr	r1, [r7, #24]
 2611 018c 4801     		lsls	r0, r1, #5
 2612 018e F969     		ldr	r1, [r7, #28]
 2613 0190 0144     		add	r1, r1, r0
 2614 0192 01F51061 		add	r1, r1, #2304
 2615              		.loc 1 786 38
 2616 0196 1343     		orrs	r3, r3, r2
 2617 0198 0B61     		str	r3, [r1, #16]
 2618              	.L119:
 787:Drivers/STM32H7xx_HAL_Driver/Src/stm32h7xx_ll_usb.c ****         }
 788:Drivers/STM32H7xx_HAL_Driver/Src/stm32h7xx_ll_usb.c ****       }
 789:Drivers/STM32H7xx_HAL_Driver/Src/stm32h7xx_ll_usb.c **** 
 790:Drivers/STM32H7xx_HAL_Driver/Src/stm32h7xx_ll_usb.c ****       USBx_INEP(epnum)->DIEPTSIZ |= (USB_OTG_DIEPTSIZ_XFRSIZ & ep->xfer_len);
 2619              		.loc 1 790 23
 2620 019a BB69     		ldr	r3, [r7, #24]
 2621 019c 5A01     		lsls	r2, r3, #5
 2622 019e FB69     		ldr	r3, [r7, #28]
 2623 01a0 1344     		add	r3, r3, r2
 2624 01a2 03F51063 		add	r3, r3, #2304
 2625 01a6 1A69     		ldr	r2, [r3, #16]
 2626              		.loc 1 790 66
 2627 01a8 BB68     		ldr	r3, [r7, #8]
 2628 01aa 1B69     		ldr	r3, [r3, #16]
 2629              		.loc 1 790 62
 2630 01ac C3F31203 		ubfx	r3, r3, #0, #19
 2631              		.loc 1 790 23
 2632 01b0 B969     		ldr	r1, [r7, #24]
 2633 01b2 4801     		lsls	r0, r1, #5
 2634 01b4 F969     		ldr	r1, [r7, #28]
 2635 01b6 0144     		add	r1, r1, r0
ARM GAS  C:\Users\23671\AppData\Local\Temp\ccHDlRLJ.s 			page 61


 2636 01b8 01F51061 		add	r1, r1, #2304
 2637              		.loc 1 790 34
 2638 01bc 1343     		orrs	r3, r3, r2
 2639 01be 0B61     		str	r3, [r1, #16]
 2640              	.L116:
 791:Drivers/STM32H7xx_HAL_Driver/Src/stm32h7xx_ll_usb.c ****     }
 792:Drivers/STM32H7xx_HAL_Driver/Src/stm32h7xx_ll_usb.c **** 
 793:Drivers/STM32H7xx_HAL_Driver/Src/stm32h7xx_ll_usb.c ****     if (dma == 1U)
 2641              		.loc 1 793 8
 2642 01c0 FB79     		ldrb	r3, [r7, #7]	@ zero_extendqisi2
 2643 01c2 012B     		cmp	r3, #1
 2644 01c4 4BD1     		bne	.L120
 794:Drivers/STM32H7xx_HAL_Driver/Src/stm32h7xx_ll_usb.c ****     {
 795:Drivers/STM32H7xx_HAL_Driver/Src/stm32h7xx_ll_usb.c ****       if ((uint32_t)ep->dma_addr != 0U)
 2645              		.loc 1 795 23
 2646 01c6 BB68     		ldr	r3, [r7, #8]
 2647 01c8 DB69     		ldr	r3, [r3, #28]
 2648              		.loc 1 795 10
 2649 01ca 002B     		cmp	r3, #0
 2650 01cc 09D0     		beq	.L121
 796:Drivers/STM32H7xx_HAL_Driver/Src/stm32h7xx_ll_usb.c ****       {
 797:Drivers/STM32H7xx_HAL_Driver/Src/stm32h7xx_ll_usb.c ****         USBx_INEP(epnum)->DIEPDMA = (uint32_t)(ep->dma_addr);
 2651              		.loc 1 797 9
 2652 01ce BB69     		ldr	r3, [r7, #24]
 2653 01d0 5A01     		lsls	r2, r3, #5
 2654 01d2 FB69     		ldr	r3, [r7, #28]
 2655 01d4 1344     		add	r3, r3, r2
 2656 01d6 03F51063 		add	r3, r3, #2304
 2657 01da 1A46     		mov	r2, r3
 2658              		.loc 1 797 50
 2659 01dc BB68     		ldr	r3, [r7, #8]
 2660 01de DB69     		ldr	r3, [r3, #28]
 2661              		.loc 1 797 35
 2662 01e0 5361     		str	r3, [r2, #20]
 2663              	.L121:
 798:Drivers/STM32H7xx_HAL_Driver/Src/stm32h7xx_ll_usb.c ****       }
 799:Drivers/STM32H7xx_HAL_Driver/Src/stm32h7xx_ll_usb.c **** 
 800:Drivers/STM32H7xx_HAL_Driver/Src/stm32h7xx_ll_usb.c ****       if (ep->type == EP_TYPE_ISOC)
 2664              		.loc 1 800 13
 2665 01e2 BB68     		ldr	r3, [r7, #8]
 2666 01e4 1B79     		ldrb	r3, [r3, #4]	@ zero_extendqisi2
 2667              		.loc 1 800 10
 2668 01e6 012B     		cmp	r3, #1
 2669 01e8 28D1     		bne	.L122
 801:Drivers/STM32H7xx_HAL_Driver/Src/stm32h7xx_ll_usb.c ****       {
 802:Drivers/STM32H7xx_HAL_Driver/Src/stm32h7xx_ll_usb.c ****         if ((USBx_DEVICE->DSTS & (1U << 8)) == 0U)
 2670              		.loc 1 802 14
 2671 01ea FB69     		ldr	r3, [r7, #28]
 2672 01ec 03F50063 		add	r3, r3, #2048
 2673              		.loc 1 802 25
 2674 01f0 9B68     		ldr	r3, [r3, #8]
 2675              		.loc 1 802 32
 2676 01f2 03F48073 		and	r3, r3, #256
 2677              		.loc 1 802 12
 2678 01f6 002B     		cmp	r3, #0
 2679 01f8 10D1     		bne	.L123
 803:Drivers/STM32H7xx_HAL_Driver/Src/stm32h7xx_ll_usb.c ****         {
ARM GAS  C:\Users\23671\AppData\Local\Temp\ccHDlRLJ.s 			page 62


 804:Drivers/STM32H7xx_HAL_Driver/Src/stm32h7xx_ll_usb.c ****           USBx_INEP(epnum)->DIEPCTL |= USB_OTG_DIEPCTL_SODDFRM;
 2680              		.loc 1 804 27
 2681 01fa BB69     		ldr	r3, [r7, #24]
 2682 01fc 5A01     		lsls	r2, r3, #5
 2683 01fe FB69     		ldr	r3, [r7, #28]
 2684 0200 1344     		add	r3, r3, r2
 2685 0202 03F51063 		add	r3, r3, #2304
 2686 0206 1B68     		ldr	r3, [r3]
 2687 0208 BA69     		ldr	r2, [r7, #24]
 2688 020a 5101     		lsls	r1, r2, #5
 2689 020c FA69     		ldr	r2, [r7, #28]
 2690 020e 0A44     		add	r2, r2, r1
 2691 0210 02F51062 		add	r2, r2, #2304
 2692              		.loc 1 804 37
 2693 0214 43F00053 		orr	r3, r3, #536870912
 2694 0218 1360     		str	r3, [r2]
 2695 021a 0FE0     		b	.L122
 2696              	.L123:
 805:Drivers/STM32H7xx_HAL_Driver/Src/stm32h7xx_ll_usb.c ****         }
 806:Drivers/STM32H7xx_HAL_Driver/Src/stm32h7xx_ll_usb.c ****         else
 807:Drivers/STM32H7xx_HAL_Driver/Src/stm32h7xx_ll_usb.c ****         {
 808:Drivers/STM32H7xx_HAL_Driver/Src/stm32h7xx_ll_usb.c ****           USBx_INEP(epnum)->DIEPCTL |= USB_OTG_DIEPCTL_SD0PID_SEVNFRM;
 2697              		.loc 1 808 27
 2698 021c BB69     		ldr	r3, [r7, #24]
 2699 021e 5A01     		lsls	r2, r3, #5
 2700 0220 FB69     		ldr	r3, [r7, #28]
 2701 0222 1344     		add	r3, r3, r2
 2702 0224 03F51063 		add	r3, r3, #2304
 2703 0228 1B68     		ldr	r3, [r3]
 2704 022a BA69     		ldr	r2, [r7, #24]
 2705 022c 5101     		lsls	r1, r2, #5
 2706 022e FA69     		ldr	r2, [r7, #28]
 2707 0230 0A44     		add	r2, r2, r1
 2708 0232 02F51062 		add	r2, r2, #2304
 2709              		.loc 1 808 37
 2710 0236 43F08053 		orr	r3, r3, #268435456
 2711 023a 1360     		str	r3, [r2]
 2712              	.L122:
 809:Drivers/STM32H7xx_HAL_Driver/Src/stm32h7xx_ll_usb.c ****         }
 810:Drivers/STM32H7xx_HAL_Driver/Src/stm32h7xx_ll_usb.c ****       }
 811:Drivers/STM32H7xx_HAL_Driver/Src/stm32h7xx_ll_usb.c **** 
 812:Drivers/STM32H7xx_HAL_Driver/Src/stm32h7xx_ll_usb.c ****       /* EP enable, IN data in FIFO */
 813:Drivers/STM32H7xx_HAL_Driver/Src/stm32h7xx_ll_usb.c ****       USBx_INEP(epnum)->DIEPCTL |= (USB_OTG_DIEPCTL_CNAK | USB_OTG_DIEPCTL_EPENA);
 2713              		.loc 1 813 23
 2714 023c BB69     		ldr	r3, [r7, #24]
 2715 023e 5A01     		lsls	r2, r3, #5
 2716 0240 FB69     		ldr	r3, [r7, #28]
 2717 0242 1344     		add	r3, r3, r2
 2718 0244 03F51063 		add	r3, r3, #2304
 2719 0248 1B68     		ldr	r3, [r3]
 2720 024a BA69     		ldr	r2, [r7, #24]
 2721 024c 5101     		lsls	r1, r2, #5
 2722 024e FA69     		ldr	r2, [r7, #28]
 2723 0250 0A44     		add	r2, r2, r1
 2724 0252 02F51062 		add	r2, r2, #2304
 2725              		.loc 1 813 33
 2726 0256 43F00443 		orr	r3, r3, #-2080374784
ARM GAS  C:\Users\23671\AppData\Local\Temp\ccHDlRLJ.s 			page 63


 2727 025a 1360     		str	r3, [r2]
 2728 025c 69E1     		b	.L124
 2729              	.L120:
 814:Drivers/STM32H7xx_HAL_Driver/Src/stm32h7xx_ll_usb.c ****     }
 815:Drivers/STM32H7xx_HAL_Driver/Src/stm32h7xx_ll_usb.c ****     else
 816:Drivers/STM32H7xx_HAL_Driver/Src/stm32h7xx_ll_usb.c ****     {
 817:Drivers/STM32H7xx_HAL_Driver/Src/stm32h7xx_ll_usb.c ****       /* EP enable, IN data in FIFO */
 818:Drivers/STM32H7xx_HAL_Driver/Src/stm32h7xx_ll_usb.c ****       USBx_INEP(epnum)->DIEPCTL |= (USB_OTG_DIEPCTL_CNAK | USB_OTG_DIEPCTL_EPENA);
 2730              		.loc 1 818 23
 2731 025e BB69     		ldr	r3, [r7, #24]
 2732 0260 5A01     		lsls	r2, r3, #5
 2733 0262 FB69     		ldr	r3, [r7, #28]
 2734 0264 1344     		add	r3, r3, r2
 2735 0266 03F51063 		add	r3, r3, #2304
 2736 026a 1B68     		ldr	r3, [r3]
 2737 026c BA69     		ldr	r2, [r7, #24]
 2738 026e 5101     		lsls	r1, r2, #5
 2739 0270 FA69     		ldr	r2, [r7, #28]
 2740 0272 0A44     		add	r2, r2, r1
 2741 0274 02F51062 		add	r2, r2, #2304
 2742              		.loc 1 818 33
 2743 0278 43F00443 		orr	r3, r3, #-2080374784
 2744 027c 1360     		str	r3, [r2]
 819:Drivers/STM32H7xx_HAL_Driver/Src/stm32h7xx_ll_usb.c **** 
 820:Drivers/STM32H7xx_HAL_Driver/Src/stm32h7xx_ll_usb.c ****       if (ep->type != EP_TYPE_ISOC)
 2745              		.loc 1 820 13
 2746 027e BB68     		ldr	r3, [r7, #8]
 2747 0280 1B79     		ldrb	r3, [r3, #4]	@ zero_extendqisi2
 2748              		.loc 1 820 10
 2749 0282 012B     		cmp	r3, #1
 2750 0284 15D0     		beq	.L125
 821:Drivers/STM32H7xx_HAL_Driver/Src/stm32h7xx_ll_usb.c ****       {
 822:Drivers/STM32H7xx_HAL_Driver/Src/stm32h7xx_ll_usb.c ****         /* Enable the Tx FIFO Empty Interrupt for this EP */
 823:Drivers/STM32H7xx_HAL_Driver/Src/stm32h7xx_ll_usb.c ****         if (ep->xfer_len > 0U)
 2751              		.loc 1 823 15
 2752 0286 BB68     		ldr	r3, [r7, #8]
 2753 0288 1B69     		ldr	r3, [r3, #16]
 2754              		.loc 1 823 12
 2755 028a 002B     		cmp	r3, #0
 2756 028c 00F05181 		beq	.L124
 824:Drivers/STM32H7xx_HAL_Driver/Src/stm32h7xx_ll_usb.c ****         {
 825:Drivers/STM32H7xx_HAL_Driver/Src/stm32h7xx_ll_usb.c ****           USBx_DEVICE->DIEPEMPMSK |= 1UL << (ep->num & EP_ADDR_MSK);
 2757              		.loc 1 825 22
 2758 0290 FB69     		ldr	r3, [r7, #28]
 2759 0292 03F50063 		add	r3, r3, #2048
 2760 0296 5A6B     		ldr	r2, [r3, #52]
 2761              		.loc 1 825 48
 2762 0298 BB68     		ldr	r3, [r7, #8]
 2763 029a 1B78     		ldrb	r3, [r3]	@ zero_extendqisi2
 2764              		.loc 1 825 54
 2765 029c 03F00F03 		and	r3, r3, #15
 2766              		.loc 1 825 42
 2767 02a0 0121     		movs	r1, #1
 2768 02a2 01FA03F3 		lsl	r3, r1, r3
 2769              		.loc 1 825 22
 2770 02a6 F969     		ldr	r1, [r7, #28]
 2771 02a8 01F50061 		add	r1, r1, #2048
ARM GAS  C:\Users\23671\AppData\Local\Temp\ccHDlRLJ.s 			page 64


 2772              		.loc 1 825 35
 2773 02ac 1343     		orrs	r3, r3, r2
 2774 02ae 4B63     		str	r3, [r1, #52]
 2775 02b0 3FE1     		b	.L124
 2776              	.L125:
 826:Drivers/STM32H7xx_HAL_Driver/Src/stm32h7xx_ll_usb.c ****         }
 827:Drivers/STM32H7xx_HAL_Driver/Src/stm32h7xx_ll_usb.c ****       }
 828:Drivers/STM32H7xx_HAL_Driver/Src/stm32h7xx_ll_usb.c ****       else
 829:Drivers/STM32H7xx_HAL_Driver/Src/stm32h7xx_ll_usb.c ****       {
 830:Drivers/STM32H7xx_HAL_Driver/Src/stm32h7xx_ll_usb.c ****         if ((USBx_DEVICE->DSTS & (1U << 8)) == 0U)
 2777              		.loc 1 830 14
 2778 02b2 FB69     		ldr	r3, [r7, #28]
 2779 02b4 03F50063 		add	r3, r3, #2048
 2780              		.loc 1 830 25
 2781 02b8 9B68     		ldr	r3, [r3, #8]
 2782              		.loc 1 830 32
 2783 02ba 03F48073 		and	r3, r3, #256
 2784              		.loc 1 830 12
 2785 02be 002B     		cmp	r3, #0
 2786 02c0 16D1     		bne	.L126
 831:Drivers/STM32H7xx_HAL_Driver/Src/stm32h7xx_ll_usb.c ****         {
 832:Drivers/STM32H7xx_HAL_Driver/Src/stm32h7xx_ll_usb.c ****           USBx_INEP(epnum)->DIEPCTL |= USB_OTG_DIEPCTL_SODDFRM;
 2787              		.loc 1 832 27
 2788 02c2 BB69     		ldr	r3, [r7, #24]
 2789 02c4 5A01     		lsls	r2, r3, #5
 2790 02c6 FB69     		ldr	r3, [r7, #28]
 2791 02c8 1344     		add	r3, r3, r2
 2792 02ca 03F51063 		add	r3, r3, #2304
 2793 02ce 1B68     		ldr	r3, [r3]
 2794 02d0 BA69     		ldr	r2, [r7, #24]
 2795 02d2 5101     		lsls	r1, r2, #5
 2796 02d4 FA69     		ldr	r2, [r7, #28]
 2797 02d6 0A44     		add	r2, r2, r1
 2798 02d8 02F51062 		add	r2, r2, #2304
 2799              		.loc 1 832 37
 2800 02dc 43F00053 		orr	r3, r3, #536870912
 2801 02e0 1360     		str	r3, [r2]
 2802 02e2 15E0     		b	.L127
 2803              	.L137:
 2804              		.align	2
 2805              	.L136:
 2806 02e4 FFFF07E0 		.word	-536346625
 2807 02e8 0000F8FF 		.word	-524288
 2808 02ec 0000F81F 		.word	536346624
 2809              	.L126:
 833:Drivers/STM32H7xx_HAL_Driver/Src/stm32h7xx_ll_usb.c ****         }
 834:Drivers/STM32H7xx_HAL_Driver/Src/stm32h7xx_ll_usb.c ****         else
 835:Drivers/STM32H7xx_HAL_Driver/Src/stm32h7xx_ll_usb.c ****         {
 836:Drivers/STM32H7xx_HAL_Driver/Src/stm32h7xx_ll_usb.c ****           USBx_INEP(epnum)->DIEPCTL |= USB_OTG_DIEPCTL_SD0PID_SEVNFRM;
 2810              		.loc 1 836 27
 2811 02f0 BB69     		ldr	r3, [r7, #24]
 2812 02f2 5A01     		lsls	r2, r3, #5
 2813 02f4 FB69     		ldr	r3, [r7, #28]
 2814 02f6 1344     		add	r3, r3, r2
 2815 02f8 03F51063 		add	r3, r3, #2304
 2816 02fc 1B68     		ldr	r3, [r3]
 2817 02fe BA69     		ldr	r2, [r7, #24]
ARM GAS  C:\Users\23671\AppData\Local\Temp\ccHDlRLJ.s 			page 65


 2818 0300 5101     		lsls	r1, r2, #5
 2819 0302 FA69     		ldr	r2, [r7, #28]
 2820 0304 0A44     		add	r2, r2, r1
 2821 0306 02F51062 		add	r2, r2, #2304
 2822              		.loc 1 836 37
 2823 030a 43F08053 		orr	r3, r3, #268435456
 2824 030e 1360     		str	r3, [r2]
 2825              	.L127:
 837:Drivers/STM32H7xx_HAL_Driver/Src/stm32h7xx_ll_usb.c ****         }
 838:Drivers/STM32H7xx_HAL_Driver/Src/stm32h7xx_ll_usb.c **** 
 839:Drivers/STM32H7xx_HAL_Driver/Src/stm32h7xx_ll_usb.c ****         (void)USB_WritePacket(USBx, ep->xfer_buff, ep->num, (uint16_t)ep->xfer_len, dma);
 2826              		.loc 1 839 15
 2827 0310 BB68     		ldr	r3, [r7, #8]
 2828 0312 D968     		ldr	r1, [r3, #12]
 2829 0314 BB68     		ldr	r3, [r7, #8]
 2830 0316 1A78     		ldrb	r2, [r3]	@ zero_extendqisi2
 2831              		.loc 1 839 73
 2832 0318 BB68     		ldr	r3, [r7, #8]
 2833 031a 1B69     		ldr	r3, [r3, #16]
 2834              		.loc 1 839 15
 2835 031c 98B2     		uxth	r0, r3
 2836 031e FB79     		ldrb	r3, [r7, #7]	@ zero_extendqisi2
 2837 0320 0093     		str	r3, [sp]
 2838 0322 0346     		mov	r3, r0
 2839 0324 F868     		ldr	r0, [r7, #12]
 2840 0326 FFF7FEFF 		bl	USB_WritePacket
 2841 032a 02E1     		b	.L124
 2842              	.L114:
 840:Drivers/STM32H7xx_HAL_Driver/Src/stm32h7xx_ll_usb.c ****       }
 841:Drivers/STM32H7xx_HAL_Driver/Src/stm32h7xx_ll_usb.c ****     }
 842:Drivers/STM32H7xx_HAL_Driver/Src/stm32h7xx_ll_usb.c ****   }
 843:Drivers/STM32H7xx_HAL_Driver/Src/stm32h7xx_ll_usb.c ****   else /* OUT endpoint */
 844:Drivers/STM32H7xx_HAL_Driver/Src/stm32h7xx_ll_usb.c ****   {
 845:Drivers/STM32H7xx_HAL_Driver/Src/stm32h7xx_ll_usb.c ****     /* Program the transfer size and packet count as follows:
 846:Drivers/STM32H7xx_HAL_Driver/Src/stm32h7xx_ll_usb.c ****     * pktcnt = N
 847:Drivers/STM32H7xx_HAL_Driver/Src/stm32h7xx_ll_usb.c ****     * xfersize = N * maxpacket
 848:Drivers/STM32H7xx_HAL_Driver/Src/stm32h7xx_ll_usb.c ****     */
 849:Drivers/STM32H7xx_HAL_Driver/Src/stm32h7xx_ll_usb.c ****     USBx_OUTEP(epnum)->DOEPTSIZ &= ~(USB_OTG_DOEPTSIZ_XFRSIZ);
 2843              		.loc 1 849 22
 2844 032c BB69     		ldr	r3, [r7, #24]
 2845 032e 5A01     		lsls	r2, r3, #5
 2846 0330 FB69     		ldr	r3, [r7, #28]
 2847 0332 1344     		add	r3, r3, r2
 2848 0334 03F53063 		add	r3, r3, #2816
 2849 0338 1A69     		ldr	r2, [r3, #16]
 2850 033a BB69     		ldr	r3, [r7, #24]
 2851 033c 5901     		lsls	r1, r3, #5
 2852 033e FB69     		ldr	r3, [r7, #28]
 2853 0340 0B44     		add	r3, r3, r1
 2854 0342 03F53063 		add	r3, r3, #2816
 2855 0346 1946     		mov	r1, r3
 2856              		.loc 1 849 33
 2857 0348 7C4B     		ldr	r3, .L138
 2858 034a 1340     		ands	r3, r3, r2
 2859 034c 0B61     		str	r3, [r1, #16]
 850:Drivers/STM32H7xx_HAL_Driver/Src/stm32h7xx_ll_usb.c ****     USBx_OUTEP(epnum)->DOEPTSIZ &= ~(USB_OTG_DOEPTSIZ_PKTCNT);
 2860              		.loc 1 850 22
ARM GAS  C:\Users\23671\AppData\Local\Temp\ccHDlRLJ.s 			page 66


 2861 034e BB69     		ldr	r3, [r7, #24]
 2862 0350 5A01     		lsls	r2, r3, #5
 2863 0352 FB69     		ldr	r3, [r7, #28]
 2864 0354 1344     		add	r3, r3, r2
 2865 0356 03F53063 		add	r3, r3, #2816
 2866 035a 1A69     		ldr	r2, [r3, #16]
 2867 035c BB69     		ldr	r3, [r7, #24]
 2868 035e 5901     		lsls	r1, r3, #5
 2869 0360 FB69     		ldr	r3, [r7, #28]
 2870 0362 0B44     		add	r3, r3, r1
 2871 0364 03F53063 		add	r3, r3, #2816
 2872 0368 1946     		mov	r1, r3
 2873              		.loc 1 850 33
 2874 036a 754B     		ldr	r3, .L138+4
 2875 036c 1340     		ands	r3, r3, r2
 2876 036e 0B61     		str	r3, [r1, #16]
 851:Drivers/STM32H7xx_HAL_Driver/Src/stm32h7xx_ll_usb.c **** 
 852:Drivers/STM32H7xx_HAL_Driver/Src/stm32h7xx_ll_usb.c ****     if (epnum == 0U)
 2877              		.loc 1 852 8
 2878 0370 BB69     		ldr	r3, [r7, #24]
 2879 0372 002B     		cmp	r3, #0
 2880 0374 2FD1     		bne	.L128
 853:Drivers/STM32H7xx_HAL_Driver/Src/stm32h7xx_ll_usb.c ****     {
 854:Drivers/STM32H7xx_HAL_Driver/Src/stm32h7xx_ll_usb.c ****       if (ep->xfer_len > 0U)
 2881              		.loc 1 854 13
 2882 0376 BB68     		ldr	r3, [r7, #8]
 2883 0378 1B69     		ldr	r3, [r3, #16]
 2884              		.loc 1 854 10
 2885 037a 002B     		cmp	r3, #0
 2886 037c 03D0     		beq	.L129
 855:Drivers/STM32H7xx_HAL_Driver/Src/stm32h7xx_ll_usb.c ****       {
 856:Drivers/STM32H7xx_HAL_Driver/Src/stm32h7xx_ll_usb.c ****         ep->xfer_len = ep->maxpacket;
 2887              		.loc 1 856 26
 2888 037e BB68     		ldr	r3, [r7, #8]
 2889 0380 9A68     		ldr	r2, [r3, #8]
 2890              		.loc 1 856 22
 2891 0382 BB68     		ldr	r3, [r7, #8]
 2892 0384 1A61     		str	r2, [r3, #16]
 2893              	.L129:
 857:Drivers/STM32H7xx_HAL_Driver/Src/stm32h7xx_ll_usb.c ****       }
 858:Drivers/STM32H7xx_HAL_Driver/Src/stm32h7xx_ll_usb.c **** 
 859:Drivers/STM32H7xx_HAL_Driver/Src/stm32h7xx_ll_usb.c ****       /* Store transfer size, for EP0 this is equal to endpoint max packet size */
 860:Drivers/STM32H7xx_HAL_Driver/Src/stm32h7xx_ll_usb.c ****       ep->xfer_size = ep->maxpacket;
 2894              		.loc 1 860 25
 2895 0386 BB68     		ldr	r3, [r7, #8]
 2896 0388 9A68     		ldr	r2, [r3, #8]
 2897              		.loc 1 860 21
 2898 038a BB68     		ldr	r3, [r7, #8]
 2899 038c 1A62     		str	r2, [r3, #32]
 861:Drivers/STM32H7xx_HAL_Driver/Src/stm32h7xx_ll_usb.c **** 
 862:Drivers/STM32H7xx_HAL_Driver/Src/stm32h7xx_ll_usb.c ****       USBx_OUTEP(epnum)->DOEPTSIZ |= (USB_OTG_DOEPTSIZ_XFRSIZ & ep->xfer_size);
 2900              		.loc 1 862 24
 2901 038e BB69     		ldr	r3, [r7, #24]
 2902 0390 5A01     		lsls	r2, r3, #5
 2903 0392 FB69     		ldr	r3, [r7, #28]
 2904 0394 1344     		add	r3, r3, r2
 2905 0396 03F53063 		add	r3, r3, #2816
ARM GAS  C:\Users\23671\AppData\Local\Temp\ccHDlRLJ.s 			page 67


 2906 039a 1A69     		ldr	r2, [r3, #16]
 2907              		.loc 1 862 67
 2908 039c BB68     		ldr	r3, [r7, #8]
 2909 039e 1B6A     		ldr	r3, [r3, #32]
 2910              		.loc 1 862 63
 2911 03a0 C3F31203 		ubfx	r3, r3, #0, #19
 2912              		.loc 1 862 24
 2913 03a4 B969     		ldr	r1, [r7, #24]
 2914 03a6 4801     		lsls	r0, r1, #5
 2915 03a8 F969     		ldr	r1, [r7, #28]
 2916 03aa 0144     		add	r1, r1, r0
 2917 03ac 01F53061 		add	r1, r1, #2816
 2918              		.loc 1 862 35
 2919 03b0 1343     		orrs	r3, r3, r2
 2920 03b2 0B61     		str	r3, [r1, #16]
 863:Drivers/STM32H7xx_HAL_Driver/Src/stm32h7xx_ll_usb.c ****       USBx_OUTEP(epnum)->DOEPTSIZ |= (USB_OTG_DOEPTSIZ_PKTCNT & (1U << 19));
 2921              		.loc 1 863 24
 2922 03b4 BB69     		ldr	r3, [r7, #24]
 2923 03b6 5A01     		lsls	r2, r3, #5
 2924 03b8 FB69     		ldr	r3, [r7, #28]
 2925 03ba 1344     		add	r3, r3, r2
 2926 03bc 03F53063 		add	r3, r3, #2816
 2927 03c0 1B69     		ldr	r3, [r3, #16]
 2928 03c2 BA69     		ldr	r2, [r7, #24]
 2929 03c4 5101     		lsls	r1, r2, #5
 2930 03c6 FA69     		ldr	r2, [r7, #28]
 2931 03c8 0A44     		add	r2, r2, r1
 2932 03ca 02F53062 		add	r2, r2, #2816
 2933              		.loc 1 863 35
 2934 03ce 43F40023 		orr	r3, r3, #524288
 2935 03d2 1361     		str	r3, [r2, #16]
 2936 03d4 5FE0     		b	.L130
 2937              	.L128:
 864:Drivers/STM32H7xx_HAL_Driver/Src/stm32h7xx_ll_usb.c ****     }
 865:Drivers/STM32H7xx_HAL_Driver/Src/stm32h7xx_ll_usb.c ****     else
 866:Drivers/STM32H7xx_HAL_Driver/Src/stm32h7xx_ll_usb.c ****     {
 867:Drivers/STM32H7xx_HAL_Driver/Src/stm32h7xx_ll_usb.c ****       if (ep->xfer_len == 0U)
 2938              		.loc 1 867 13
 2939 03d6 BB68     		ldr	r3, [r7, #8]
 2940 03d8 1B69     		ldr	r3, [r3, #16]
 2941              		.loc 1 867 10
 2942 03da 002B     		cmp	r3, #0
 2943 03dc 23D1     		bne	.L131
 868:Drivers/STM32H7xx_HAL_Driver/Src/stm32h7xx_ll_usb.c ****       {
 869:Drivers/STM32H7xx_HAL_Driver/Src/stm32h7xx_ll_usb.c ****         USBx_OUTEP(epnum)->DOEPTSIZ |= (USB_OTG_DOEPTSIZ_XFRSIZ & ep->maxpacket);
 2944              		.loc 1 869 26
 2945 03de BB69     		ldr	r3, [r7, #24]
 2946 03e0 5A01     		lsls	r2, r3, #5
 2947 03e2 FB69     		ldr	r3, [r7, #28]
 2948 03e4 1344     		add	r3, r3, r2
 2949 03e6 03F53063 		add	r3, r3, #2816
 2950 03ea 1A69     		ldr	r2, [r3, #16]
 2951              		.loc 1 869 69
 2952 03ec BB68     		ldr	r3, [r7, #8]
 2953 03ee 9B68     		ldr	r3, [r3, #8]
 2954              		.loc 1 869 65
 2955 03f0 C3F31203 		ubfx	r3, r3, #0, #19
ARM GAS  C:\Users\23671\AppData\Local\Temp\ccHDlRLJ.s 			page 68


 2956              		.loc 1 869 26
 2957 03f4 B969     		ldr	r1, [r7, #24]
 2958 03f6 4801     		lsls	r0, r1, #5
 2959 03f8 F969     		ldr	r1, [r7, #28]
 2960 03fa 0144     		add	r1, r1, r0
 2961 03fc 01F53061 		add	r1, r1, #2816
 2962              		.loc 1 869 37
 2963 0400 1343     		orrs	r3, r3, r2
 2964 0402 0B61     		str	r3, [r1, #16]
 870:Drivers/STM32H7xx_HAL_Driver/Src/stm32h7xx_ll_usb.c ****         USBx_OUTEP(epnum)->DOEPTSIZ |= (USB_OTG_DOEPTSIZ_PKTCNT & (1U << 19));
 2965              		.loc 1 870 26
 2966 0404 BB69     		ldr	r3, [r7, #24]
 2967 0406 5A01     		lsls	r2, r3, #5
 2968 0408 FB69     		ldr	r3, [r7, #28]
 2969 040a 1344     		add	r3, r3, r2
 2970 040c 03F53063 		add	r3, r3, #2816
 2971 0410 1B69     		ldr	r3, [r3, #16]
 2972 0412 BA69     		ldr	r2, [r7, #24]
 2973 0414 5101     		lsls	r1, r2, #5
 2974 0416 FA69     		ldr	r2, [r7, #28]
 2975 0418 0A44     		add	r2, r2, r1
 2976 041a 02F53062 		add	r2, r2, #2816
 2977              		.loc 1 870 37
 2978 041e 43F40023 		orr	r3, r3, #524288
 2979 0422 1361     		str	r3, [r2, #16]
 2980 0424 37E0     		b	.L130
 2981              	.L131:
 871:Drivers/STM32H7xx_HAL_Driver/Src/stm32h7xx_ll_usb.c ****       }
 872:Drivers/STM32H7xx_HAL_Driver/Src/stm32h7xx_ll_usb.c ****       else
 873:Drivers/STM32H7xx_HAL_Driver/Src/stm32h7xx_ll_usb.c ****       {
 874:Drivers/STM32H7xx_HAL_Driver/Src/stm32h7xx_ll_usb.c ****         pktcnt = (uint16_t)((ep->xfer_len + ep->maxpacket - 1U) / ep->maxpacket);
 2982              		.loc 1 874 32
 2983 0426 BB68     		ldr	r3, [r7, #8]
 2984 0428 1A69     		ldr	r2, [r3, #16]
 2985              		.loc 1 874 47
 2986 042a BB68     		ldr	r3, [r7, #8]
 2987 042c 9B68     		ldr	r3, [r3, #8]
 2988              		.loc 1 874 43
 2989 042e 1344     		add	r3, r3, r2
 2990              		.loc 1 874 59
 2991 0430 5A1E     		subs	r2, r3, #1
 2992              		.loc 1 874 69
 2993 0432 BB68     		ldr	r3, [r7, #8]
 2994 0434 9B68     		ldr	r3, [r3, #8]
 2995              		.loc 1 874 65
 2996 0436 B2FBF3F3 		udiv	r3, r2, r3
 2997              		.loc 1 874 16
 2998 043a FB82     		strh	r3, [r7, #22]	@ movhi
 875:Drivers/STM32H7xx_HAL_Driver/Src/stm32h7xx_ll_usb.c ****         ep->xfer_size = ep->maxpacket * pktcnt;
 2999              		.loc 1 875 27
 3000 043c BB68     		ldr	r3, [r7, #8]
 3001 043e 9B68     		ldr	r3, [r3, #8]
 3002              		.loc 1 875 39
 3003 0440 FA8A     		ldrh	r2, [r7, #22]
 3004 0442 03FB02F2 		mul	r2, r3, r2
 3005              		.loc 1 875 23
 3006 0446 BB68     		ldr	r3, [r7, #8]
ARM GAS  C:\Users\23671\AppData\Local\Temp\ccHDlRLJ.s 			page 69


 3007 0448 1A62     		str	r2, [r3, #32]
 876:Drivers/STM32H7xx_HAL_Driver/Src/stm32h7xx_ll_usb.c **** 
 877:Drivers/STM32H7xx_HAL_Driver/Src/stm32h7xx_ll_usb.c ****         USBx_OUTEP(epnum)->DOEPTSIZ |= USB_OTG_DOEPTSIZ_PKTCNT & ((uint32_t)pktcnt << 19);
 3008              		.loc 1 877 26
 3009 044a BB69     		ldr	r3, [r7, #24]
 3010 044c 5A01     		lsls	r2, r3, #5
 3011 044e FB69     		ldr	r3, [r7, #28]
 3012 0450 1344     		add	r3, r3, r2
 3013 0452 03F53063 		add	r3, r3, #2816
 3014 0456 1A69     		ldr	r2, [r3, #16]
 3015              		.loc 1 877 67
 3016 0458 FB8A     		ldrh	r3, [r7, #22]
 3017              		.loc 1 877 84
 3018 045a D904     		lsls	r1, r3, #19
 3019              		.loc 1 877 64
 3020 045c 394B     		ldr	r3, .L138+8
 3021 045e 0B40     		ands	r3, r3, r1
 3022              		.loc 1 877 26
 3023 0460 B969     		ldr	r1, [r7, #24]
 3024 0462 4801     		lsls	r0, r1, #5
 3025 0464 F969     		ldr	r1, [r7, #28]
 3026 0466 0144     		add	r1, r1, r0
 3027 0468 01F53061 		add	r1, r1, #2816
 3028              		.loc 1 877 37
 3029 046c 1343     		orrs	r3, r3, r2
 3030 046e 0B61     		str	r3, [r1, #16]
 878:Drivers/STM32H7xx_HAL_Driver/Src/stm32h7xx_ll_usb.c ****         USBx_OUTEP(epnum)->DOEPTSIZ |= USB_OTG_DOEPTSIZ_XFRSIZ & ep->xfer_size;
 3031              		.loc 1 878 26
 3032 0470 BB69     		ldr	r3, [r7, #24]
 3033 0472 5A01     		lsls	r2, r3, #5
 3034 0474 FB69     		ldr	r3, [r7, #28]
 3035 0476 1344     		add	r3, r3, r2
 3036 0478 03F53063 		add	r3, r3, #2816
 3037 047c 1A69     		ldr	r2, [r3, #16]
 3038              		.loc 1 878 68
 3039 047e BB68     		ldr	r3, [r7, #8]
 3040 0480 1B6A     		ldr	r3, [r3, #32]
 3041              		.loc 1 878 64
 3042 0482 C3F31203 		ubfx	r3, r3, #0, #19
 3043              		.loc 1 878 26
 3044 0486 B969     		ldr	r1, [r7, #24]
 3045 0488 4801     		lsls	r0, r1, #5
 3046 048a F969     		ldr	r1, [r7, #28]
 3047 048c 0144     		add	r1, r1, r0
 3048 048e 01F53061 		add	r1, r1, #2816
 3049              		.loc 1 878 37
 3050 0492 1343     		orrs	r3, r3, r2
 3051 0494 0B61     		str	r3, [r1, #16]
 3052              	.L130:
 879:Drivers/STM32H7xx_HAL_Driver/Src/stm32h7xx_ll_usb.c ****       }
 880:Drivers/STM32H7xx_HAL_Driver/Src/stm32h7xx_ll_usb.c ****     }
 881:Drivers/STM32H7xx_HAL_Driver/Src/stm32h7xx_ll_usb.c **** 
 882:Drivers/STM32H7xx_HAL_Driver/Src/stm32h7xx_ll_usb.c ****     if (dma == 1U)
 3053              		.loc 1 882 8
 3054 0496 FB79     		ldrb	r3, [r7, #7]	@ zero_extendqisi2
 3055 0498 012B     		cmp	r3, #1
 3056 049a 0DD1     		bne	.L132
ARM GAS  C:\Users\23671\AppData\Local\Temp\ccHDlRLJ.s 			page 70


 883:Drivers/STM32H7xx_HAL_Driver/Src/stm32h7xx_ll_usb.c ****     {
 884:Drivers/STM32H7xx_HAL_Driver/Src/stm32h7xx_ll_usb.c ****       if ((uint32_t)ep->xfer_buff != 0U)
 3057              		.loc 1 884 23
 3058 049c BB68     		ldr	r3, [r7, #8]
 3059 049e DB68     		ldr	r3, [r3, #12]
 3060              		.loc 1 884 10
 3061 04a0 002B     		cmp	r3, #0
 3062 04a2 09D0     		beq	.L132
 885:Drivers/STM32H7xx_HAL_Driver/Src/stm32h7xx_ll_usb.c ****       {
 886:Drivers/STM32H7xx_HAL_Driver/Src/stm32h7xx_ll_usb.c ****         USBx_OUTEP(epnum)->DOEPDMA = (uint32_t)(ep->xfer_buff);
 3063              		.loc 1 886 51
 3064 04a4 BB68     		ldr	r3, [r7, #8]
 3065 04a6 D968     		ldr	r1, [r3, #12]
 3066              		.loc 1 886 9
 3067 04a8 BB69     		ldr	r3, [r7, #24]
 3068 04aa 5A01     		lsls	r2, r3, #5
 3069 04ac FB69     		ldr	r3, [r7, #28]
 3070 04ae 1344     		add	r3, r3, r2
 3071 04b0 03F53063 		add	r3, r3, #2816
 3072              		.loc 1 886 38
 3073 04b4 0A46     		mov	r2, r1
 3074              		.loc 1 886 36
 3075 04b6 5A61     		str	r2, [r3, #20]
 3076              	.L132:
 887:Drivers/STM32H7xx_HAL_Driver/Src/stm32h7xx_ll_usb.c ****       }
 888:Drivers/STM32H7xx_HAL_Driver/Src/stm32h7xx_ll_usb.c ****     }
 889:Drivers/STM32H7xx_HAL_Driver/Src/stm32h7xx_ll_usb.c **** 
 890:Drivers/STM32H7xx_HAL_Driver/Src/stm32h7xx_ll_usb.c ****     if (ep->type == EP_TYPE_ISOC)
 3077              		.loc 1 890 11
 3078 04b8 BB68     		ldr	r3, [r7, #8]
 3079 04ba 1B79     		ldrb	r3, [r3, #4]	@ zero_extendqisi2
 3080              		.loc 1 890 8
 3081 04bc 012B     		cmp	r3, #1
 3082 04be 28D1     		bne	.L133
 891:Drivers/STM32H7xx_HAL_Driver/Src/stm32h7xx_ll_usb.c ****     {
 892:Drivers/STM32H7xx_HAL_Driver/Src/stm32h7xx_ll_usb.c ****       if ((USBx_DEVICE->DSTS & (1U << 8)) == 0U)
 3083              		.loc 1 892 12
 3084 04c0 FB69     		ldr	r3, [r7, #28]
 3085 04c2 03F50063 		add	r3, r3, #2048
 3086              		.loc 1 892 23
 3087 04c6 9B68     		ldr	r3, [r3, #8]
 3088              		.loc 1 892 30
 3089 04c8 03F48073 		and	r3, r3, #256
 3090              		.loc 1 892 10
 3091 04cc 002B     		cmp	r3, #0
 3092 04ce 10D1     		bne	.L134
 893:Drivers/STM32H7xx_HAL_Driver/Src/stm32h7xx_ll_usb.c ****       {
 894:Drivers/STM32H7xx_HAL_Driver/Src/stm32h7xx_ll_usb.c ****         USBx_OUTEP(epnum)->DOEPCTL |= USB_OTG_DOEPCTL_SODDFRM;
 3093              		.loc 1 894 26
 3094 04d0 BB69     		ldr	r3, [r7, #24]
 3095 04d2 5A01     		lsls	r2, r3, #5
 3096 04d4 FB69     		ldr	r3, [r7, #28]
 3097 04d6 1344     		add	r3, r3, r2
 3098 04d8 03F53063 		add	r3, r3, #2816
 3099 04dc 1B68     		ldr	r3, [r3]
 3100 04de BA69     		ldr	r2, [r7, #24]
 3101 04e0 5101     		lsls	r1, r2, #5
ARM GAS  C:\Users\23671\AppData\Local\Temp\ccHDlRLJ.s 			page 71


 3102 04e2 FA69     		ldr	r2, [r7, #28]
 3103 04e4 0A44     		add	r2, r2, r1
 3104 04e6 02F53062 		add	r2, r2, #2816
 3105              		.loc 1 894 36
 3106 04ea 43F00053 		orr	r3, r3, #536870912
 3107 04ee 1360     		str	r3, [r2]
 3108 04f0 0FE0     		b	.L133
 3109              	.L134:
 895:Drivers/STM32H7xx_HAL_Driver/Src/stm32h7xx_ll_usb.c ****       }
 896:Drivers/STM32H7xx_HAL_Driver/Src/stm32h7xx_ll_usb.c ****       else
 897:Drivers/STM32H7xx_HAL_Driver/Src/stm32h7xx_ll_usb.c ****       {
 898:Drivers/STM32H7xx_HAL_Driver/Src/stm32h7xx_ll_usb.c ****         USBx_OUTEP(epnum)->DOEPCTL |= USB_OTG_DOEPCTL_SD0PID_SEVNFRM;
 3110              		.loc 1 898 26
 3111 04f2 BB69     		ldr	r3, [r7, #24]
 3112 04f4 5A01     		lsls	r2, r3, #5
 3113 04f6 FB69     		ldr	r3, [r7, #28]
 3114 04f8 1344     		add	r3, r3, r2
 3115 04fa 03F53063 		add	r3, r3, #2816
 3116 04fe 1B68     		ldr	r3, [r3]
 3117 0500 BA69     		ldr	r2, [r7, #24]
 3118 0502 5101     		lsls	r1, r2, #5
 3119 0504 FA69     		ldr	r2, [r7, #28]
 3120 0506 0A44     		add	r2, r2, r1
 3121 0508 02F53062 		add	r2, r2, #2816
 3122              		.loc 1 898 36
 3123 050c 43F08053 		orr	r3, r3, #268435456
 3124 0510 1360     		str	r3, [r2]
 3125              	.L133:
 899:Drivers/STM32H7xx_HAL_Driver/Src/stm32h7xx_ll_usb.c ****       }
 900:Drivers/STM32H7xx_HAL_Driver/Src/stm32h7xx_ll_usb.c ****     }
 901:Drivers/STM32H7xx_HAL_Driver/Src/stm32h7xx_ll_usb.c ****     /* EP enable */
 902:Drivers/STM32H7xx_HAL_Driver/Src/stm32h7xx_ll_usb.c ****     USBx_OUTEP(epnum)->DOEPCTL |= (USB_OTG_DOEPCTL_CNAK | USB_OTG_DOEPCTL_EPENA);
 3126              		.loc 1 902 22
 3127 0512 BB69     		ldr	r3, [r7, #24]
 3128 0514 5A01     		lsls	r2, r3, #5
 3129 0516 FB69     		ldr	r3, [r7, #28]
 3130 0518 1344     		add	r3, r3, r2
 3131 051a 03F53063 		add	r3, r3, #2816
 3132 051e 1B68     		ldr	r3, [r3]
 3133 0520 BA69     		ldr	r2, [r7, #24]
 3134 0522 5101     		lsls	r1, r2, #5
 3135 0524 FA69     		ldr	r2, [r7, #28]
 3136 0526 0A44     		add	r2, r2, r1
 3137 0528 02F53062 		add	r2, r2, #2816
 3138              		.loc 1 902 32
 3139 052c 43F00443 		orr	r3, r3, #-2080374784
 3140 0530 1360     		str	r3, [r2]
 3141              	.L124:
 903:Drivers/STM32H7xx_HAL_Driver/Src/stm32h7xx_ll_usb.c ****   }
 904:Drivers/STM32H7xx_HAL_Driver/Src/stm32h7xx_ll_usb.c **** 
 905:Drivers/STM32H7xx_HAL_Driver/Src/stm32h7xx_ll_usb.c ****   return HAL_OK;
 3142              		.loc 1 905 10
 3143 0532 0023     		movs	r3, #0
 906:Drivers/STM32H7xx_HAL_Driver/Src/stm32h7xx_ll_usb.c **** }
 3144              		.loc 1 906 1
 3145 0534 1846     		mov	r0, r3
 3146 0536 2037     		adds	r7, r7, #32
ARM GAS  C:\Users\23671\AppData\Local\Temp\ccHDlRLJ.s 			page 72


 3147              	.LCFI90:
 3148              		.cfi_def_cfa_offset 8
 3149 0538 BD46     		mov	sp, r7
 3150              	.LCFI91:
 3151              		.cfi_def_cfa_register 13
 3152              		@ sp needed
 3153 053a 80BD     		pop	{r7, pc}
 3154              	.L139:
 3155              		.align	2
 3156              	.L138:
 3157 053c 0000F8FF 		.word	-524288
 3158 0540 FFFF07E0 		.word	-536346625
 3159 0544 0000F81F 		.word	536346624
 3160              		.cfi_endproc
 3161              	.LFE158:
 3163              		.section	.text.USB_EPStopXfer,"ax",%progbits
 3164              		.align	1
 3165              		.global	USB_EPStopXfer
 3166              		.syntax unified
 3167              		.thumb
 3168              		.thumb_func
 3170              	USB_EPStopXfer:
 3171              	.LFB159:
 907:Drivers/STM32H7xx_HAL_Driver/Src/stm32h7xx_ll_usb.c **** 
 908:Drivers/STM32H7xx_HAL_Driver/Src/stm32h7xx_ll_usb.c **** 
 909:Drivers/STM32H7xx_HAL_Driver/Src/stm32h7xx_ll_usb.c **** /**
 910:Drivers/STM32H7xx_HAL_Driver/Src/stm32h7xx_ll_usb.c ****    * @brief  USB_EPStoptXfer  Stop transfer on an EP
 911:Drivers/STM32H7xx_HAL_Driver/Src/stm32h7xx_ll_usb.c ****    * @param  USBx  usb device instance
 912:Drivers/STM32H7xx_HAL_Driver/Src/stm32h7xx_ll_usb.c ****    * @param  ep pointer to endpoint structure
 913:Drivers/STM32H7xx_HAL_Driver/Src/stm32h7xx_ll_usb.c ****    * @retval HAL status
 914:Drivers/STM32H7xx_HAL_Driver/Src/stm32h7xx_ll_usb.c ****    */
 915:Drivers/STM32H7xx_HAL_Driver/Src/stm32h7xx_ll_usb.c **** HAL_StatusTypeDef USB_EPStopXfer(const USB_OTG_GlobalTypeDef *USBx, USB_OTG_EPTypeDef *ep)
 916:Drivers/STM32H7xx_HAL_Driver/Src/stm32h7xx_ll_usb.c **** {
 3172              		.loc 1 916 1
 3173              		.cfi_startproc
 3174              		@ args = 0, pretend = 0, frame = 24
 3175              		@ frame_needed = 1, uses_anonymous_args = 0
 3176              		@ link register save eliminated.
 3177 0000 80B4     		push	{r7}
 3178              	.LCFI92:
 3179              		.cfi_def_cfa_offset 4
 3180              		.cfi_offset 7, -4
 3181 0002 87B0     		sub	sp, sp, #28
 3182              	.LCFI93:
 3183              		.cfi_def_cfa_offset 32
 3184 0004 00AF     		add	r7, sp, #0
 3185              	.LCFI94:
 3186              		.cfi_def_cfa_register 7
 3187 0006 7860     		str	r0, [r7, #4]
 3188 0008 3960     		str	r1, [r7]
 917:Drivers/STM32H7xx_HAL_Driver/Src/stm32h7xx_ll_usb.c ****   __IO uint32_t count = 0U;
 3189              		.loc 1 917 17
 3190 000a 0023     		movs	r3, #0
 3191 000c FB60     		str	r3, [r7, #12]
 918:Drivers/STM32H7xx_HAL_Driver/Src/stm32h7xx_ll_usb.c ****   HAL_StatusTypeDef ret = HAL_OK;
 3192              		.loc 1 918 21
 3193 000e 0023     		movs	r3, #0
ARM GAS  C:\Users\23671\AppData\Local\Temp\ccHDlRLJ.s 			page 73


 3194 0010 FB75     		strb	r3, [r7, #23]
 919:Drivers/STM32H7xx_HAL_Driver/Src/stm32h7xx_ll_usb.c ****   uint32_t USBx_BASE = (uint32_t)USBx;
 3195              		.loc 1 919 12
 3196 0012 7B68     		ldr	r3, [r7, #4]
 3197 0014 3B61     		str	r3, [r7, #16]
 920:Drivers/STM32H7xx_HAL_Driver/Src/stm32h7xx_ll_usb.c **** 
 921:Drivers/STM32H7xx_HAL_Driver/Src/stm32h7xx_ll_usb.c ****   /* IN endpoint */
 922:Drivers/STM32H7xx_HAL_Driver/Src/stm32h7xx_ll_usb.c ****   if (ep->is_in == 1U)
 3198              		.loc 1 922 9
 3199 0016 3B68     		ldr	r3, [r7]
 3200 0018 5B78     		ldrb	r3, [r3, #1]	@ zero_extendqisi2
 3201              		.loc 1 922 6
 3202 001a 012B     		cmp	r3, #1
 3203 001c 4AD1     		bne	.L141
 923:Drivers/STM32H7xx_HAL_Driver/Src/stm32h7xx_ll_usb.c ****   {
 924:Drivers/STM32H7xx_HAL_Driver/Src/stm32h7xx_ll_usb.c ****     /* EP enable, IN data in FIFO */
 925:Drivers/STM32H7xx_HAL_Driver/Src/stm32h7xx_ll_usb.c ****     if (((USBx_INEP(ep->num)->DIEPCTL) & USB_OTG_DIEPCTL_EPENA) == USB_OTG_DIEPCTL_EPENA)
 3204              		.loc 1 925 11
 3205 001e 3B68     		ldr	r3, [r7]
 3206 0020 1B78     		ldrb	r3, [r3]	@ zero_extendqisi2
 3207 0022 5A01     		lsls	r2, r3, #5
 3208 0024 3B69     		ldr	r3, [r7, #16]
 3209 0026 1344     		add	r3, r3, r2
 3210 0028 03F51063 		add	r3, r3, #2304
 3211              		.loc 1 925 29
 3212 002c 1B68     		ldr	r3, [r3]
 3213              		.loc 1 925 40
 3214 002e 03F00043 		and	r3, r3, #-2147483648
 3215              		.loc 1 925 8
 3216 0032 B3F1004F 		cmp	r3, #-2147483648
 3217 0036 40F08680 		bne	.L145
 926:Drivers/STM32H7xx_HAL_Driver/Src/stm32h7xx_ll_usb.c ****     {
 927:Drivers/STM32H7xx_HAL_Driver/Src/stm32h7xx_ll_usb.c ****       USBx_INEP(ep->num)->DIEPCTL |= (USB_OTG_DIEPCTL_SNAK);
 3218              		.loc 1 927 7
 3219 003a 3B68     		ldr	r3, [r7]
 3220 003c 1B78     		ldrb	r3, [r3]	@ zero_extendqisi2
 3221              		.loc 1 927 25
 3222 003e 5A01     		lsls	r2, r3, #5
 3223 0040 3B69     		ldr	r3, [r7, #16]
 3224 0042 1344     		add	r3, r3, r2
 3225 0044 03F51063 		add	r3, r3, #2304
 3226 0048 1B68     		ldr	r3, [r3]
 3227              		.loc 1 927 7
 3228 004a 3A68     		ldr	r2, [r7]
 3229 004c 1278     		ldrb	r2, [r2]	@ zero_extendqisi2
 3230              		.loc 1 927 25
 3231 004e 5101     		lsls	r1, r2, #5
 3232 0050 3A69     		ldr	r2, [r7, #16]
 3233 0052 0A44     		add	r2, r2, r1
 3234 0054 02F51062 		add	r2, r2, #2304
 3235              		.loc 1 927 35
 3236 0058 43F00063 		orr	r3, r3, #134217728
 3237 005c 1360     		str	r3, [r2]
 928:Drivers/STM32H7xx_HAL_Driver/Src/stm32h7xx_ll_usb.c ****       USBx_INEP(ep->num)->DIEPCTL |= (USB_OTG_DIEPCTL_EPDIS);
 3238              		.loc 1 928 7
 3239 005e 3B68     		ldr	r3, [r7]
 3240 0060 1B78     		ldrb	r3, [r3]	@ zero_extendqisi2
ARM GAS  C:\Users\23671\AppData\Local\Temp\ccHDlRLJ.s 			page 74


 3241              		.loc 1 928 25
 3242 0062 5A01     		lsls	r2, r3, #5
 3243 0064 3B69     		ldr	r3, [r7, #16]
 3244 0066 1344     		add	r3, r3, r2
 3245 0068 03F51063 		add	r3, r3, #2304
 3246 006c 1B68     		ldr	r3, [r3]
 3247              		.loc 1 928 7
 3248 006e 3A68     		ldr	r2, [r7]
 3249 0070 1278     		ldrb	r2, [r2]	@ zero_extendqisi2
 3250              		.loc 1 928 25
 3251 0072 5101     		lsls	r1, r2, #5
 3252 0074 3A69     		ldr	r2, [r7, #16]
 3253 0076 0A44     		add	r2, r2, r1
 3254 0078 02F51062 		add	r2, r2, #2304
 3255              		.loc 1 928 35
 3256 007c 43F08043 		orr	r3, r3, #1073741824
 3257 0080 1360     		str	r3, [r2]
 3258              	.L144:
 929:Drivers/STM32H7xx_HAL_Driver/Src/stm32h7xx_ll_usb.c **** 
 930:Drivers/STM32H7xx_HAL_Driver/Src/stm32h7xx_ll_usb.c ****       do
 931:Drivers/STM32H7xx_HAL_Driver/Src/stm32h7xx_ll_usb.c ****       {
 932:Drivers/STM32H7xx_HAL_Driver/Src/stm32h7xx_ll_usb.c ****         count++;
 3259              		.loc 1 932 14
 3260 0082 FB68     		ldr	r3, [r7, #12]
 3261 0084 0133     		adds	r3, r3, #1
 3262 0086 FB60     		str	r3, [r7, #12]
 933:Drivers/STM32H7xx_HAL_Driver/Src/stm32h7xx_ll_usb.c **** 
 934:Drivers/STM32H7xx_HAL_Driver/Src/stm32h7xx_ll_usb.c ****         if (count > 10000U)
 3263              		.loc 1 934 19
 3264 0088 FB68     		ldr	r3, [r7, #12]
 3265              		.loc 1 934 12
 3266 008a 42F21072 		movw	r2, #10000
 3267 008e 9342     		cmp	r3, r2
 3268 0090 02D9     		bls	.L143
 935:Drivers/STM32H7xx_HAL_Driver/Src/stm32h7xx_ll_usb.c ****         {
 936:Drivers/STM32H7xx_HAL_Driver/Src/stm32h7xx_ll_usb.c ****           ret = HAL_ERROR;
 3269              		.loc 1 936 15
 3270 0092 0123     		movs	r3, #1
 3271 0094 FB75     		strb	r3, [r7, #23]
 937:Drivers/STM32H7xx_HAL_Driver/Src/stm32h7xx_ll_usb.c ****           break;
 3272              		.loc 1 937 11
 3273 0096 56E0     		b	.L145
 3274              	.L143:
 938:Drivers/STM32H7xx_HAL_Driver/Src/stm32h7xx_ll_usb.c ****         }
 939:Drivers/STM32H7xx_HAL_Driver/Src/stm32h7xx_ll_usb.c ****       } while (((USBx_INEP(ep->num)->DIEPCTL) & USB_OTG_DIEPCTL_EPENA) ==  USB_OTG_DIEPCTL_EPENA);
 3275              		.loc 1 939 18
 3276 0098 3B68     		ldr	r3, [r7]
 3277 009a 1B78     		ldrb	r3, [r3]	@ zero_extendqisi2
 3278 009c 5A01     		lsls	r2, r3, #5
 3279 009e 3B69     		ldr	r3, [r7, #16]
 3280 00a0 1344     		add	r3, r3, r2
 3281 00a2 03F51063 		add	r3, r3, #2304
 3282              		.loc 1 939 36
 3283 00a6 1B68     		ldr	r3, [r3]
 3284              		.loc 1 939 47
 3285 00a8 03F00043 		and	r3, r3, #-2147483648
 3286              		.loc 1 939 72
ARM GAS  C:\Users\23671\AppData\Local\Temp\ccHDlRLJ.s 			page 75


 3287 00ac B3F1004F 		cmp	r3, #-2147483648
 3288 00b0 E7D0     		beq	.L144
 3289 00b2 48E0     		b	.L145
 3290              	.L141:
 940:Drivers/STM32H7xx_HAL_Driver/Src/stm32h7xx_ll_usb.c ****     }
 941:Drivers/STM32H7xx_HAL_Driver/Src/stm32h7xx_ll_usb.c ****   }
 942:Drivers/STM32H7xx_HAL_Driver/Src/stm32h7xx_ll_usb.c ****   else /* OUT endpoint */
 943:Drivers/STM32H7xx_HAL_Driver/Src/stm32h7xx_ll_usb.c ****   {
 944:Drivers/STM32H7xx_HAL_Driver/Src/stm32h7xx_ll_usb.c ****     if (((USBx_OUTEP(ep->num)->DOEPCTL) & USB_OTG_DOEPCTL_EPENA) == USB_OTG_DOEPCTL_EPENA)
 3291              		.loc 1 944 11
 3292 00b4 3B68     		ldr	r3, [r7]
 3293 00b6 1B78     		ldrb	r3, [r3]	@ zero_extendqisi2
 3294 00b8 5A01     		lsls	r2, r3, #5
 3295 00ba 3B69     		ldr	r3, [r7, #16]
 3296 00bc 1344     		add	r3, r3, r2
 3297 00be 03F53063 		add	r3, r3, #2816
 3298              		.loc 1 944 30
 3299 00c2 1B68     		ldr	r3, [r3]
 3300              		.loc 1 944 41
 3301 00c4 03F00043 		and	r3, r3, #-2147483648
 3302              		.loc 1 944 8
 3303 00c8 B3F1004F 		cmp	r3, #-2147483648
 3304 00cc 3BD1     		bne	.L145
 945:Drivers/STM32H7xx_HAL_Driver/Src/stm32h7xx_ll_usb.c ****     {
 946:Drivers/STM32H7xx_HAL_Driver/Src/stm32h7xx_ll_usb.c ****       USBx_OUTEP(ep->num)->DOEPCTL |= (USB_OTG_DOEPCTL_SNAK);
 3305              		.loc 1 946 7
 3306 00ce 3B68     		ldr	r3, [r7]
 3307 00d0 1B78     		ldrb	r3, [r3]	@ zero_extendqisi2
 3308              		.loc 1 946 26
 3309 00d2 5A01     		lsls	r2, r3, #5
 3310 00d4 3B69     		ldr	r3, [r7, #16]
 3311 00d6 1344     		add	r3, r3, r2
 3312 00d8 03F53063 		add	r3, r3, #2816
 3313 00dc 1B68     		ldr	r3, [r3]
 3314              		.loc 1 946 7
 3315 00de 3A68     		ldr	r2, [r7]
 3316 00e0 1278     		ldrb	r2, [r2]	@ zero_extendqisi2
 3317              		.loc 1 946 26
 3318 00e2 5101     		lsls	r1, r2, #5
 3319 00e4 3A69     		ldr	r2, [r7, #16]
 3320 00e6 0A44     		add	r2, r2, r1
 3321 00e8 02F53062 		add	r2, r2, #2816
 3322              		.loc 1 946 36
 3323 00ec 43F00063 		orr	r3, r3, #134217728
 3324 00f0 1360     		str	r3, [r2]
 947:Drivers/STM32H7xx_HAL_Driver/Src/stm32h7xx_ll_usb.c ****       USBx_OUTEP(ep->num)->DOEPCTL |= (USB_OTG_DOEPCTL_EPDIS);
 3325              		.loc 1 947 7
 3326 00f2 3B68     		ldr	r3, [r7]
 3327 00f4 1B78     		ldrb	r3, [r3]	@ zero_extendqisi2
 3328              		.loc 1 947 26
 3329 00f6 5A01     		lsls	r2, r3, #5
 3330 00f8 3B69     		ldr	r3, [r7, #16]
 3331 00fa 1344     		add	r3, r3, r2
 3332 00fc 03F53063 		add	r3, r3, #2816
 3333 0100 1B68     		ldr	r3, [r3]
 3334              		.loc 1 947 7
 3335 0102 3A68     		ldr	r2, [r7]
ARM GAS  C:\Users\23671\AppData\Local\Temp\ccHDlRLJ.s 			page 76


 3336 0104 1278     		ldrb	r2, [r2]	@ zero_extendqisi2
 3337              		.loc 1 947 26
 3338 0106 5101     		lsls	r1, r2, #5
 3339 0108 3A69     		ldr	r2, [r7, #16]
 3340 010a 0A44     		add	r2, r2, r1
 3341 010c 02F53062 		add	r2, r2, #2816
 3342              		.loc 1 947 36
 3343 0110 43F08043 		orr	r3, r3, #1073741824
 3344 0114 1360     		str	r3, [r2]
 3345              	.L147:
 948:Drivers/STM32H7xx_HAL_Driver/Src/stm32h7xx_ll_usb.c **** 
 949:Drivers/STM32H7xx_HAL_Driver/Src/stm32h7xx_ll_usb.c ****       do
 950:Drivers/STM32H7xx_HAL_Driver/Src/stm32h7xx_ll_usb.c ****       {
 951:Drivers/STM32H7xx_HAL_Driver/Src/stm32h7xx_ll_usb.c ****         count++;
 3346              		.loc 1 951 14
 3347 0116 FB68     		ldr	r3, [r7, #12]
 3348 0118 0133     		adds	r3, r3, #1
 3349 011a FB60     		str	r3, [r7, #12]
 952:Drivers/STM32H7xx_HAL_Driver/Src/stm32h7xx_ll_usb.c **** 
 953:Drivers/STM32H7xx_HAL_Driver/Src/stm32h7xx_ll_usb.c ****         if (count > 10000U)
 3350              		.loc 1 953 19
 3351 011c FB68     		ldr	r3, [r7, #12]
 3352              		.loc 1 953 12
 3353 011e 42F21072 		movw	r2, #10000
 3354 0122 9342     		cmp	r3, r2
 3355 0124 02D9     		bls	.L146
 954:Drivers/STM32H7xx_HAL_Driver/Src/stm32h7xx_ll_usb.c ****         {
 955:Drivers/STM32H7xx_HAL_Driver/Src/stm32h7xx_ll_usb.c ****           ret = HAL_ERROR;
 3356              		.loc 1 955 15
 3357 0126 0123     		movs	r3, #1
 3358 0128 FB75     		strb	r3, [r7, #23]
 956:Drivers/STM32H7xx_HAL_Driver/Src/stm32h7xx_ll_usb.c ****           break;
 3359              		.loc 1 956 11
 3360 012a 0CE0     		b	.L145
 3361              	.L146:
 957:Drivers/STM32H7xx_HAL_Driver/Src/stm32h7xx_ll_usb.c ****         }
 958:Drivers/STM32H7xx_HAL_Driver/Src/stm32h7xx_ll_usb.c ****       } while (((USBx_OUTEP(ep->num)->DOEPCTL) & USB_OTG_DOEPCTL_EPENA) ==  USB_OTG_DOEPCTL_EPENA);
 3362              		.loc 1 958 18
 3363 012c 3B68     		ldr	r3, [r7]
 3364 012e 1B78     		ldrb	r3, [r3]	@ zero_extendqisi2
 3365 0130 5A01     		lsls	r2, r3, #5
 3366 0132 3B69     		ldr	r3, [r7, #16]
 3367 0134 1344     		add	r3, r3, r2
 3368 0136 03F53063 		add	r3, r3, #2816
 3369              		.loc 1 958 37
 3370 013a 1B68     		ldr	r3, [r3]
 3371              		.loc 1 958 48
 3372 013c 03F00043 		and	r3, r3, #-2147483648
 3373              		.loc 1 958 73
 3374 0140 B3F1004F 		cmp	r3, #-2147483648
 3375 0144 E7D0     		beq	.L147
 3376              	.L145:
 959:Drivers/STM32H7xx_HAL_Driver/Src/stm32h7xx_ll_usb.c ****     }
 960:Drivers/STM32H7xx_HAL_Driver/Src/stm32h7xx_ll_usb.c ****   }
 961:Drivers/STM32H7xx_HAL_Driver/Src/stm32h7xx_ll_usb.c **** 
 962:Drivers/STM32H7xx_HAL_Driver/Src/stm32h7xx_ll_usb.c ****   return ret;
 3377              		.loc 1 962 10
ARM GAS  C:\Users\23671\AppData\Local\Temp\ccHDlRLJ.s 			page 77


 3378 0146 FB7D     		ldrb	r3, [r7, #23]	@ zero_extendqisi2
 963:Drivers/STM32H7xx_HAL_Driver/Src/stm32h7xx_ll_usb.c **** }
 3379              		.loc 1 963 1
 3380 0148 1846     		mov	r0, r3
 3381 014a 1C37     		adds	r7, r7, #28
 3382              	.LCFI95:
 3383              		.cfi_def_cfa_offset 4
 3384 014c BD46     		mov	sp, r7
 3385              	.LCFI96:
 3386              		.cfi_def_cfa_register 13
 3387              		@ sp needed
 3388 014e 5DF8047B 		ldr	r7, [sp], #4
 3389              	.LCFI97:
 3390              		.cfi_restore 7
 3391              		.cfi_def_cfa_offset 0
 3392 0152 7047     		bx	lr
 3393              		.cfi_endproc
 3394              	.LFE159:
 3396              		.section	.text.USB_WritePacket,"ax",%progbits
 3397              		.align	1
 3398              		.global	USB_WritePacket
 3399              		.syntax unified
 3400              		.thumb
 3401              		.thumb_func
 3403              	USB_WritePacket:
 3404              	.LFB160:
 964:Drivers/STM32H7xx_HAL_Driver/Src/stm32h7xx_ll_usb.c **** 
 965:Drivers/STM32H7xx_HAL_Driver/Src/stm32h7xx_ll_usb.c **** 
 966:Drivers/STM32H7xx_HAL_Driver/Src/stm32h7xx_ll_usb.c **** /**
 967:Drivers/STM32H7xx_HAL_Driver/Src/stm32h7xx_ll_usb.c ****   * @brief  USB_WritePacket : Writes a packet into the Tx FIFO associated
 968:Drivers/STM32H7xx_HAL_Driver/Src/stm32h7xx_ll_usb.c ****   *         with the EP/channel
 969:Drivers/STM32H7xx_HAL_Driver/Src/stm32h7xx_ll_usb.c ****   * @param  USBx  Selected device
 970:Drivers/STM32H7xx_HAL_Driver/Src/stm32h7xx_ll_usb.c ****   * @param  src   pointer to source buffer
 971:Drivers/STM32H7xx_HAL_Driver/Src/stm32h7xx_ll_usb.c ****   * @param  ch_ep_num  endpoint or host channel number
 972:Drivers/STM32H7xx_HAL_Driver/Src/stm32h7xx_ll_usb.c ****   * @param  len  Number of bytes to write
 973:Drivers/STM32H7xx_HAL_Driver/Src/stm32h7xx_ll_usb.c ****   * @param  dma USB dma enabled or disabled
 974:Drivers/STM32H7xx_HAL_Driver/Src/stm32h7xx_ll_usb.c ****   *          This parameter can be one of these values:
 975:Drivers/STM32H7xx_HAL_Driver/Src/stm32h7xx_ll_usb.c ****   *           0 : DMA feature not used
 976:Drivers/STM32H7xx_HAL_Driver/Src/stm32h7xx_ll_usb.c ****   *           1 : DMA feature used
 977:Drivers/STM32H7xx_HAL_Driver/Src/stm32h7xx_ll_usb.c ****   * @retval HAL status
 978:Drivers/STM32H7xx_HAL_Driver/Src/stm32h7xx_ll_usb.c ****   */
 979:Drivers/STM32H7xx_HAL_Driver/Src/stm32h7xx_ll_usb.c **** HAL_StatusTypeDef USB_WritePacket(const USB_OTG_GlobalTypeDef *USBx, uint8_t *src,
 980:Drivers/STM32H7xx_HAL_Driver/Src/stm32h7xx_ll_usb.c ****                                   uint8_t ch_ep_num, uint16_t len, uint8_t dma)
 981:Drivers/STM32H7xx_HAL_Driver/Src/stm32h7xx_ll_usb.c **** {
 3405              		.loc 1 981 1
 3406              		.cfi_startproc
 3407              		@ args = 4, pretend = 0, frame = 32
 3408              		@ frame_needed = 1, uses_anonymous_args = 0
 3409              		@ link register save eliminated.
 3410 0000 80B4     		push	{r7}
 3411              	.LCFI98:
 3412              		.cfi_def_cfa_offset 4
 3413              		.cfi_offset 7, -4
 3414 0002 89B0     		sub	sp, sp, #36
 3415              	.LCFI99:
 3416              		.cfi_def_cfa_offset 40
 3417 0004 00AF     		add	r7, sp, #0
ARM GAS  C:\Users\23671\AppData\Local\Temp\ccHDlRLJ.s 			page 78


 3418              	.LCFI100:
 3419              		.cfi_def_cfa_register 7
 3420 0006 F860     		str	r0, [r7, #12]
 3421 0008 B960     		str	r1, [r7, #8]
 3422 000a 1146     		mov	r1, r2
 3423 000c 1A46     		mov	r2, r3
 3424 000e 0B46     		mov	r3, r1
 3425 0010 FB71     		strb	r3, [r7, #7]
 3426 0012 1346     		mov	r3, r2	@ movhi
 3427 0014 BB80     		strh	r3, [r7, #4]	@ movhi
 982:Drivers/STM32H7xx_HAL_Driver/Src/stm32h7xx_ll_usb.c ****   uint32_t USBx_BASE = (uint32_t)USBx;
 3428              		.loc 1 982 12
 3429 0016 FB68     		ldr	r3, [r7, #12]
 3430 0018 7B61     		str	r3, [r7, #20]
 983:Drivers/STM32H7xx_HAL_Driver/Src/stm32h7xx_ll_usb.c ****   uint8_t *pSrc = src;
 3431              		.loc 1 983 12
 3432 001a BB68     		ldr	r3, [r7, #8]
 3433 001c FB61     		str	r3, [r7, #28]
 984:Drivers/STM32H7xx_HAL_Driver/Src/stm32h7xx_ll_usb.c ****   uint32_t count32b;
 985:Drivers/STM32H7xx_HAL_Driver/Src/stm32h7xx_ll_usb.c ****   uint32_t i;
 986:Drivers/STM32H7xx_HAL_Driver/Src/stm32h7xx_ll_usb.c **** 
 987:Drivers/STM32H7xx_HAL_Driver/Src/stm32h7xx_ll_usb.c ****   if (dma == 0U)
 3434              		.loc 1 987 6
 3435 001e 97F82830 		ldrb	r3, [r7, #40]	@ zero_extendqisi2
 3436 0022 002B     		cmp	r3, #0
 3437 0024 23D1     		bne	.L150
 988:Drivers/STM32H7xx_HAL_Driver/Src/stm32h7xx_ll_usb.c ****   {
 989:Drivers/STM32H7xx_HAL_Driver/Src/stm32h7xx_ll_usb.c ****     count32b = ((uint32_t)len + 3U) / 4U;
 3438              		.loc 1 989 17
 3439 0026 BB88     		ldrh	r3, [r7, #4]
 3440              		.loc 1 989 31
 3441 0028 0333     		adds	r3, r3, #3
 3442              		.loc 1 989 14
 3443 002a 9B08     		lsrs	r3, r3, #2
 3444 002c 3B61     		str	r3, [r7, #16]
 990:Drivers/STM32H7xx_HAL_Driver/Src/stm32h7xx_ll_usb.c ****     for (i = 0U; i < count32b; i++)
 3445              		.loc 1 990 12
 3446 002e 0023     		movs	r3, #0
 3447 0030 BB61     		str	r3, [r7, #24]
 3448              		.loc 1 990 5
 3449 0032 18E0     		b	.L151
 3450              	.L152:
 991:Drivers/STM32H7xx_HAL_Driver/Src/stm32h7xx_ll_usb.c ****     {
 992:Drivers/STM32H7xx_HAL_Driver/Src/stm32h7xx_ll_usb.c ****       USBx_DFIFO((uint32_t)ch_ep_num) = __UNALIGNED_UINT32_READ(pSrc);
 3451              		.loc 1 992 7
 3452 0034 FB79     		ldrb	r3, [r7, #7]	@ zero_extendqisi2
 3453 0036 1A03     		lsls	r2, r3, #12
 3454 0038 7B69     		ldr	r3, [r7, #20]
 3455 003a 1344     		add	r3, r3, r2
 3456 003c 03F58053 		add	r3, r3, #4096
 3457 0040 1A46     		mov	r2, r3
 3458              		.loc 1 992 41
 3459 0042 FB69     		ldr	r3, [r7, #28]
 3460 0044 1B68     		ldr	r3, [r3]	@ unaligned
 3461              		.loc 1 992 39
 3462 0046 1360     		str	r3, [r2]
 993:Drivers/STM32H7xx_HAL_Driver/Src/stm32h7xx_ll_usb.c ****       pSrc++;
ARM GAS  C:\Users\23671\AppData\Local\Temp\ccHDlRLJ.s 			page 79


 3463              		.loc 1 993 11
 3464 0048 FB69     		ldr	r3, [r7, #28]
 3465 004a 0133     		adds	r3, r3, #1
 3466 004c FB61     		str	r3, [r7, #28]
 994:Drivers/STM32H7xx_HAL_Driver/Src/stm32h7xx_ll_usb.c ****       pSrc++;
 3467              		.loc 1 994 11
 3468 004e FB69     		ldr	r3, [r7, #28]
 3469 0050 0133     		adds	r3, r3, #1
 3470 0052 FB61     		str	r3, [r7, #28]
 995:Drivers/STM32H7xx_HAL_Driver/Src/stm32h7xx_ll_usb.c ****       pSrc++;
 3471              		.loc 1 995 11
 3472 0054 FB69     		ldr	r3, [r7, #28]
 3473 0056 0133     		adds	r3, r3, #1
 3474 0058 FB61     		str	r3, [r7, #28]
 996:Drivers/STM32H7xx_HAL_Driver/Src/stm32h7xx_ll_usb.c ****       pSrc++;
 3475              		.loc 1 996 11
 3476 005a FB69     		ldr	r3, [r7, #28]
 3477 005c 0133     		adds	r3, r3, #1
 3478 005e FB61     		str	r3, [r7, #28]
 990:Drivers/STM32H7xx_HAL_Driver/Src/stm32h7xx_ll_usb.c ****     {
 3479              		.loc 1 990 33 discriminator 3
 3480 0060 BB69     		ldr	r3, [r7, #24]
 3481 0062 0133     		adds	r3, r3, #1
 3482 0064 BB61     		str	r3, [r7, #24]
 3483              	.L151:
 990:Drivers/STM32H7xx_HAL_Driver/Src/stm32h7xx_ll_usb.c ****     {
 3484              		.loc 1 990 20 discriminator 1
 3485 0066 BA69     		ldr	r2, [r7, #24]
 3486 0068 3B69     		ldr	r3, [r7, #16]
 3487 006a 9A42     		cmp	r2, r3
 3488 006c E2D3     		bcc	.L152
 3489              	.L150:
 997:Drivers/STM32H7xx_HAL_Driver/Src/stm32h7xx_ll_usb.c ****     }
 998:Drivers/STM32H7xx_HAL_Driver/Src/stm32h7xx_ll_usb.c ****   }
 999:Drivers/STM32H7xx_HAL_Driver/Src/stm32h7xx_ll_usb.c **** 
1000:Drivers/STM32H7xx_HAL_Driver/Src/stm32h7xx_ll_usb.c ****   return HAL_OK;
 3490              		.loc 1 1000 10
 3491 006e 0023     		movs	r3, #0
1001:Drivers/STM32H7xx_HAL_Driver/Src/stm32h7xx_ll_usb.c **** }
 3492              		.loc 1 1001 1
 3493 0070 1846     		mov	r0, r3
 3494 0072 2437     		adds	r7, r7, #36
 3495              	.LCFI101:
 3496              		.cfi_def_cfa_offset 4
 3497 0074 BD46     		mov	sp, r7
 3498              	.LCFI102:
 3499              		.cfi_def_cfa_register 13
 3500              		@ sp needed
 3501 0076 5DF8047B 		ldr	r7, [sp], #4
 3502              	.LCFI103:
 3503              		.cfi_restore 7
 3504              		.cfi_def_cfa_offset 0
 3505 007a 7047     		bx	lr
 3506              		.cfi_endproc
 3507              	.LFE160:
 3509              		.section	.text.USB_ReadPacket,"ax",%progbits
 3510              		.align	1
ARM GAS  C:\Users\23671\AppData\Local\Temp\ccHDlRLJ.s 			page 80


 3511              		.global	USB_ReadPacket
 3512              		.syntax unified
 3513              		.thumb
 3514              		.thumb_func
 3516              	USB_ReadPacket:
 3517              	.LFB161:
1002:Drivers/STM32H7xx_HAL_Driver/Src/stm32h7xx_ll_usb.c **** 
1003:Drivers/STM32H7xx_HAL_Driver/Src/stm32h7xx_ll_usb.c **** /**
1004:Drivers/STM32H7xx_HAL_Driver/Src/stm32h7xx_ll_usb.c ****   * @brief  USB_ReadPacket : read a packet from the RX FIFO
1005:Drivers/STM32H7xx_HAL_Driver/Src/stm32h7xx_ll_usb.c ****   * @param  USBx  Selected device
1006:Drivers/STM32H7xx_HAL_Driver/Src/stm32h7xx_ll_usb.c ****   * @param  dest  source pointer
1007:Drivers/STM32H7xx_HAL_Driver/Src/stm32h7xx_ll_usb.c ****   * @param  len  Number of bytes to read
1008:Drivers/STM32H7xx_HAL_Driver/Src/stm32h7xx_ll_usb.c ****   * @retval pointer to destination buffer
1009:Drivers/STM32H7xx_HAL_Driver/Src/stm32h7xx_ll_usb.c ****   */
1010:Drivers/STM32H7xx_HAL_Driver/Src/stm32h7xx_ll_usb.c **** void *USB_ReadPacket(const USB_OTG_GlobalTypeDef *USBx, uint8_t *dest, uint16_t len)
1011:Drivers/STM32H7xx_HAL_Driver/Src/stm32h7xx_ll_usb.c **** {
 3518              		.loc 1 1011 1
 3519              		.cfi_startproc
 3520              		@ args = 0, pretend = 0, frame = 40
 3521              		@ frame_needed = 1, uses_anonymous_args = 0
 3522              		@ link register save eliminated.
 3523 0000 80B4     		push	{r7}
 3524              	.LCFI104:
 3525              		.cfi_def_cfa_offset 4
 3526              		.cfi_offset 7, -4
 3527 0002 8BB0     		sub	sp, sp, #44
 3528              	.LCFI105:
 3529              		.cfi_def_cfa_offset 48
 3530 0004 00AF     		add	r7, sp, #0
 3531              	.LCFI106:
 3532              		.cfi_def_cfa_register 7
 3533 0006 F860     		str	r0, [r7, #12]
 3534 0008 B960     		str	r1, [r7, #8]
 3535 000a 1346     		mov	r3, r2
 3536 000c FB80     		strh	r3, [r7, #6]	@ movhi
1012:Drivers/STM32H7xx_HAL_Driver/Src/stm32h7xx_ll_usb.c ****   uint32_t USBx_BASE = (uint32_t)USBx;
 3537              		.loc 1 1012 12
 3538 000e FB68     		ldr	r3, [r7, #12]
 3539 0010 BB61     		str	r3, [r7, #24]
1013:Drivers/STM32H7xx_HAL_Driver/Src/stm32h7xx_ll_usb.c ****   uint8_t *pDest = dest;
 3540              		.loc 1 1013 12
 3541 0012 BB68     		ldr	r3, [r7, #8]
 3542 0014 7B62     		str	r3, [r7, #36]
1014:Drivers/STM32H7xx_HAL_Driver/Src/stm32h7xx_ll_usb.c ****   uint32_t pData;
1015:Drivers/STM32H7xx_HAL_Driver/Src/stm32h7xx_ll_usb.c ****   uint32_t i;
1016:Drivers/STM32H7xx_HAL_Driver/Src/stm32h7xx_ll_usb.c ****   uint32_t count32b = (uint32_t)len >> 2U;
 3543              		.loc 1 1016 37
 3544 0016 FB88     		ldrh	r3, [r7, #6]
 3545 0018 9B08     		lsrs	r3, r3, #2
 3546 001a 9BB2     		uxth	r3, r3
 3547              		.loc 1 1016 12
 3548 001c 7B61     		str	r3, [r7, #20]
1017:Drivers/STM32H7xx_HAL_Driver/Src/stm32h7xx_ll_usb.c ****   uint16_t remaining_bytes = len % 4U;
 3549              		.loc 1 1017 12
 3550 001e FB88     		ldrh	r3, [r7, #6]	@ movhi
 3551 0020 03F00303 		and	r3, r3, #3
 3552 0024 FB83     		strh	r3, [r7, #30]	@ movhi
ARM GAS  C:\Users\23671\AppData\Local\Temp\ccHDlRLJ.s 			page 81


1018:Drivers/STM32H7xx_HAL_Driver/Src/stm32h7xx_ll_usb.c **** 
1019:Drivers/STM32H7xx_HAL_Driver/Src/stm32h7xx_ll_usb.c ****   for (i = 0U; i < count32b; i++)
 3553              		.loc 1 1019 10
 3554 0026 0023     		movs	r3, #0
 3555 0028 3B62     		str	r3, [r7, #32]
 3556              		.loc 1 1019 3
 3557 002a 14E0     		b	.L155
 3558              	.L156:
1020:Drivers/STM32H7xx_HAL_Driver/Src/stm32h7xx_ll_usb.c ****   {
1021:Drivers/STM32H7xx_HAL_Driver/Src/stm32h7xx_ll_usb.c ****     __UNALIGNED_UINT32_WRITE(pDest, USBx_DFIFO(0U));
 3559              		.loc 1 1021 5
 3560 002c BB69     		ldr	r3, [r7, #24]
 3561 002e 03F58053 		add	r3, r3, #4096
 3562 0032 1A68     		ldr	r2, [r3]
 3563 0034 7B6A     		ldr	r3, [r7, #36]
 3564 0036 1A60     		str	r2, [r3]	@ unaligned
1022:Drivers/STM32H7xx_HAL_Driver/Src/stm32h7xx_ll_usb.c ****     pDest++;
 3565              		.loc 1 1022 10
 3566 0038 7B6A     		ldr	r3, [r7, #36]
 3567 003a 0133     		adds	r3, r3, #1
 3568 003c 7B62     		str	r3, [r7, #36]
1023:Drivers/STM32H7xx_HAL_Driver/Src/stm32h7xx_ll_usb.c ****     pDest++;
 3569              		.loc 1 1023 10
 3570 003e 7B6A     		ldr	r3, [r7, #36]
 3571 0040 0133     		adds	r3, r3, #1
 3572 0042 7B62     		str	r3, [r7, #36]
1024:Drivers/STM32H7xx_HAL_Driver/Src/stm32h7xx_ll_usb.c ****     pDest++;
 3573              		.loc 1 1024 10
 3574 0044 7B6A     		ldr	r3, [r7, #36]
 3575 0046 0133     		adds	r3, r3, #1
 3576 0048 7B62     		str	r3, [r7, #36]
1025:Drivers/STM32H7xx_HAL_Driver/Src/stm32h7xx_ll_usb.c ****     pDest++;
 3577              		.loc 1 1025 10
 3578 004a 7B6A     		ldr	r3, [r7, #36]
 3579 004c 0133     		adds	r3, r3, #1
 3580 004e 7B62     		str	r3, [r7, #36]
1019:Drivers/STM32H7xx_HAL_Driver/Src/stm32h7xx_ll_usb.c ****   {
 3581              		.loc 1 1019 31 discriminator 3
 3582 0050 3B6A     		ldr	r3, [r7, #32]
 3583 0052 0133     		adds	r3, r3, #1
 3584 0054 3B62     		str	r3, [r7, #32]
 3585              	.L155:
1019:Drivers/STM32H7xx_HAL_Driver/Src/stm32h7xx_ll_usb.c ****   {
 3586              		.loc 1 1019 18 discriminator 1
 3587 0056 3A6A     		ldr	r2, [r7, #32]
 3588 0058 7B69     		ldr	r3, [r7, #20]
 3589 005a 9A42     		cmp	r2, r3
 3590 005c E6D3     		bcc	.L156
1026:Drivers/STM32H7xx_HAL_Driver/Src/stm32h7xx_ll_usb.c ****   }
1027:Drivers/STM32H7xx_HAL_Driver/Src/stm32h7xx_ll_usb.c **** 
1028:Drivers/STM32H7xx_HAL_Driver/Src/stm32h7xx_ll_usb.c ****   /* When Number of data is not word aligned, read the remaining byte */
1029:Drivers/STM32H7xx_HAL_Driver/Src/stm32h7xx_ll_usb.c ****   if (remaining_bytes != 0U)
 3591              		.loc 1 1029 6
 3592 005e FB8B     		ldrh	r3, [r7, #30]
 3593 0060 002B     		cmp	r3, #0
 3594 0062 1ED0     		beq	.L157
1030:Drivers/STM32H7xx_HAL_Driver/Src/stm32h7xx_ll_usb.c ****   {
ARM GAS  C:\Users\23671\AppData\Local\Temp\ccHDlRLJ.s 			page 82


1031:Drivers/STM32H7xx_HAL_Driver/Src/stm32h7xx_ll_usb.c ****     i = 0U;
 3595              		.loc 1 1031 7
 3596 0064 0023     		movs	r3, #0
 3597 0066 3B62     		str	r3, [r7, #32]
1032:Drivers/STM32H7xx_HAL_Driver/Src/stm32h7xx_ll_usb.c ****     __UNALIGNED_UINT32_WRITE(&pData, USBx_DFIFO(0U));
 3598              		.loc 1 1032 5
 3599 0068 BB69     		ldr	r3, [r7, #24]
 3600 006a 03F58053 		add	r3, r3, #4096
 3601 006e 1A46     		mov	r2, r3
 3602 0070 07F11003 		add	r3, r7, #16
 3603 0074 1268     		ldr	r2, [r2]
 3604 0076 1A60     		str	r2, [r3]	@ unaligned
 3605              	.L158:
1033:Drivers/STM32H7xx_HAL_Driver/Src/stm32h7xx_ll_usb.c **** 
1034:Drivers/STM32H7xx_HAL_Driver/Src/stm32h7xx_ll_usb.c ****     do
1035:Drivers/STM32H7xx_HAL_Driver/Src/stm32h7xx_ll_usb.c ****     {
1036:Drivers/STM32H7xx_HAL_Driver/Src/stm32h7xx_ll_usb.c ****       *(uint8_t *)pDest = (uint8_t)(pData >> (8U * (uint8_t)(i)));
 3606              		.loc 1 1036 43
 3607 0078 3A69     		ldr	r2, [r7, #16]
 3608              		.loc 1 1036 52
 3609 007a 3B6A     		ldr	r3, [r7, #32]
 3610 007c DBB2     		uxtb	r3, r3
 3611              		.loc 1 1036 50
 3612 007e DB00     		lsls	r3, r3, #3
 3613              		.loc 1 1036 43
 3614 0080 22FA03F3 		lsr	r3, r2, r3
 3615              		.loc 1 1036 27
 3616 0084 DAB2     		uxtb	r2, r3
 3617              		.loc 1 1036 25
 3618 0086 7B6A     		ldr	r3, [r7, #36]
 3619 0088 1A70     		strb	r2, [r3]
1037:Drivers/STM32H7xx_HAL_Driver/Src/stm32h7xx_ll_usb.c ****       i++;
 3620              		.loc 1 1037 8
 3621 008a 3B6A     		ldr	r3, [r7, #32]
 3622 008c 0133     		adds	r3, r3, #1
 3623 008e 3B62     		str	r3, [r7, #32]
1038:Drivers/STM32H7xx_HAL_Driver/Src/stm32h7xx_ll_usb.c ****       pDest++;
 3624              		.loc 1 1038 12
 3625 0090 7B6A     		ldr	r3, [r7, #36]
 3626 0092 0133     		adds	r3, r3, #1
 3627 0094 7B62     		str	r3, [r7, #36]
1039:Drivers/STM32H7xx_HAL_Driver/Src/stm32h7xx_ll_usb.c ****       remaining_bytes--;
 3628              		.loc 1 1039 22
 3629 0096 FB8B     		ldrh	r3, [r7, #30]
 3630 0098 013B     		subs	r3, r3, #1
 3631 009a FB83     		strh	r3, [r7, #30]	@ movhi
1040:Drivers/STM32H7xx_HAL_Driver/Src/stm32h7xx_ll_usb.c ****     } while (remaining_bytes != 0U);
 3632              		.loc 1 1040 30 discriminator 1
 3633 009c FB8B     		ldrh	r3, [r7, #30]
 3634 009e 002B     		cmp	r3, #0
 3635 00a0 EAD1     		bne	.L158
 3636              	.L157:
1041:Drivers/STM32H7xx_HAL_Driver/Src/stm32h7xx_ll_usb.c ****   }
1042:Drivers/STM32H7xx_HAL_Driver/Src/stm32h7xx_ll_usb.c **** 
1043:Drivers/STM32H7xx_HAL_Driver/Src/stm32h7xx_ll_usb.c ****   return ((void *)pDest);
 3637              		.loc 1 1043 11
 3638 00a2 7B6A     		ldr	r3, [r7, #36]
ARM GAS  C:\Users\23671\AppData\Local\Temp\ccHDlRLJ.s 			page 83


1044:Drivers/STM32H7xx_HAL_Driver/Src/stm32h7xx_ll_usb.c **** }
 3639              		.loc 1 1044 1
 3640 00a4 1846     		mov	r0, r3
 3641 00a6 2C37     		adds	r7, r7, #44
 3642              	.LCFI107:
 3643              		.cfi_def_cfa_offset 4
 3644 00a8 BD46     		mov	sp, r7
 3645              	.LCFI108:
 3646              		.cfi_def_cfa_register 13
 3647              		@ sp needed
 3648 00aa 5DF8047B 		ldr	r7, [sp], #4
 3649              	.LCFI109:
 3650              		.cfi_restore 7
 3651              		.cfi_def_cfa_offset 0
 3652 00ae 7047     		bx	lr
 3653              		.cfi_endproc
 3654              	.LFE161:
 3656              		.section	.text.USB_EPSetStall,"ax",%progbits
 3657              		.align	1
 3658              		.global	USB_EPSetStall
 3659              		.syntax unified
 3660              		.thumb
 3661              		.thumb_func
 3663              	USB_EPSetStall:
 3664              	.LFB162:
1045:Drivers/STM32H7xx_HAL_Driver/Src/stm32h7xx_ll_usb.c **** 
1046:Drivers/STM32H7xx_HAL_Driver/Src/stm32h7xx_ll_usb.c **** /**
1047:Drivers/STM32H7xx_HAL_Driver/Src/stm32h7xx_ll_usb.c ****   * @brief  USB_EPSetStall : set a stall condition over an EP
1048:Drivers/STM32H7xx_HAL_Driver/Src/stm32h7xx_ll_usb.c ****   * @param  USBx  Selected device
1049:Drivers/STM32H7xx_HAL_Driver/Src/stm32h7xx_ll_usb.c ****   * @param  ep pointer to endpoint structure
1050:Drivers/STM32H7xx_HAL_Driver/Src/stm32h7xx_ll_usb.c ****   * @retval HAL status
1051:Drivers/STM32H7xx_HAL_Driver/Src/stm32h7xx_ll_usb.c ****   */
1052:Drivers/STM32H7xx_HAL_Driver/Src/stm32h7xx_ll_usb.c **** HAL_StatusTypeDef USB_EPSetStall(const USB_OTG_GlobalTypeDef *USBx, const USB_OTG_EPTypeDef *ep)
1053:Drivers/STM32H7xx_HAL_Driver/Src/stm32h7xx_ll_usb.c **** {
 3665              		.loc 1 1053 1
 3666              		.cfi_startproc
 3667              		@ args = 0, pretend = 0, frame = 16
 3668              		@ frame_needed = 1, uses_anonymous_args = 0
 3669              		@ link register save eliminated.
 3670 0000 80B4     		push	{r7}
 3671              	.LCFI110:
 3672              		.cfi_def_cfa_offset 4
 3673              		.cfi_offset 7, -4
 3674 0002 85B0     		sub	sp, sp, #20
 3675              	.LCFI111:
 3676              		.cfi_def_cfa_offset 24
 3677 0004 00AF     		add	r7, sp, #0
 3678              	.LCFI112:
 3679              		.cfi_def_cfa_register 7
 3680 0006 7860     		str	r0, [r7, #4]
 3681 0008 3960     		str	r1, [r7]
1054:Drivers/STM32H7xx_HAL_Driver/Src/stm32h7xx_ll_usb.c ****   uint32_t USBx_BASE = (uint32_t)USBx;
 3682              		.loc 1 1054 12
 3683 000a 7B68     		ldr	r3, [r7, #4]
 3684 000c FB60     		str	r3, [r7, #12]
1055:Drivers/STM32H7xx_HAL_Driver/Src/stm32h7xx_ll_usb.c ****   uint32_t epnum = (uint32_t)ep->num;
 3685              		.loc 1 1055 32
ARM GAS  C:\Users\23671\AppData\Local\Temp\ccHDlRLJ.s 			page 84


 3686 000e 3B68     		ldr	r3, [r7]
 3687 0010 1B78     		ldrb	r3, [r3]	@ zero_extendqisi2
 3688              		.loc 1 1055 12
 3689 0012 BB60     		str	r3, [r7, #8]
1056:Drivers/STM32H7xx_HAL_Driver/Src/stm32h7xx_ll_usb.c **** 
1057:Drivers/STM32H7xx_HAL_Driver/Src/stm32h7xx_ll_usb.c ****   if (ep->is_in == 1U)
 3690              		.loc 1 1057 9
 3691 0014 3B68     		ldr	r3, [r7]
 3692 0016 5B78     		ldrb	r3, [r3, #1]	@ zero_extendqisi2
 3693              		.loc 1 1057 6
 3694 0018 012B     		cmp	r3, #1
 3695 001a 2CD1     		bne	.L161
1058:Drivers/STM32H7xx_HAL_Driver/Src/stm32h7xx_ll_usb.c ****   {
1059:Drivers/STM32H7xx_HAL_Driver/Src/stm32h7xx_ll_usb.c ****     if (((USBx_INEP(epnum)->DIEPCTL & USB_OTG_DIEPCTL_EPENA) == 0U) && (epnum != 0U))
 3696              		.loc 1 1059 11
 3697 001c BB68     		ldr	r3, [r7, #8]
 3698 001e 5A01     		lsls	r2, r3, #5
 3699 0020 FB68     		ldr	r3, [r7, #12]
 3700 0022 1344     		add	r3, r3, r2
 3701 0024 03F51063 		add	r3, r3, #2304
 3702              		.loc 1 1059 27
 3703 0028 1B68     		ldr	r3, [r3]
 3704              		.loc 1 1059 8
 3705 002a 002B     		cmp	r3, #0
 3706 002c 12DB     		blt	.L162
 3707              		.loc 1 1059 69 discriminator 1
 3708 002e BB68     		ldr	r3, [r7, #8]
 3709 0030 002B     		cmp	r3, #0
 3710 0032 0FD0     		beq	.L162
1060:Drivers/STM32H7xx_HAL_Driver/Src/stm32h7xx_ll_usb.c ****     {
1061:Drivers/STM32H7xx_HAL_Driver/Src/stm32h7xx_ll_usb.c ****       USBx_INEP(epnum)->DIEPCTL &= ~(USB_OTG_DIEPCTL_EPDIS);
 3711              		.loc 1 1061 23
 3712 0034 BB68     		ldr	r3, [r7, #8]
 3713 0036 5A01     		lsls	r2, r3, #5
 3714 0038 FB68     		ldr	r3, [r7, #12]
 3715 003a 1344     		add	r3, r3, r2
 3716 003c 03F51063 		add	r3, r3, #2304
 3717 0040 1B68     		ldr	r3, [r3]
 3718 0042 BA68     		ldr	r2, [r7, #8]
 3719 0044 5101     		lsls	r1, r2, #5
 3720 0046 FA68     		ldr	r2, [r7, #12]
 3721 0048 0A44     		add	r2, r2, r1
 3722 004a 02F51062 		add	r2, r2, #2304
 3723              		.loc 1 1061 33
 3724 004e 23F08043 		bic	r3, r3, #1073741824
 3725 0052 1360     		str	r3, [r2]
 3726              	.L162:
1062:Drivers/STM32H7xx_HAL_Driver/Src/stm32h7xx_ll_usb.c ****     }
1063:Drivers/STM32H7xx_HAL_Driver/Src/stm32h7xx_ll_usb.c ****     USBx_INEP(epnum)->DIEPCTL |= USB_OTG_DIEPCTL_STALL;
 3727              		.loc 1 1063 21
 3728 0054 BB68     		ldr	r3, [r7, #8]
 3729 0056 5A01     		lsls	r2, r3, #5
 3730 0058 FB68     		ldr	r3, [r7, #12]
 3731 005a 1344     		add	r3, r3, r2
 3732 005c 03F51063 		add	r3, r3, #2304
 3733 0060 1B68     		ldr	r3, [r3]
 3734 0062 BA68     		ldr	r2, [r7, #8]
ARM GAS  C:\Users\23671\AppData\Local\Temp\ccHDlRLJ.s 			page 85


 3735 0064 5101     		lsls	r1, r2, #5
 3736 0066 FA68     		ldr	r2, [r7, #12]
 3737 0068 0A44     		add	r2, r2, r1
 3738 006a 02F51062 		add	r2, r2, #2304
 3739              		.loc 1 1063 31
 3740 006e 43F40013 		orr	r3, r3, #2097152
 3741 0072 1360     		str	r3, [r2]
 3742 0074 2BE0     		b	.L163
 3743              	.L161:
1064:Drivers/STM32H7xx_HAL_Driver/Src/stm32h7xx_ll_usb.c ****   }
1065:Drivers/STM32H7xx_HAL_Driver/Src/stm32h7xx_ll_usb.c ****   else
1066:Drivers/STM32H7xx_HAL_Driver/Src/stm32h7xx_ll_usb.c ****   {
1067:Drivers/STM32H7xx_HAL_Driver/Src/stm32h7xx_ll_usb.c ****     if (((USBx_OUTEP(epnum)->DOEPCTL & USB_OTG_DOEPCTL_EPENA) == 0U) && (epnum != 0U))
 3744              		.loc 1 1067 11
 3745 0076 BB68     		ldr	r3, [r7, #8]
 3746 0078 5A01     		lsls	r2, r3, #5
 3747 007a FB68     		ldr	r3, [r7, #12]
 3748 007c 1344     		add	r3, r3, r2
 3749 007e 03F53063 		add	r3, r3, #2816
 3750              		.loc 1 1067 28
 3751 0082 1B68     		ldr	r3, [r3]
 3752              		.loc 1 1067 8
 3753 0084 002B     		cmp	r3, #0
 3754 0086 12DB     		blt	.L164
 3755              		.loc 1 1067 70 discriminator 1
 3756 0088 BB68     		ldr	r3, [r7, #8]
 3757 008a 002B     		cmp	r3, #0
 3758 008c 0FD0     		beq	.L164
1068:Drivers/STM32H7xx_HAL_Driver/Src/stm32h7xx_ll_usb.c ****     {
1069:Drivers/STM32H7xx_HAL_Driver/Src/stm32h7xx_ll_usb.c ****       USBx_OUTEP(epnum)->DOEPCTL &= ~(USB_OTG_DOEPCTL_EPDIS);
 3759              		.loc 1 1069 24
 3760 008e BB68     		ldr	r3, [r7, #8]
 3761 0090 5A01     		lsls	r2, r3, #5
 3762 0092 FB68     		ldr	r3, [r7, #12]
 3763 0094 1344     		add	r3, r3, r2
 3764 0096 03F53063 		add	r3, r3, #2816
 3765 009a 1B68     		ldr	r3, [r3]
 3766 009c BA68     		ldr	r2, [r7, #8]
 3767 009e 5101     		lsls	r1, r2, #5
 3768 00a0 FA68     		ldr	r2, [r7, #12]
 3769 00a2 0A44     		add	r2, r2, r1
 3770 00a4 02F53062 		add	r2, r2, #2816
 3771              		.loc 1 1069 34
 3772 00a8 23F08043 		bic	r3, r3, #1073741824
 3773 00ac 1360     		str	r3, [r2]
 3774              	.L164:
1070:Drivers/STM32H7xx_HAL_Driver/Src/stm32h7xx_ll_usb.c ****     }
1071:Drivers/STM32H7xx_HAL_Driver/Src/stm32h7xx_ll_usb.c ****     USBx_OUTEP(epnum)->DOEPCTL |= USB_OTG_DOEPCTL_STALL;
 3775              		.loc 1 1071 22
 3776 00ae BB68     		ldr	r3, [r7, #8]
 3777 00b0 5A01     		lsls	r2, r3, #5
 3778 00b2 FB68     		ldr	r3, [r7, #12]
 3779 00b4 1344     		add	r3, r3, r2
 3780 00b6 03F53063 		add	r3, r3, #2816
 3781 00ba 1B68     		ldr	r3, [r3]
 3782 00bc BA68     		ldr	r2, [r7, #8]
 3783 00be 5101     		lsls	r1, r2, #5
ARM GAS  C:\Users\23671\AppData\Local\Temp\ccHDlRLJ.s 			page 86


 3784 00c0 FA68     		ldr	r2, [r7, #12]
 3785 00c2 0A44     		add	r2, r2, r1
 3786 00c4 02F53062 		add	r2, r2, #2816
 3787              		.loc 1 1071 32
 3788 00c8 43F40013 		orr	r3, r3, #2097152
 3789 00cc 1360     		str	r3, [r2]
 3790              	.L163:
1072:Drivers/STM32H7xx_HAL_Driver/Src/stm32h7xx_ll_usb.c ****   }
1073:Drivers/STM32H7xx_HAL_Driver/Src/stm32h7xx_ll_usb.c **** 
1074:Drivers/STM32H7xx_HAL_Driver/Src/stm32h7xx_ll_usb.c ****   return HAL_OK;
 3791              		.loc 1 1074 10
 3792 00ce 0023     		movs	r3, #0
1075:Drivers/STM32H7xx_HAL_Driver/Src/stm32h7xx_ll_usb.c **** }
 3793              		.loc 1 1075 1
 3794 00d0 1846     		mov	r0, r3
 3795 00d2 1437     		adds	r7, r7, #20
 3796              	.LCFI113:
 3797              		.cfi_def_cfa_offset 4
 3798 00d4 BD46     		mov	sp, r7
 3799              	.LCFI114:
 3800              		.cfi_def_cfa_register 13
 3801              		@ sp needed
 3802 00d6 5DF8047B 		ldr	r7, [sp], #4
 3803              	.LCFI115:
 3804              		.cfi_restore 7
 3805              		.cfi_def_cfa_offset 0
 3806 00da 7047     		bx	lr
 3807              		.cfi_endproc
 3808              	.LFE162:
 3810              		.section	.text.USB_EPClearStall,"ax",%progbits
 3811              		.align	1
 3812              		.global	USB_EPClearStall
 3813              		.syntax unified
 3814              		.thumb
 3815              		.thumb_func
 3817              	USB_EPClearStall:
 3818              	.LFB163:
1076:Drivers/STM32H7xx_HAL_Driver/Src/stm32h7xx_ll_usb.c **** 
1077:Drivers/STM32H7xx_HAL_Driver/Src/stm32h7xx_ll_usb.c **** /**
1078:Drivers/STM32H7xx_HAL_Driver/Src/stm32h7xx_ll_usb.c ****   * @brief  USB_EPClearStall : Clear a stall condition over an EP
1079:Drivers/STM32H7xx_HAL_Driver/Src/stm32h7xx_ll_usb.c ****   * @param  USBx  Selected device
1080:Drivers/STM32H7xx_HAL_Driver/Src/stm32h7xx_ll_usb.c ****   * @param  ep pointer to endpoint structure
1081:Drivers/STM32H7xx_HAL_Driver/Src/stm32h7xx_ll_usb.c ****   * @retval HAL status
1082:Drivers/STM32H7xx_HAL_Driver/Src/stm32h7xx_ll_usb.c ****   */
1083:Drivers/STM32H7xx_HAL_Driver/Src/stm32h7xx_ll_usb.c **** HAL_StatusTypeDef USB_EPClearStall(const USB_OTG_GlobalTypeDef *USBx, const USB_OTG_EPTypeDef *ep)
1084:Drivers/STM32H7xx_HAL_Driver/Src/stm32h7xx_ll_usb.c **** {
 3819              		.loc 1 1084 1
 3820              		.cfi_startproc
 3821              		@ args = 0, pretend = 0, frame = 16
 3822              		@ frame_needed = 1, uses_anonymous_args = 0
 3823              		@ link register save eliminated.
 3824 0000 80B4     		push	{r7}
 3825              	.LCFI116:
 3826              		.cfi_def_cfa_offset 4
 3827              		.cfi_offset 7, -4
 3828 0002 85B0     		sub	sp, sp, #20
 3829              	.LCFI117:
ARM GAS  C:\Users\23671\AppData\Local\Temp\ccHDlRLJ.s 			page 87


 3830              		.cfi_def_cfa_offset 24
 3831 0004 00AF     		add	r7, sp, #0
 3832              	.LCFI118:
 3833              		.cfi_def_cfa_register 7
 3834 0006 7860     		str	r0, [r7, #4]
 3835 0008 3960     		str	r1, [r7]
1085:Drivers/STM32H7xx_HAL_Driver/Src/stm32h7xx_ll_usb.c ****   uint32_t USBx_BASE = (uint32_t)USBx;
 3836              		.loc 1 1085 12
 3837 000a 7B68     		ldr	r3, [r7, #4]
 3838 000c FB60     		str	r3, [r7, #12]
1086:Drivers/STM32H7xx_HAL_Driver/Src/stm32h7xx_ll_usb.c ****   uint32_t epnum = (uint32_t)ep->num;
 3839              		.loc 1 1086 32
 3840 000e 3B68     		ldr	r3, [r7]
 3841 0010 1B78     		ldrb	r3, [r3]	@ zero_extendqisi2
 3842              		.loc 1 1086 12
 3843 0012 BB60     		str	r3, [r7, #8]
1087:Drivers/STM32H7xx_HAL_Driver/Src/stm32h7xx_ll_usb.c **** 
1088:Drivers/STM32H7xx_HAL_Driver/Src/stm32h7xx_ll_usb.c ****   if (ep->is_in == 1U)
 3844              		.loc 1 1088 9
 3845 0014 3B68     		ldr	r3, [r7]
 3846 0016 5B78     		ldrb	r3, [r3, #1]	@ zero_extendqisi2
 3847              		.loc 1 1088 6
 3848 0018 012B     		cmp	r3, #1
 3849 001a 28D1     		bne	.L167
1089:Drivers/STM32H7xx_HAL_Driver/Src/stm32h7xx_ll_usb.c ****   {
1090:Drivers/STM32H7xx_HAL_Driver/Src/stm32h7xx_ll_usb.c ****     USBx_INEP(epnum)->DIEPCTL &= ~USB_OTG_DIEPCTL_STALL;
 3850              		.loc 1 1090 21
 3851 001c BB68     		ldr	r3, [r7, #8]
 3852 001e 5A01     		lsls	r2, r3, #5
 3853 0020 FB68     		ldr	r3, [r7, #12]
 3854 0022 1344     		add	r3, r3, r2
 3855 0024 03F51063 		add	r3, r3, #2304
 3856 0028 1B68     		ldr	r3, [r3]
 3857 002a BA68     		ldr	r2, [r7, #8]
 3858 002c 5101     		lsls	r1, r2, #5
 3859 002e FA68     		ldr	r2, [r7, #12]
 3860 0030 0A44     		add	r2, r2, r1
 3861 0032 02F51062 		add	r2, r2, #2304
 3862              		.loc 1 1090 31
 3863 0036 23F40013 		bic	r3, r3, #2097152
 3864 003a 1360     		str	r3, [r2]
1091:Drivers/STM32H7xx_HAL_Driver/Src/stm32h7xx_ll_usb.c ****     if ((ep->type == EP_TYPE_INTR) || (ep->type == EP_TYPE_BULK))
 3865              		.loc 1 1091 12
 3866 003c 3B68     		ldr	r3, [r7]
 3867 003e 1B79     		ldrb	r3, [r3, #4]	@ zero_extendqisi2
 3868              		.loc 1 1091 8
 3869 0040 032B     		cmp	r3, #3
 3870 0042 03D0     		beq	.L168
 3871              		.loc 1 1091 42 discriminator 1
 3872 0044 3B68     		ldr	r3, [r7]
 3873 0046 1B79     		ldrb	r3, [r3, #4]	@ zero_extendqisi2
 3874              		.loc 1 1091 36 discriminator 1
 3875 0048 022B     		cmp	r3, #2
 3876 004a 38D1     		bne	.L169
 3877              	.L168:
1092:Drivers/STM32H7xx_HAL_Driver/Src/stm32h7xx_ll_usb.c ****     {
