ARM GAS  C:\Users\fffff\AppData\Local\Temp\ccnuqzHD.s 			page 1


   1              		.cpu cortex-m7
   2              		.arch armv7e-m
   3              		.fpu fpv5-d16
   4              		.eabi_attribute 28, 1
   5              		.eabi_attribute 20, 1
   6              		.eabi_attribute 21, 1
   7              		.eabi_attribute 23, 3
   8              		.eabi_attribute 24, 1
   9              		.eabi_attribute 25, 1
  10              		.eabi_attribute 26, 1
  11              		.eabi_attribute 30, 6
  12              		.eabi_attribute 34, 1
  13              		.eabi_attribute 18, 4
  14              		.file	"UART_data_txrx.c"
  15              		.text
  16              	.Ltext0:
  17              		.cfi_sections	.debug_frame
  18              		.file 1 "User/BSP/UART_data_txrx.c"
  19              		.global	UART1_data
  20              		.section	.bss.UART1_data,"aw",%nobits
  21              		.align	2
  24              	UART1_data:
  25 0000 00000000 		.space	269
  25      00000000 
  25      00000000 
  25      00000000 
  25      00000000 
  26              		.global	UART2_data
  27              		.section	.bss.UART2_data,"aw",%nobits
  28              		.align	2
  31              	UART2_data:
  32 0000 00000000 		.space	269
  32      00000000 
  32      00000000 
  32      00000000 
  32      00000000 
  33              		.global	UART3_data
  34              		.section	.bss.UART3_data,"aw",%nobits
  35              		.align	2
  38              	UART3_data:
  39 0000 00000000 		.space	269
  39      00000000 
  39      00000000 
  39      00000000 
  39      00000000 
  40              		.global	UART5_data
  41              		.section	.bss.UART5_data,"aw",%nobits
  42              		.align	2
  45              	UART5_data:
  46 0000 00000000 		.space	269
  46      00000000 
  46      00000000 
  46      00000000 
  46      00000000 
  47              		.global	UART7_data
  48              		.section	.bss.UART7_data,"aw",%nobits
  49              		.align	2
ARM GAS  C:\Users\fffff\AppData\Local\Temp\ccnuqzHD.s 			page 2


  52              	UART7_data:
  53 0000 00000000 		.space	269
  53      00000000 
  53      00000000 
  53      00000000 
  53      00000000 
  54              		.global	UART10_data
  55              		.section	.bss.UART10_data,"aw",%nobits
  56              		.align	2
  59              	UART10_data:
  60 0000 00000000 		.space	269
  60      00000000 
  60      00000000 
  60      00000000 
  60      00000000 
  61              		.section	.text.uart_init,"ax",%progbits
  62              		.align	1
  63              		.global	uart_init
  64              		.syntax unified
  65              		.thumb
  66              		.thumb_func
  68              	uart_init:
  69              	.LFB147:
   1:User/BSP/UART_data_txrx.c **** /**
   2:User/BSP/UART_data_txrx.c ****  * @file UART_data_txrx.c
   3:User/BSP/UART_data_txrx.c ****  * @author sethome
   4:User/BSP/UART_data_txrx.c ****  * @brief 串口数据发送接受
   5:User/BSP/UART_data_txrx.c ****  * @version 0.1
   6:User/BSP/UART_data_txrx.c ****  * @date 2022-11-20
   7:User/BSP/UART_data_txrx.c ****  *
   8:User/BSP/UART_data_txrx.c ****  * @copyright Copyright (c) 2022 sethome
   9:User/BSP/UART_data_txrx.c ****  *
  10:User/BSP/UART_data_txrx.c ****  */
  11:User/BSP/UART_data_txrx.c **** // #include "fifo.h"
  12:User/BSP/UART_data_txrx.c **** #include "stdio.h"
  13:User/BSP/UART_data_txrx.c **** #include "stdlib.h"
  14:User/BSP/UART_data_txrx.c **** #include "string.h"
  15:User/BSP/UART_data_txrx.c **** #include "fifo.h"
  16:User/BSP/UART_data_txrx.c **** 
  17:User/BSP/UART_data_txrx.c **** #include "UART_data_txrx.h"
  18:User/BSP/UART_data_txrx.c **** 
  19:User/BSP/UART_data_txrx.c **** #include "DT7.h"
  20:User/BSP/UART_data_txrx.c **** #include "referee_system.h"
  21:User/BSP/UART_data_txrx.c **** #include "Global_status.h"
  22:User/BSP/UART_data_txrx.c **** #include "Auto_control.h"
  23:User/BSP/UART_data_txrx.c **** 
  24:User/BSP/UART_data_txrx.c **** // DMA控制变量
  25:User/BSP/UART_data_txrx.c **** extern DMA_HandleTypeDef hdma_uart5_rx; // 遥控器，仅用接受
  26:User/BSP/UART_data_txrx.c **** extern DMA_HandleTypeDef hdma_uart7_rx; // 串口7，连接图传模块
  27:User/BSP/UART_data_txrx.c **** extern DMA_HandleTypeDef hdma_uart7_tx;
  28:User/BSP/UART_data_txrx.c **** extern DMA_HandleTypeDef hdma_usart10_rx; // 串口10，连接电源管理模块
  29:User/BSP/UART_data_txrx.c **** extern DMA_HandleTypeDef hdma_usart10_tx;
  30:User/BSP/UART_data_txrx.c **** extern DMA_HandleTypeDef hdma_usart1_rx;
  31:User/BSP/UART_data_txrx.c **** extern DMA_HandleTypeDef hdma_usart1_tx;
  32:User/BSP/UART_data_txrx.c **** extern DMA_HandleTypeDef hdma_usart2_rx;
  33:User/BSP/UART_data_txrx.c **** extern DMA_HandleTypeDef hdma_usart2_tx;
  34:User/BSP/UART_data_txrx.c **** extern DMA_HandleTypeDef hdma_usart3_rx;
ARM GAS  C:\Users\fffff\AppData\Local\Temp\ccnuqzHD.s 			page 3


  35:User/BSP/UART_data_txrx.c **** extern DMA_HandleTypeDef hdma_usart3_tx;
  36:User/BSP/UART_data_txrx.c **** 
  37:User/BSP/UART_data_txrx.c **** // 串口控制变量
  38:User/BSP/UART_data_txrx.c **** extern UART_HandleTypeDef huart1;
  39:User/BSP/UART_data_txrx.c **** extern UART_HandleTypeDef huart2;
  40:User/BSP/UART_data_txrx.c **** extern UART_HandleTypeDef huart3;
  41:User/BSP/UART_data_txrx.c **** extern UART_HandleTypeDef huart5; // 遥控器，可能用不到
  42:User/BSP/UART_data_txrx.c **** extern UART_HandleTypeDef huart7;
  43:User/BSP/UART_data_txrx.c **** extern UART_HandleTypeDef huart10;
  44:User/BSP/UART_data_txrx.c **** 
  45:User/BSP/UART_data_txrx.c **** // 将上述串口+DMA整合，并包含缓冲区
  46:User/BSP/UART_data_txrx.c **** transmit_data UART1_data;
  47:User/BSP/UART_data_txrx.c **** transmit_data UART2_data;
  48:User/BSP/UART_data_txrx.c **** transmit_data UART3_data;
  49:User/BSP/UART_data_txrx.c **** transmit_data UART5_data;
  50:User/BSP/UART_data_txrx.c **** transmit_data UART7_data;
  51:User/BSP/UART_data_txrx.c **** transmit_data UART10_data;
  52:User/BSP/UART_data_txrx.c **** 
  53:User/BSP/UART_data_txrx.c **** /**
  54:User/BSP/UART_data_txrx.c ****  * @brief 串口初始化
  55:User/BSP/UART_data_txrx.c ****  *
  56:User/BSP/UART_data_txrx.c ****  * @return * void
  57:User/BSP/UART_data_txrx.c ****  */
  58:User/BSP/UART_data_txrx.c **** void uart_init(void)
  59:User/BSP/UART_data_txrx.c **** {
  70              		.loc 1 59 1
  71              		.cfi_startproc
  72              		@ args = 0, pretend = 0, frame = 0
  73              		@ frame_needed = 1, uses_anonymous_args = 0
  74 0000 80B5     		push	{r7, lr}
  75              	.LCFI0:
  76              		.cfi_def_cfa_offset 8
  77              		.cfi_offset 7, -8
  78              		.cfi_offset 14, -4
  79 0002 00AF     		add	r7, sp, #0
  80              	.LCFI1:
  81              		.cfi_def_cfa_register 7
  60:User/BSP/UART_data_txrx.c ****   UART_DMA_rxtx_start(&UART1_data, &huart1, &hdma_usart1_rx, &hdma_usart1_rx);
  82              		.loc 1 60 3
  83 0004 124B     		ldr	r3, .L2
  84 0006 124A     		ldr	r2, .L2
  85 0008 1249     		ldr	r1, .L2+4
  86 000a 1348     		ldr	r0, .L2+8
  87 000c FFF7FEFF 		bl	UART_DMA_rxtx_start
  61:User/BSP/UART_data_txrx.c ****   UART_DMA_rxtx_start(&UART2_data, &huart2, &hdma_usart2_rx, &hdma_usart2_rx);
  88              		.loc 1 61 3
  89 0010 124B     		ldr	r3, .L2+12
  90 0012 124A     		ldr	r2, .L2+12
  91 0014 1249     		ldr	r1, .L2+16
  92 0016 1348     		ldr	r0, .L2+20
  93 0018 FFF7FEFF 		bl	UART_DMA_rxtx_start
  62:User/BSP/UART_data_txrx.c ****   UART_DMA_rxtx_start(&UART3_data, &huart3, &hdma_usart3_rx, &hdma_usart3_rx);
  94              		.loc 1 62 3
  95 001c 124B     		ldr	r3, .L2+24
  96 001e 124A     		ldr	r2, .L2+24
  97 0020 1249     		ldr	r1, .L2+28
  98 0022 1348     		ldr	r0, .L2+32
ARM GAS  C:\Users\fffff\AppData\Local\Temp\ccnuqzHD.s 			page 4


  99 0024 FFF7FEFF 		bl	UART_DMA_rxtx_start
  63:User/BSP/UART_data_txrx.c ****   UART_DMA_rxtx_start(&UART5_data, &huart5, &hdma_uart5_rx, &hdma_uart5_rx);
 100              		.loc 1 63 3
 101 0028 124B     		ldr	r3, .L2+36
 102 002a 124A     		ldr	r2, .L2+36
 103 002c 1249     		ldr	r1, .L2+40
 104 002e 1348     		ldr	r0, .L2+44
 105 0030 FFF7FEFF 		bl	UART_DMA_rxtx_start
  64:User/BSP/UART_data_txrx.c ****   UART_DMA_rxtx_start(&UART7_data, &huart7, &hdma_uart7_rx, &hdma_uart7_tx);
 106              		.loc 1 64 3
 107 0034 124B     		ldr	r3, .L2+48
 108 0036 134A     		ldr	r2, .L2+52
 109 0038 1349     		ldr	r1, .L2+56
 110 003a 1448     		ldr	r0, .L2+60
 111 003c FFF7FEFF 		bl	UART_DMA_rxtx_start
  65:User/BSP/UART_data_txrx.c ****   UART_DMA_rxtx_start(&UART10_data, &huart10, &hdma_usart10_rx, &hdma_usart10_tx);
 112              		.loc 1 65 3
 113 0040 134B     		ldr	r3, .L2+64
 114 0042 144A     		ldr	r2, .L2+68
 115 0044 1449     		ldr	r1, .L2+72
 116 0046 1548     		ldr	r0, .L2+76
 117 0048 FFF7FEFF 		bl	UART_DMA_rxtx_start
  66:User/BSP/UART_data_txrx.c **** }
 118              		.loc 1 66 1
 119 004c 00BF     		nop
 120 004e 80BD     		pop	{r7, pc}
 121              	.L3:
 122              		.align	2
 123              	.L2:
 124 0050 00000000 		.word	hdma_usart1_rx
 125 0054 00000000 		.word	huart1
 126 0058 00000000 		.word	UART1_data
 127 005c 00000000 		.word	hdma_usart2_rx
 128 0060 00000000 		.word	huart2
 129 0064 00000000 		.word	UART2_data
 130 0068 00000000 		.word	hdma_usart3_rx
 131 006c 00000000 		.word	huart3
 132 0070 00000000 		.word	UART3_data
 133 0074 00000000 		.word	hdma_uart5_rx
 134 0078 00000000 		.word	huart5
 135 007c 00000000 		.word	UART5_data
 136 0080 00000000 		.word	hdma_uart7_tx
 137 0084 00000000 		.word	hdma_uart7_rx
 138 0088 00000000 		.word	huart7
 139 008c 00000000 		.word	UART7_data
 140 0090 00000000 		.word	hdma_usart10_tx
 141 0094 00000000 		.word	hdma_usart10_rx
 142 0098 00000000 		.word	huart10
 143 009c 00000000 		.word	UART10_data
 144              		.cfi_endproc
 145              	.LFE147:
 147              		.section	.text.UART_DMA_rxtx_start,"ax",%progbits
 148              		.align	1
 149              		.global	UART_DMA_rxtx_start
 150              		.syntax unified
 151              		.thumb
 152              		.thumb_func
ARM GAS  C:\Users\fffff\AppData\Local\Temp\ccnuqzHD.s 			page 5


 154              	UART_DMA_rxtx_start:
 155              	.LFB148:
  67:User/BSP/UART_data_txrx.c **** 
  68:User/BSP/UART_data_txrx.c **** /**
  69:User/BSP/UART_data_txrx.c ****  * @brief DMA，串口中断启动，d(?ω?`)o温馨提示，可以在头文件里用宏自定义串口缓冲区大小，
  70:User/BSP/UART_data_txrx.c ****  * @param data 串口整合包指针
  71:User/BSP/UART_data_txrx.c ****  * @param huart 串口指针
  72:User/BSP/UART_data_txrx.c ****  * @param hdma_usart_rx 串口接受dma指针
  73:User/BSP/UART_data_txrx.c ****  * @param hdma_usart_tx 串口发送dma指针
  74:User/BSP/UART_data_txrx.c ****  */
  75:User/BSP/UART_data_txrx.c **** void UART_DMA_rxtx_start(transmit_data *data, UART_HandleTypeDef *huart, DMA_HandleTypeDef *hdma_us
  76:User/BSP/UART_data_txrx.c **** {
 156              		.loc 1 76 1
 157              		.cfi_startproc
 158              		@ args = 0, pretend = 0, frame = 16
 159              		@ frame_needed = 1, uses_anonymous_args = 0
 160 0000 80B5     		push	{r7, lr}
 161              	.LCFI2:
 162              		.cfi_def_cfa_offset 8
 163              		.cfi_offset 7, -8
 164              		.cfi_offset 14, -4
 165 0002 84B0     		sub	sp, sp, #16
 166              	.LCFI3:
 167              		.cfi_def_cfa_offset 24
 168 0004 00AF     		add	r7, sp, #0
 169              	.LCFI4:
 170              		.cfi_def_cfa_register 7
 171 0006 F860     		str	r0, [r7, #12]
 172 0008 B960     		str	r1, [r7, #8]
 173 000a 7A60     		str	r2, [r7, #4]
 174 000c 3B60     		str	r3, [r7]
  77:User/BSP/UART_data_txrx.c ****   data->huart = huart;                 // 串口控制变量
 175              		.loc 1 77 15
 176 000e FB68     		ldr	r3, [r7, #12]
 177 0010 BA68     		ldr	r2, [r7, #8]
 178 0012 1A60     		str	r2, [r3]	@ unaligned
  78:User/BSP/UART_data_txrx.c ****   data->hdma_usart_rx = hdma_usart_rx; // DMA接收缓冲
 179              		.loc 1 78 23
 180 0014 FB68     		ldr	r3, [r7, #12]
 181 0016 7A68     		ldr	r2, [r7, #4]
 182 0018 5A60     		str	r2, [r3, #4]	@ unaligned
  79:User/BSP/UART_data_txrx.c ****   data->hdma_usart_tx = hdma_usart_tx; // DMA发送缓冲
 183              		.loc 1 79 23
 184 001a FB68     		ldr	r3, [r7, #12]
 185 001c 3A68     		ldr	r2, [r7]
 186 001e 9A60     		str	r2, [r3, #8]	@ unaligned
  80:User/BSP/UART_data_txrx.c **** 
  81:User/BSP/UART_data_txrx.c ****   HAL_UARTEx_ReceiveToIdle_DMA(huart, data->rev_data, UART_BUFFER_SIZE); // 开启DMA批量数据接受
 187              		.loc 1 81 43
 188 0020 FB68     		ldr	r3, [r7, #12]
 189 0022 0C33     		adds	r3, r3, #12
 190              		.loc 1 81 3
 191 0024 4FF48072 		mov	r2, #256
 192 0028 1946     		mov	r1, r3
 193 002a B868     		ldr	r0, [r7, #8]
 194 002c FFF7FEFF 		bl	HAL_UARTEx_ReceiveToIdle_DMA
  82:User/BSP/UART_data_txrx.c ****   __HAL_DMA_DISABLE_IT(huart->hdmarx, DMA_IT_HT);                        // 关闭接受过半中断
ARM GAS  C:\Users\fffff\AppData\Local\Temp\ccnuqzHD.s 			page 6


 195              		.loc 1 82 3
 196 0030 BB68     		ldr	r3, [r7, #8]
 197 0032 D3F88030 		ldr	r3, [r3, #128]
 198 0036 1B68     		ldr	r3, [r3]
 199 0038 444A     		ldr	r2, .L8
 200 003a 9342     		cmp	r3, r2
 201 003c 68D0     		beq	.L5
 202              		.loc 1 82 3 is_stmt 0 discriminator 2
 203 003e BB68     		ldr	r3, [r7, #8]
 204 0040 D3F88030 		ldr	r3, [r3, #128]
 205 0044 1B68     		ldr	r3, [r3]
 206 0046 424A     		ldr	r2, .L8+4
 207 0048 9342     		cmp	r3, r2
 208 004a 61D0     		beq	.L5
 209              		.loc 1 82 3 discriminator 4
 210 004c BB68     		ldr	r3, [r7, #8]
 211 004e D3F88030 		ldr	r3, [r3, #128]
 212 0052 1B68     		ldr	r3, [r3]
 213 0054 3F4A     		ldr	r2, .L8+8
 214 0056 9342     		cmp	r3, r2
 215 0058 5AD0     		beq	.L5
 216              		.loc 1 82 3 discriminator 6
 217 005a BB68     		ldr	r3, [r7, #8]
 218 005c D3F88030 		ldr	r3, [r3, #128]
 219 0060 1B68     		ldr	r3, [r3]
 220 0062 3D4A     		ldr	r2, .L8+12
 221 0064 9342     		cmp	r3, r2
 222 0066 53D0     		beq	.L5
 223              		.loc 1 82 3 discriminator 8
 224 0068 BB68     		ldr	r3, [r7, #8]
 225 006a D3F88030 		ldr	r3, [r3, #128]
 226 006e 1B68     		ldr	r3, [r3]
 227 0070 3A4A     		ldr	r2, .L8+16
 228 0072 9342     		cmp	r3, r2
 229 0074 4CD0     		beq	.L5
 230              		.loc 1 82 3 discriminator 10
 231 0076 BB68     		ldr	r3, [r7, #8]
 232 0078 D3F88030 		ldr	r3, [r3, #128]
 233 007c 1B68     		ldr	r3, [r3]
 234 007e 384A     		ldr	r2, .L8+20
 235 0080 9342     		cmp	r3, r2
 236 0082 45D0     		beq	.L5
 237              		.loc 1 82 3 discriminator 12
 238 0084 BB68     		ldr	r3, [r7, #8]
 239 0086 D3F88030 		ldr	r3, [r3, #128]
 240 008a 1B68     		ldr	r3, [r3]
 241 008c 354A     		ldr	r2, .L8+24
 242 008e 9342     		cmp	r3, r2
 243 0090 3ED0     		beq	.L5
 244              		.loc 1 82 3 discriminator 14
 245 0092 BB68     		ldr	r3, [r7, #8]
 246 0094 D3F88030 		ldr	r3, [r3, #128]
 247 0098 1B68     		ldr	r3, [r3]
 248 009a 334A     		ldr	r2, .L8+28
 249 009c 9342     		cmp	r3, r2
 250 009e 37D0     		beq	.L5
 251              		.loc 1 82 3 discriminator 16
ARM GAS  C:\Users\fffff\AppData\Local\Temp\ccnuqzHD.s 			page 7


 252 00a0 BB68     		ldr	r3, [r7, #8]
 253 00a2 D3F88030 		ldr	r3, [r3, #128]
 254 00a6 1B68     		ldr	r3, [r3]
 255 00a8 304A     		ldr	r2, .L8+32
 256 00aa 9342     		cmp	r3, r2
 257 00ac 30D0     		beq	.L5
 258              		.loc 1 82 3 discriminator 18
 259 00ae BB68     		ldr	r3, [r7, #8]
 260 00b0 D3F88030 		ldr	r3, [r3, #128]
 261 00b4 1B68     		ldr	r3, [r3]
 262 00b6 2E4A     		ldr	r2, .L8+36
 263 00b8 9342     		cmp	r3, r2
 264 00ba 29D0     		beq	.L5
 265              		.loc 1 82 3 discriminator 20
 266 00bc BB68     		ldr	r3, [r7, #8]
 267 00be D3F88030 		ldr	r3, [r3, #128]
 268 00c2 1B68     		ldr	r3, [r3]
 269 00c4 2B4A     		ldr	r2, .L8+40
 270 00c6 9342     		cmp	r3, r2
 271 00c8 22D0     		beq	.L5
 272              		.loc 1 82 3 discriminator 22
 273 00ca BB68     		ldr	r3, [r7, #8]
 274 00cc D3F88030 		ldr	r3, [r3, #128]
 275 00d0 1B68     		ldr	r3, [r3]
 276 00d2 294A     		ldr	r2, .L8+44
 277 00d4 9342     		cmp	r3, r2
 278 00d6 1BD0     		beq	.L5
 279              		.loc 1 82 3 discriminator 24
 280 00d8 BB68     		ldr	r3, [r7, #8]
 281 00da D3F88030 		ldr	r3, [r3, #128]
 282 00de 1B68     		ldr	r3, [r3]
 283 00e0 264A     		ldr	r2, .L8+48
 284 00e2 9342     		cmp	r3, r2
 285 00e4 14D0     		beq	.L5
 286              		.loc 1 82 3 discriminator 26
 287 00e6 BB68     		ldr	r3, [r7, #8]
 288 00e8 D3F88030 		ldr	r3, [r3, #128]
 289 00ec 1B68     		ldr	r3, [r3]
 290 00ee 244A     		ldr	r2, .L8+52
 291 00f0 9342     		cmp	r3, r2
 292 00f2 0DD0     		beq	.L5
 293              		.loc 1 82 3 discriminator 28
 294 00f4 BB68     		ldr	r3, [r7, #8]
 295 00f6 D3F88030 		ldr	r3, [r3, #128]
 296 00fa 1B68     		ldr	r3, [r3]
 297 00fc 214A     		ldr	r2, .L8+56
 298 00fe 9342     		cmp	r3, r2
 299 0100 06D0     		beq	.L5
 300              		.loc 1 82 3 discriminator 30
 301 0102 BB68     		ldr	r3, [r7, #8]
 302 0104 D3F88030 		ldr	r3, [r3, #128]
 303 0108 1B68     		ldr	r3, [r3]
 304 010a 1F4A     		ldr	r2, .L8+60
 305 010c 9342     		cmp	r3, r2
 306 010e 0CD1     		bne	.L6
 307              	.L5:
 308              		.loc 1 82 3 discriminator 31
ARM GAS  C:\Users\fffff\AppData\Local\Temp\ccnuqzHD.s 			page 8


 309 0110 BB68     		ldr	r3, [r7, #8]
 310 0112 D3F88030 		ldr	r3, [r3, #128]
 311 0116 1B68     		ldr	r3, [r3]
 312 0118 1A68     		ldr	r2, [r3]
 313 011a BB68     		ldr	r3, [r7, #8]
 314 011c D3F88030 		ldr	r3, [r3, #128]
 315 0120 1B68     		ldr	r3, [r3]
 316 0122 22F00802 		bic	r2, r2, #8
 317 0126 1A60     		str	r2, [r3]
 318              		.loc 1 82 3
 319 0128 0CE0     		b	.L7
 320              	.L6:
 321              		.loc 1 82 3 discriminator 32
 322 012a BB68     		ldr	r3, [r7, #8]
 323 012c D3F88030 		ldr	r3, [r3, #128]
 324 0130 1B68     		ldr	r3, [r3]
 325 0132 1A68     		ldr	r2, [r3]
 326 0134 BB68     		ldr	r3, [r7, #8]
 327 0136 D3F88030 		ldr	r3, [r3, #128]
 328 013a 1B68     		ldr	r3, [r3]
 329 013c 22F00402 		bic	r2, r2, #4
 330 0140 1A60     		str	r2, [r3]
  83:User/BSP/UART_data_txrx.c **** }
 331              		.loc 1 83 1 is_stmt 1
 332 0142 00BF     		nop
 333              	.L7:
 334 0144 00BF     		nop
 335 0146 1037     		adds	r7, r7, #16
 336              	.LCFI5:
 337              		.cfi_def_cfa_offset 8
 338 0148 BD46     		mov	sp, r7
 339              	.LCFI6:
 340              		.cfi_def_cfa_register 13
 341              		@ sp needed
 342 014a 80BD     		pop	{r7, pc}
 343              	.L9:
 344              		.align	2
 345              	.L8:
 346 014c 10000240 		.word	1073872912
 347 0150 28000240 		.word	1073872936
 348 0154 40000240 		.word	1073872960
 349 0158 58000240 		.word	1073872984
 350 015c 70000240 		.word	1073873008
 351 0160 88000240 		.word	1073873032
 352 0164 A0000240 		.word	1073873056
 353 0168 B8000240 		.word	1073873080
 354 016c 10040240 		.word	1073873936
 355 0170 28040240 		.word	1073873960
 356 0174 40040240 		.word	1073873984
 357 0178 58040240 		.word	1073874008
 358 017c 70040240 		.word	1073874032
 359 0180 88040240 		.word	1073874056
 360 0184 A0040240 		.word	1073874080
 361 0188 B8040240 		.word	1073874104
 362              		.cfi_endproc
 363              	.LFE148:
 365              		.section	.text.UART_send_data,"ax",%progbits
ARM GAS  C:\Users\fffff\AppData\Local\Temp\ccnuqzHD.s 			page 9


 366              		.align	1
 367              		.global	UART_send_data
 368              		.syntax unified
 369              		.thumb
 370              		.thumb_func
 372              	UART_send_data:
 373              	.LFB149:
  84:User/BSP/UART_data_txrx.c **** 
  85:User/BSP/UART_data_txrx.c **** /**
  86:User/BSP/UART_data_txrx.c ****  * @brief 串口发送数据
  87:User/BSP/UART_data_txrx.c ****  *
  88:User/BSP/UART_data_txrx.c ****  * @param uart 发送串口整合包
  89:User/BSP/UART_data_txrx.c ****  * @param data 发送数据（数据别释放了，不然后面收不到）
  90:User/BSP/UART_data_txrx.c ****  * @param size 数据大小
  91:User/BSP/UART_data_txrx.c ****  */
  92:User/BSP/UART_data_txrx.c **** void UART_send_data(transmit_data uart, uint8_t data[], uint16_t size)
  93:User/BSP/UART_data_txrx.c **** {
 374              		.loc 1 93 1
 375              		.cfi_startproc
 376              		@ args = 280, pretend = 16, frame = 0
 377              		@ frame_needed = 1, uses_anonymous_args = 0
 378 0000 84B0     		sub	sp, sp, #16
 379              	.LCFI7:
 380              		.cfi_def_cfa_offset 16
 381 0002 80B5     		push	{r7, lr}
 382              	.LCFI8:
 383              		.cfi_def_cfa_offset 24
 384              		.cfi_offset 7, -24
 385              		.cfi_offset 14, -20
 386 0004 00AF     		add	r7, sp, #0
 387              	.LCFI9:
 388              		.cfi_def_cfa_register 7
 389 0006 07F1080C 		add	ip, r7, #8
 390 000a 8CE80F00 		stm	ip, {r0, r1, r2, r3}
  94:User/BSP/UART_data_txrx.c ****   //+++++++++++++++//while(HAL_DMA_GetState(UART6_data.hdma_usart_tx) != HAL_DMA_STATE_READY)
  95:User/BSP/UART_data_txrx.c ****   HAL_UART_Transmit_DMA(uart.huart, data, size); // 套娃d(?ω?`)o
 391              		.loc 1 95 3
 392 000e BB68     		ldr	r3, [r7, #8]
 393 0010 B7F81C21 		ldrh	r2, [r7, #284]
 394 0014 D7F81811 		ldr	r1, [r7, #280]
 395 0018 1846     		mov	r0, r3
 396 001a FFF7FEFF 		bl	HAL_UART_Transmit_DMA
  96:User/BSP/UART_data_txrx.c **** }
 397              		.loc 1 96 1
 398 001e 00BF     		nop
 399 0020 BD46     		mov	sp, r7
 400              	.LCFI10:
 401              		.cfi_def_cfa_register 13
 402              		@ sp needed
 403 0022 BDE88040 		pop	{r7, lr}
 404              	.LCFI11:
 405              		.cfi_restore 14
 406              		.cfi_restore 7
 407              		.cfi_def_cfa_offset 16
 408 0026 04B0     		add	sp, sp, #16
 409              	.LCFI12:
 410              		.cfi_def_cfa_offset 0
ARM GAS  C:\Users\fffff\AppData\Local\Temp\ccnuqzHD.s 			page 10


 411 0028 7047     		bx	lr
 412              		.cfi_endproc
 413              	.LFE149:
 415              		.section	.text.HAL_UARTEx_RxEventCallback,"ax",%progbits
 416              		.align	1
 417              		.global	HAL_UARTEx_RxEventCallback
 418              		.syntax unified
 419              		.thumb
 420              		.thumb_func
 422              	HAL_UARTEx_RxEventCallback:
 423              	.LFB150:
  97:User/BSP/UART_data_txrx.c **** 
  98:User/BSP/UART_data_txrx.c **** /**
  99:User/BSP/UART_data_txrx.c ****  * @brief 串口接受空回调函数，用于接受不定长数据，放置数据处理函数
 100:User/BSP/UART_data_txrx.c ****  *
 101:User/BSP/UART_data_txrx.c ****  * @param huart 接受到数据的串口
 102:User/BSP/UART_data_txrx.c ****  * @param Size 数据大小
 103:User/BSP/UART_data_txrx.c ****  */
 104:User/BSP/UART_data_txrx.c **** void HAL_UARTEx_RxEventCallback(UART_HandleTypeDef *huart, uint16_t Size)
 105:User/BSP/UART_data_txrx.c **** {
 424              		.loc 1 105 1
 425              		.cfi_startproc
 426              		@ args = 0, pretend = 0, frame = 8
 427              		@ frame_needed = 1, uses_anonymous_args = 0
 428 0000 80B5     		push	{r7, lr}
 429              	.LCFI13:
 430              		.cfi_def_cfa_offset 8
 431              		.cfi_offset 7, -8
 432              		.cfi_offset 14, -4
 433 0002 82B0     		sub	sp, sp, #8
 434              	.LCFI14:
 435              		.cfi_def_cfa_offset 16
 436 0004 00AF     		add	r7, sp, #0
 437              	.LCFI15:
 438              		.cfi_def_cfa_register 7
 439 0006 7860     		str	r0, [r7, #4]
 440 0008 0B46     		mov	r3, r1
 441 000a 7B80     		strh	r3, [r7, #2]	@ movhi
 106:User/BSP/UART_data_txrx.c ****   if (huart == &huart5)
 442              		.loc 1 106 6
 443 000c 7B68     		ldr	r3, [r7, #4]
 444 000e 934A     		ldr	r2, .L37
 445 0010 9342     		cmp	r3, r2
 446 0012 40F09480 		bne	.L12
 107:User/BSP/UART_data_txrx.c ****   {
 108:User/BSP/UART_data_txrx.c ****     //DT7_decode_data(UART5_data.rev_data);
 109:User/BSP/UART_data_txrx.c ****     update_sbus(UART5_data.rev_data,&SBUS_CH);
 447              		.loc 1 109 5
 448 0016 9249     		ldr	r1, .L37+4
 449 0018 9248     		ldr	r0, .L37+8
 450 001a FFF7FEFF 		bl	update_sbus
 110:User/BSP/UART_data_txrx.c ****     HAL_UARTEx_ReceiveToIdle_DMA(huart, UART5_data.rev_data, UART_BUFFER_SIZE);
 451              		.loc 1 110 5
 452 001e 4FF48072 		mov	r2, #256
 453 0022 9049     		ldr	r1, .L37+8
 454 0024 7868     		ldr	r0, [r7, #4]
 455 0026 FFF7FEFF 		bl	HAL_UARTEx_ReceiveToIdle_DMA
ARM GAS  C:\Users\fffff\AppData\Local\Temp\ccnuqzHD.s 			page 11


 111:User/BSP/UART_data_txrx.c ****     __HAL_DMA_DISABLE_IT(huart->hdmarx, DMA_IT_HT);
 456              		.loc 1 111 5
 457 002a 7B68     		ldr	r3, [r7, #4]
 458 002c D3F88030 		ldr	r3, [r3, #128]
 459 0030 1B68     		ldr	r3, [r3]
 460 0032 8D4A     		ldr	r2, .L37+12
 461 0034 9342     		cmp	r3, r2
 462 0036 68D0     		beq	.L13
 463              		.loc 1 111 5 is_stmt 0 discriminator 2
 464 0038 7B68     		ldr	r3, [r7, #4]
 465 003a D3F88030 		ldr	r3, [r3, #128]
 466 003e 1B68     		ldr	r3, [r3]
 467 0040 8A4A     		ldr	r2, .L37+16
 468 0042 9342     		cmp	r3, r2
 469 0044 61D0     		beq	.L13
 470              		.loc 1 111 5 discriminator 4
 471 0046 7B68     		ldr	r3, [r7, #4]
 472 0048 D3F88030 		ldr	r3, [r3, #128]
 473 004c 1B68     		ldr	r3, [r3]
 474 004e 884A     		ldr	r2, .L37+20
 475 0050 9342     		cmp	r3, r2
 476 0052 5AD0     		beq	.L13
 477              		.loc 1 111 5 discriminator 6
 478 0054 7B68     		ldr	r3, [r7, #4]
 479 0056 D3F88030 		ldr	r3, [r3, #128]
 480 005a 1B68     		ldr	r3, [r3]
 481 005c 854A     		ldr	r2, .L37+24
 482 005e 9342     		cmp	r3, r2
 483 0060 53D0     		beq	.L13
 484              		.loc 1 111 5 discriminator 8
 485 0062 7B68     		ldr	r3, [r7, #4]
 486 0064 D3F88030 		ldr	r3, [r3, #128]
 487 0068 1B68     		ldr	r3, [r3]
 488 006a 834A     		ldr	r2, .L37+28
 489 006c 9342     		cmp	r3, r2
 490 006e 4CD0     		beq	.L13
 491              		.loc 1 111 5 discriminator 10
 492 0070 7B68     		ldr	r3, [r7, #4]
 493 0072 D3F88030 		ldr	r3, [r3, #128]
 494 0076 1B68     		ldr	r3, [r3]
 495 0078 804A     		ldr	r2, .L37+32
 496 007a 9342     		cmp	r3, r2
 497 007c 45D0     		beq	.L13
 498              		.loc 1 111 5 discriminator 12
 499 007e 7B68     		ldr	r3, [r7, #4]
 500 0080 D3F88030 		ldr	r3, [r3, #128]
 501 0084 1B68     		ldr	r3, [r3]
 502 0086 7E4A     		ldr	r2, .L37+36
 503 0088 9342     		cmp	r3, r2
 504 008a 3ED0     		beq	.L13
 505              		.loc 1 111 5 discriminator 14
 506 008c 7B68     		ldr	r3, [r7, #4]
 507 008e D3F88030 		ldr	r3, [r3, #128]
 508 0092 1B68     		ldr	r3, [r3]
 509 0094 7B4A     		ldr	r2, .L37+40
 510 0096 9342     		cmp	r3, r2
 511 0098 37D0     		beq	.L13
ARM GAS  C:\Users\fffff\AppData\Local\Temp\ccnuqzHD.s 			page 12


 512              		.loc 1 111 5 discriminator 16
 513 009a 7B68     		ldr	r3, [r7, #4]
 514 009c D3F88030 		ldr	r3, [r3, #128]
 515 00a0 1B68     		ldr	r3, [r3]
 516 00a2 794A     		ldr	r2, .L37+44
 517 00a4 9342     		cmp	r3, r2
 518 00a6 30D0     		beq	.L13
 519              		.loc 1 111 5 discriminator 18
 520 00a8 7B68     		ldr	r3, [r7, #4]
 521 00aa D3F88030 		ldr	r3, [r3, #128]
 522 00ae 1B68     		ldr	r3, [r3]
 523 00b0 764A     		ldr	r2, .L37+48
 524 00b2 9342     		cmp	r3, r2
 525 00b4 29D0     		beq	.L13
 526              		.loc 1 111 5 discriminator 20
 527 00b6 7B68     		ldr	r3, [r7, #4]
 528 00b8 D3F88030 		ldr	r3, [r3, #128]
 529 00bc 1B68     		ldr	r3, [r3]
 530 00be 744A     		ldr	r2, .L37+52
 531 00c0 9342     		cmp	r3, r2
 532 00c2 22D0     		beq	.L13
 533              		.loc 1 111 5 discriminator 22
 534 00c4 7B68     		ldr	r3, [r7, #4]
 535 00c6 D3F88030 		ldr	r3, [r3, #128]
 536 00ca 1B68     		ldr	r3, [r3]
 537 00cc 714A     		ldr	r2, .L37+56
 538 00ce 9342     		cmp	r3, r2
 539 00d0 1BD0     		beq	.L13
 540              		.loc 1 111 5 discriminator 24
 541 00d2 7B68     		ldr	r3, [r7, #4]
 542 00d4 D3F88030 		ldr	r3, [r3, #128]
 543 00d8 1B68     		ldr	r3, [r3]
 544 00da 6F4A     		ldr	r2, .L37+60
 545 00dc 9342     		cmp	r3, r2
 546 00de 14D0     		beq	.L13
 547              		.loc 1 111 5 discriminator 26
 548 00e0 7B68     		ldr	r3, [r7, #4]
 549 00e2 D3F88030 		ldr	r3, [r3, #128]
 550 00e6 1B68     		ldr	r3, [r3]
 551 00e8 6C4A     		ldr	r2, .L37+64
 552 00ea 9342     		cmp	r3, r2
 553 00ec 0DD0     		beq	.L13
 554              		.loc 1 111 5 discriminator 28
 555 00ee 7B68     		ldr	r3, [r7, #4]
 556 00f0 D3F88030 		ldr	r3, [r3, #128]
 557 00f4 1B68     		ldr	r3, [r3]
 558 00f6 6A4A     		ldr	r2, .L37+68
 559 00f8 9342     		cmp	r3, r2
 560 00fa 06D0     		beq	.L13
 561              		.loc 1 111 5 discriminator 30
 562 00fc 7B68     		ldr	r3, [r7, #4]
 563 00fe D3F88030 		ldr	r3, [r3, #128]
 564 0102 1B68     		ldr	r3, [r3]
 565 0104 674A     		ldr	r2, .L37+72
 566 0106 9342     		cmp	r3, r2
 567 0108 0CD1     		bne	.L14
 568              	.L13:
ARM GAS  C:\Users\fffff\AppData\Local\Temp\ccnuqzHD.s 			page 13


 569              		.loc 1 111 5 discriminator 31
 570 010a 7B68     		ldr	r3, [r7, #4]
 571 010c D3F88030 		ldr	r3, [r3, #128]
 572 0110 1B68     		ldr	r3, [r3]
 573 0112 1A68     		ldr	r2, [r3]
 574 0114 7B68     		ldr	r3, [r7, #4]
 575 0116 D3F88030 		ldr	r3, [r3, #128]
 576 011a 1B68     		ldr	r3, [r3]
 577 011c 22F00802 		bic	r2, r2, #8
 578 0120 1A60     		str	r2, [r3]
 579              		.loc 1 111 5
 580 0122 6EE3     		b	.L16
 581              	.L14:
 582              		.loc 1 111 5 discriminator 32
 583 0124 7B68     		ldr	r3, [r7, #4]
 584 0126 D3F88030 		ldr	r3, [r3, #128]
 585 012a 1B68     		ldr	r3, [r3]
 586 012c 1A68     		ldr	r2, [r3]
 587 012e 7B68     		ldr	r3, [r7, #4]
 588 0130 D3F88030 		ldr	r3, [r3, #128]
 589 0134 1B68     		ldr	r3, [r3]
 590 0136 22F00402 		bic	r2, r2, #4
 591 013a 1A60     		str	r2, [r3]
 112:User/BSP/UART_data_txrx.c ****   }
 113:User/BSP/UART_data_txrx.c ****   else if (huart == &huart7)
 114:User/BSP/UART_data_txrx.c ****   {
 115:User/BSP/UART_data_txrx.c ****     fifo_s_puts(&referee_fifo, (char *)UART7_data.rev_data, (int)Size);
 116:User/BSP/UART_data_txrx.c ****     HAL_UARTEx_ReceiveToIdle_DMA(&huart7, UART7_data.rev_data, UART_BUFFER_SIZE);
 117:User/BSP/UART_data_txrx.c ****     __HAL_DMA_DISABLE_IT(huart->hdmarx, DMA_IT_HT);
 118:User/BSP/UART_data_txrx.c ****   }
 119:User/BSP/UART_data_txrx.c ****   else if (huart == &huart10)
 120:User/BSP/UART_data_txrx.c ****   {
 121:User/BSP/UART_data_txrx.c ****     fifo_s_puts(&referee_image_fifo, (char *)UART10_data.rev_data, (int)Size);
 122:User/BSP/UART_data_txrx.c ****     HAL_UARTEx_ReceiveToIdle_DMA(huart, UART10_data.rev_data, UART_BUFFER_SIZE);
 123:User/BSP/UART_data_txrx.c ****     __HAL_DMA_DISABLE_IT(huart->hdmarx, DMA_IT_HT);
 124:User/BSP/UART_data_txrx.c ****   }
 125:User/BSP/UART_data_txrx.c ****   else if (huart == &huart1)
 126:User/BSP/UART_data_txrx.c ****   {
 127:User/BSP/UART_data_txrx.c ****     if (UART1_data.rev_data[0] == 0xA5)
 128:User/BSP/UART_data_txrx.c ****     {
 129:User/BSP/UART_data_txrx.c ****       Global.Auto.input.Auto_control_online = 20;
 130:User/BSP/UART_data_txrx.c ****       decodeMINIPCdata(&fromMINIPC, UART1_data.rev_data, Size);
 131:User/BSP/UART_data_txrx.c ****       MINIPC_to_STM32();
 132:User/BSP/UART_data_txrx.c ****     }
 133:User/BSP/UART_data_txrx.c ****     HAL_UARTEx_ReceiveToIdle_DMA(huart, UART1_data.rev_data, UART_BUFFER_SIZE);
 134:User/BSP/UART_data_txrx.c ****     __HAL_DMA_DISABLE_IT(huart->hdmarx, DMA_IT_HT);
 135:User/BSP/UART_data_txrx.c ****   }
 136:User/BSP/UART_data_txrx.c ****   else if (huart == &huart2)
 137:User/BSP/UART_data_txrx.c ****   {
 138:User/BSP/UART_data_txrx.c ****     HAL_UARTEx_ReceiveToIdle_DMA(huart, UART2_data.rev_data, UART_BUFFER_SIZE);
 139:User/BSP/UART_data_txrx.c ****     __HAL_DMA_DISABLE_IT(huart->hdmarx, DMA_IT_HT);
 140:User/BSP/UART_data_txrx.c ****   }
 141:User/BSP/UART_data_txrx.c ****   else if (huart == &huart3)
 142:User/BSP/UART_data_txrx.c ****   {
 143:User/BSP/UART_data_txrx.c ****     HAL_UARTEx_ReceiveToIdle_DMA(huart, UART3_data.rev_data, UART_BUFFER_SIZE);
 144:User/BSP/UART_data_txrx.c ****     __HAL_DMA_DISABLE_IT(huart->hdmarx, DMA_IT_HT);
 145:User/BSP/UART_data_txrx.c ****   }
ARM GAS  C:\Users\fffff\AppData\Local\Temp\ccnuqzHD.s 			page 14


 146:User/BSP/UART_data_txrx.c **** }
 592              		.loc 1 146 1 is_stmt 1
 593 013c 61E3     		b	.L36
 594              	.L12:
 113:User/BSP/UART_data_txrx.c ****   {
 595              		.loc 1 113 11
 596 013e 7B68     		ldr	r3, [r7, #4]
 597 0140 594A     		ldr	r2, .L37+76
 598 0142 9342     		cmp	r3, r2
 599 0144 40F0C380 		bne	.L17
 115:User/BSP/UART_data_txrx.c ****     HAL_UARTEx_ReceiveToIdle_DMA(&huart7, UART7_data.rev_data, UART_BUFFER_SIZE);
 600              		.loc 1 115 5
 601 0148 7B88     		ldrh	r3, [r7, #2]
 602 014a 1A46     		mov	r2, r3
 603 014c 5749     		ldr	r1, .L37+80
 604 014e 5848     		ldr	r0, .L37+84
 605 0150 FFF7FEFF 		bl	fifo_s_puts
 116:User/BSP/UART_data_txrx.c ****     __HAL_DMA_DISABLE_IT(huart->hdmarx, DMA_IT_HT);
 606              		.loc 1 116 5
 607 0154 4FF48072 		mov	r2, #256
 608 0158 5449     		ldr	r1, .L37+80
 609 015a 5348     		ldr	r0, .L37+76
 610 015c FFF7FEFF 		bl	HAL_UARTEx_ReceiveToIdle_DMA
 117:User/BSP/UART_data_txrx.c ****   }
 611              		.loc 1 117 5
 612 0160 7B68     		ldr	r3, [r7, #4]
 613 0162 D3F88030 		ldr	r3, [r3, #128]
 614 0166 1B68     		ldr	r3, [r3]
 615 0168 3F4A     		ldr	r2, .L37+12
 616 016a 9342     		cmp	r3, r2
 617 016c 68D0     		beq	.L18
 117:User/BSP/UART_data_txrx.c ****   }
 618              		.loc 1 117 5 is_stmt 0 discriminator 2
 619 016e 7B68     		ldr	r3, [r7, #4]
 620 0170 D3F88030 		ldr	r3, [r3, #128]
 621 0174 1B68     		ldr	r3, [r3]
 622 0176 3D4A     		ldr	r2, .L37+16
 623 0178 9342     		cmp	r3, r2
 624 017a 61D0     		beq	.L18
 117:User/BSP/UART_data_txrx.c ****   }
 625              		.loc 1 117 5 discriminator 4
 626 017c 7B68     		ldr	r3, [r7, #4]
 627 017e D3F88030 		ldr	r3, [r3, #128]
 628 0182 1B68     		ldr	r3, [r3]
 629 0184 3A4A     		ldr	r2, .L37+20
 630 0186 9342     		cmp	r3, r2
 631 0188 5AD0     		beq	.L18
 117:User/BSP/UART_data_txrx.c ****   }
 632              		.loc 1 117 5 discriminator 6
 633 018a 7B68     		ldr	r3, [r7, #4]
 634 018c D3F88030 		ldr	r3, [r3, #128]
 635 0190 1B68     		ldr	r3, [r3]
 636 0192 384A     		ldr	r2, .L37+24
 637 0194 9342     		cmp	r3, r2
 638 0196 53D0     		beq	.L18
 117:User/BSP/UART_data_txrx.c ****   }
 639              		.loc 1 117 5 discriminator 8
ARM GAS  C:\Users\fffff\AppData\Local\Temp\ccnuqzHD.s 			page 15


 640 0198 7B68     		ldr	r3, [r7, #4]
 641 019a D3F88030 		ldr	r3, [r3, #128]
 642 019e 1B68     		ldr	r3, [r3]
 643 01a0 354A     		ldr	r2, .L37+28
 644 01a2 9342     		cmp	r3, r2
 645 01a4 4CD0     		beq	.L18
 117:User/BSP/UART_data_txrx.c ****   }
 646              		.loc 1 117 5 discriminator 10
 647 01a6 7B68     		ldr	r3, [r7, #4]
 648 01a8 D3F88030 		ldr	r3, [r3, #128]
 649 01ac 1B68     		ldr	r3, [r3]
 650 01ae 334A     		ldr	r2, .L37+32
 651 01b0 9342     		cmp	r3, r2
 652 01b2 45D0     		beq	.L18
 117:User/BSP/UART_data_txrx.c ****   }
 653              		.loc 1 117 5 discriminator 12
 654 01b4 7B68     		ldr	r3, [r7, #4]
 655 01b6 D3F88030 		ldr	r3, [r3, #128]
 656 01ba 1B68     		ldr	r3, [r3]
 657 01bc 304A     		ldr	r2, .L37+36
 658 01be 9342     		cmp	r3, r2
 659 01c0 3ED0     		beq	.L18
 117:User/BSP/UART_data_txrx.c ****   }
 660              		.loc 1 117 5 discriminator 14
 661 01c2 7B68     		ldr	r3, [r7, #4]
 662 01c4 D3F88030 		ldr	r3, [r3, #128]
 663 01c8 1B68     		ldr	r3, [r3]
 664 01ca 2E4A     		ldr	r2, .L37+40
 665 01cc 9342     		cmp	r3, r2
 666 01ce 37D0     		beq	.L18
 117:User/BSP/UART_data_txrx.c ****   }
 667              		.loc 1 117 5 discriminator 16
 668 01d0 7B68     		ldr	r3, [r7, #4]
 669 01d2 D3F88030 		ldr	r3, [r3, #128]
 670 01d6 1B68     		ldr	r3, [r3]
 671 01d8 2B4A     		ldr	r2, .L37+44
 672 01da 9342     		cmp	r3, r2
 673 01dc 30D0     		beq	.L18
 117:User/BSP/UART_data_txrx.c ****   }
 674              		.loc 1 117 5 discriminator 18
 675 01de 7B68     		ldr	r3, [r7, #4]
 676 01e0 D3F88030 		ldr	r3, [r3, #128]
 677 01e4 1B68     		ldr	r3, [r3]
 678 01e6 294A     		ldr	r2, .L37+48
 679 01e8 9342     		cmp	r3, r2
 680 01ea 29D0     		beq	.L18
 117:User/BSP/UART_data_txrx.c ****   }
 681              		.loc 1 117 5 discriminator 20
 682 01ec 7B68     		ldr	r3, [r7, #4]
 683 01ee D3F88030 		ldr	r3, [r3, #128]
 684 01f2 1B68     		ldr	r3, [r3]
 685 01f4 264A     		ldr	r2, .L37+52
 686 01f6 9342     		cmp	r3, r2
 687 01f8 22D0     		beq	.L18
 117:User/BSP/UART_data_txrx.c ****   }
 688              		.loc 1 117 5 discriminator 22
 689 01fa 7B68     		ldr	r3, [r7, #4]
ARM GAS  C:\Users\fffff\AppData\Local\Temp\ccnuqzHD.s 			page 16


 690 01fc D3F88030 		ldr	r3, [r3, #128]
 691 0200 1B68     		ldr	r3, [r3]
 692 0202 244A     		ldr	r2, .L37+56
 693 0204 9342     		cmp	r3, r2
 694 0206 1BD0     		beq	.L18
 117:User/BSP/UART_data_txrx.c ****   }
 695              		.loc 1 117 5 discriminator 24
 696 0208 7B68     		ldr	r3, [r7, #4]
 697 020a D3F88030 		ldr	r3, [r3, #128]
 698 020e 1B68     		ldr	r3, [r3]
 699 0210 214A     		ldr	r2, .L37+60
 700 0212 9342     		cmp	r3, r2
 701 0214 14D0     		beq	.L18
 117:User/BSP/UART_data_txrx.c ****   }
 702              		.loc 1 117 5 discriminator 26
 703 0216 7B68     		ldr	r3, [r7, #4]
 704 0218 D3F88030 		ldr	r3, [r3, #128]
 705 021c 1B68     		ldr	r3, [r3]
 706 021e 1F4A     		ldr	r2, .L37+64
 707 0220 9342     		cmp	r3, r2
 708 0222 0DD0     		beq	.L18
 117:User/BSP/UART_data_txrx.c ****   }
 709              		.loc 1 117 5 discriminator 28
 710 0224 7B68     		ldr	r3, [r7, #4]
 711 0226 D3F88030 		ldr	r3, [r3, #128]
 712 022a 1B68     		ldr	r3, [r3]
 713 022c 1C4A     		ldr	r2, .L37+68
 714 022e 9342     		cmp	r3, r2
 715 0230 06D0     		beq	.L18
 117:User/BSP/UART_data_txrx.c ****   }
 716              		.loc 1 117 5 discriminator 30
 717 0232 7B68     		ldr	r3, [r7, #4]
 718 0234 D3F88030 		ldr	r3, [r3, #128]
 719 0238 1B68     		ldr	r3, [r3]
 720 023a 1A4A     		ldr	r2, .L37+72
 721 023c 9342     		cmp	r3, r2
 722 023e 39D1     		bne	.L19
 723              	.L18:
 117:User/BSP/UART_data_txrx.c ****   }
 724              		.loc 1 117 5 discriminator 31
 725 0240 7B68     		ldr	r3, [r7, #4]
 726 0242 D3F88030 		ldr	r3, [r3, #128]
 727 0246 1B68     		ldr	r3, [r3]
 728 0248 1A68     		ldr	r2, [r3]
 729 024a 7B68     		ldr	r3, [r7, #4]
 730 024c D3F88030 		ldr	r3, [r3, #128]
 731 0250 1B68     		ldr	r3, [r3]
 732 0252 22F00802 		bic	r2, r2, #8
 733 0256 1A60     		str	r2, [r3]
 117:User/BSP/UART_data_txrx.c ****   }
 734              		.loc 1 117 5
 735 0258 D3E2     		b	.L16
 736              	.L38:
 737 025a 00BF     		.align	2
 738              	.L37:
 739 025c 00000000 		.word	huart5
 740 0260 00000000 		.word	SBUS_CH
ARM GAS  C:\Users\fffff\AppData\Local\Temp\ccnuqzHD.s 			page 17


 741 0264 0C000000 		.word	UART5_data+12
 742 0268 10000240 		.word	1073872912
 743 026c 28000240 		.word	1073872936
 744 0270 40000240 		.word	1073872960
 745 0274 58000240 		.word	1073872984
 746 0278 70000240 		.word	1073873008
 747 027c 88000240 		.word	1073873032
 748 0280 A0000240 		.word	1073873056
 749 0284 B8000240 		.word	1073873080
 750 0288 10040240 		.word	1073873936
 751 028c 28040240 		.word	1073873960
 752 0290 40040240 		.word	1073873984
 753 0294 58040240 		.word	1073874008
 754 0298 70040240 		.word	1073874032
 755 029c 88040240 		.word	1073874056
 756 02a0 A0040240 		.word	1073874080
 757 02a4 B8040240 		.word	1073874104
 758 02a8 00000000 		.word	huart7
 759 02ac 0C000000 		.word	UART7_data+12
 760 02b0 00000000 		.word	referee_fifo
 761              	.L19:
 117:User/BSP/UART_data_txrx.c ****   }
 762              		.loc 1 117 5 discriminator 32
 763 02b4 7B68     		ldr	r3, [r7, #4]
 764 02b6 D3F88030 		ldr	r3, [r3, #128]
 765 02ba 1B68     		ldr	r3, [r3]
 766 02bc 1A68     		ldr	r2, [r3]
 767 02be 7B68     		ldr	r3, [r7, #4]
 768 02c0 D3F88030 		ldr	r3, [r3, #128]
 769 02c4 1B68     		ldr	r3, [r3]
 770 02c6 22F00402 		bic	r2, r2, #4
 771 02ca 1A60     		str	r2, [r3]
 772              		.loc 1 146 1 is_stmt 1
 773 02cc 99E2     		b	.L36
 774              	.L17:
 119:User/BSP/UART_data_txrx.c ****   {
 775              		.loc 1 119 11
 776 02ce 7B68     		ldr	r3, [r7, #4]
 777 02d0 984A     		ldr	r2, .L39
 778 02d2 9342     		cmp	r3, r2
 779 02d4 40F09680 		bne	.L21
 121:User/BSP/UART_data_txrx.c ****     HAL_UARTEx_ReceiveToIdle_DMA(huart, UART10_data.rev_data, UART_BUFFER_SIZE);
 780              		.loc 1 121 5
 781 02d8 7B88     		ldrh	r3, [r7, #2]
 782 02da 1A46     		mov	r2, r3
 783 02dc 9649     		ldr	r1, .L39+4
 784 02de 9748     		ldr	r0, .L39+8
 785 02e0 FFF7FEFF 		bl	fifo_s_puts
 122:User/BSP/UART_data_txrx.c ****     __HAL_DMA_DISABLE_IT(huart->hdmarx, DMA_IT_HT);
 786              		.loc 1 122 5
 787 02e4 4FF48072 		mov	r2, #256
 788 02e8 9349     		ldr	r1, .L39+4
 789 02ea 7868     		ldr	r0, [r7, #4]
 790 02ec FFF7FEFF 		bl	HAL_UARTEx_ReceiveToIdle_DMA
 123:User/BSP/UART_data_txrx.c ****   }
 791              		.loc 1 123 5
 792 02f0 7B68     		ldr	r3, [r7, #4]
ARM GAS  C:\Users\fffff\AppData\Local\Temp\ccnuqzHD.s 			page 18


 793 02f2 D3F88030 		ldr	r3, [r3, #128]
 794 02f6 1B68     		ldr	r3, [r3]
 795 02f8 914A     		ldr	r2, .L39+12
 796 02fa 9342     		cmp	r3, r2
 797 02fc 68D0     		beq	.L22
 123:User/BSP/UART_data_txrx.c ****   }
 798              		.loc 1 123 5 is_stmt 0 discriminator 2
 799 02fe 7B68     		ldr	r3, [r7, #4]
 800 0300 D3F88030 		ldr	r3, [r3, #128]
 801 0304 1B68     		ldr	r3, [r3]
 802 0306 8F4A     		ldr	r2, .L39+16
 803 0308 9342     		cmp	r3, r2
 804 030a 61D0     		beq	.L22
 123:User/BSP/UART_data_txrx.c ****   }
 805              		.loc 1 123 5 discriminator 4
 806 030c 7B68     		ldr	r3, [r7, #4]
 807 030e D3F88030 		ldr	r3, [r3, #128]
 808 0312 1B68     		ldr	r3, [r3]
 809 0314 8C4A     		ldr	r2, .L39+20
 810 0316 9342     		cmp	r3, r2
 811 0318 5AD0     		beq	.L22
 123:User/BSP/UART_data_txrx.c ****   }
 812              		.loc 1 123 5 discriminator 6
 813 031a 7B68     		ldr	r3, [r7, #4]
 814 031c D3F88030 		ldr	r3, [r3, #128]
 815 0320 1B68     		ldr	r3, [r3]
 816 0322 8A4A     		ldr	r2, .L39+24
 817 0324 9342     		cmp	r3, r2
 818 0326 53D0     		beq	.L22
 123:User/BSP/UART_data_txrx.c ****   }
 819              		.loc 1 123 5 discriminator 8
 820 0328 7B68     		ldr	r3, [r7, #4]
 821 032a D3F88030 		ldr	r3, [r3, #128]
 822 032e 1B68     		ldr	r3, [r3]
 823 0330 874A     		ldr	r2, .L39+28
 824 0332 9342     		cmp	r3, r2
 825 0334 4CD0     		beq	.L22
 123:User/BSP/UART_data_txrx.c ****   }
 826              		.loc 1 123 5 discriminator 10
 827 0336 7B68     		ldr	r3, [r7, #4]
 828 0338 D3F88030 		ldr	r3, [r3, #128]
 829 033c 1B68     		ldr	r3, [r3]
 830 033e 854A     		ldr	r2, .L39+32
 831 0340 9342     		cmp	r3, r2
 832 0342 45D0     		beq	.L22
 123:User/BSP/UART_data_txrx.c ****   }
 833              		.loc 1 123 5 discriminator 12
 834 0344 7B68     		ldr	r3, [r7, #4]
 835 0346 D3F88030 		ldr	r3, [r3, #128]
 836 034a 1B68     		ldr	r3, [r3]
 837 034c 824A     		ldr	r2, .L39+36
 838 034e 9342     		cmp	r3, r2
 839 0350 3ED0     		beq	.L22
 123:User/BSP/UART_data_txrx.c ****   }
 840              		.loc 1 123 5 discriminator 14
 841 0352 7B68     		ldr	r3, [r7, #4]
 842 0354 D3F88030 		ldr	r3, [r3, #128]
ARM GAS  C:\Users\fffff\AppData\Local\Temp\ccnuqzHD.s 			page 19


 843 0358 1B68     		ldr	r3, [r3]
 844 035a 804A     		ldr	r2, .L39+40
 845 035c 9342     		cmp	r3, r2
 846 035e 37D0     		beq	.L22
 123:User/BSP/UART_data_txrx.c ****   }
 847              		.loc 1 123 5 discriminator 16
 848 0360 7B68     		ldr	r3, [r7, #4]
 849 0362 D3F88030 		ldr	r3, [r3, #128]
 850 0366 1B68     		ldr	r3, [r3]
 851 0368 7D4A     		ldr	r2, .L39+44
 852 036a 9342     		cmp	r3, r2
 853 036c 30D0     		beq	.L22
 123:User/BSP/UART_data_txrx.c ****   }
 854              		.loc 1 123 5 discriminator 18
 855 036e 7B68     		ldr	r3, [r7, #4]
 856 0370 D3F88030 		ldr	r3, [r3, #128]
 857 0374 1B68     		ldr	r3, [r3]
 858 0376 7B4A     		ldr	r2, .L39+48
 859 0378 9342     		cmp	r3, r2
 860 037a 29D0     		beq	.L22
 123:User/BSP/UART_data_txrx.c ****   }
 861              		.loc 1 123 5 discriminator 20
 862 037c 7B68     		ldr	r3, [r7, #4]
 863 037e D3F88030 		ldr	r3, [r3, #128]
 864 0382 1B68     		ldr	r3, [r3]
 865 0384 784A     		ldr	r2, .L39+52
 866 0386 9342     		cmp	r3, r2
 867 0388 22D0     		beq	.L22
 123:User/BSP/UART_data_txrx.c ****   }
 868              		.loc 1 123 5 discriminator 22
 869 038a 7B68     		ldr	r3, [r7, #4]
 870 038c D3F88030 		ldr	r3, [r3, #128]
 871 0390 1B68     		ldr	r3, [r3]
 872 0392 764A     		ldr	r2, .L39+56
 873 0394 9342     		cmp	r3, r2
 874 0396 1BD0     		beq	.L22
 123:User/BSP/UART_data_txrx.c ****   }
 875              		.loc 1 123 5 discriminator 24
 876 0398 7B68     		ldr	r3, [r7, #4]
 877 039a D3F88030 		ldr	r3, [r3, #128]
 878 039e 1B68     		ldr	r3, [r3]
 879 03a0 734A     		ldr	r2, .L39+60
 880 03a2 9342     		cmp	r3, r2
 881 03a4 14D0     		beq	.L22
 123:User/BSP/UART_data_txrx.c ****   }
 882              		.loc 1 123 5 discriminator 26
 883 03a6 7B68     		ldr	r3, [r7, #4]
 884 03a8 D3F88030 		ldr	r3, [r3, #128]
 885 03ac 1B68     		ldr	r3, [r3]
 886 03ae 714A     		ldr	r2, .L39+64
 887 03b0 9342     		cmp	r3, r2
 888 03b2 0DD0     		beq	.L22
 123:User/BSP/UART_data_txrx.c ****   }
 889              		.loc 1 123 5 discriminator 28
 890 03b4 7B68     		ldr	r3, [r7, #4]
 891 03b6 D3F88030 		ldr	r3, [r3, #128]
 892 03ba 1B68     		ldr	r3, [r3]
ARM GAS  C:\Users\fffff\AppData\Local\Temp\ccnuqzHD.s 			page 20


 893 03bc 6E4A     		ldr	r2, .L39+68
 894 03be 9342     		cmp	r3, r2
 895 03c0 06D0     		beq	.L22
 123:User/BSP/UART_data_txrx.c ****   }
 896              		.loc 1 123 5 discriminator 30
 897 03c2 7B68     		ldr	r3, [r7, #4]
 898 03c4 D3F88030 		ldr	r3, [r3, #128]
 899 03c8 1B68     		ldr	r3, [r3]
 900 03ca 6C4A     		ldr	r2, .L39+72
 901 03cc 9342     		cmp	r3, r2
 902 03ce 0CD1     		bne	.L23
 903              	.L22:
 123:User/BSP/UART_data_txrx.c ****   }
 904              		.loc 1 123 5 discriminator 31
 905 03d0 7B68     		ldr	r3, [r7, #4]
 906 03d2 D3F88030 		ldr	r3, [r3, #128]
 907 03d6 1B68     		ldr	r3, [r3]
 908 03d8 1A68     		ldr	r2, [r3]
 909 03da 7B68     		ldr	r3, [r7, #4]
 910 03dc D3F88030 		ldr	r3, [r3, #128]
 911 03e0 1B68     		ldr	r3, [r3]
 912 03e2 22F00802 		bic	r2, r2, #8
 913 03e6 1A60     		str	r2, [r3]
 123:User/BSP/UART_data_txrx.c ****   }
 914              		.loc 1 123 5
 915 03e8 0BE2     		b	.L16
 916              	.L23:
 123:User/BSP/UART_data_txrx.c ****   }
 917              		.loc 1 123 5 discriminator 32
 918 03ea 7B68     		ldr	r3, [r7, #4]
 919 03ec D3F88030 		ldr	r3, [r3, #128]
 920 03f0 1B68     		ldr	r3, [r3]
 921 03f2 1A68     		ldr	r2, [r3]
 922 03f4 7B68     		ldr	r3, [r7, #4]
 923 03f6 D3F88030 		ldr	r3, [r3, #128]
 924 03fa 1B68     		ldr	r3, [r3]
 925 03fc 22F00402 		bic	r2, r2, #4
 926 0400 1A60     		str	r2, [r3]
 927              		.loc 1 146 1 is_stmt 1
 928 0402 FEE1     		b	.L36
 929              	.L21:
 125:User/BSP/UART_data_txrx.c ****   {
 930              		.loc 1 125 11
 931 0404 7B68     		ldr	r3, [r7, #4]
 932 0406 5E4A     		ldr	r2, .L39+76
 933 0408 9342     		cmp	r3, r2
 934 040a 40F0D080 		bne	.L25
 127:User/BSP/UART_data_txrx.c ****     {
 935              		.loc 1 127 28
 936 040e 5D4B     		ldr	r3, .L39+80
 937 0410 1B7B     		ldrb	r3, [r3, #12]	@ zero_extendqisi2
 127:User/BSP/UART_data_txrx.c ****     {
 938              		.loc 1 127 8
 939 0412 A52B     		cmp	r3, #165
 940 0414 0AD1     		bne	.L26
 129:User/BSP/UART_data_txrx.c ****       decodeMINIPCdata(&fromMINIPC, UART1_data.rev_data, Size);
 941              		.loc 1 129 45
ARM GAS  C:\Users\fffff\AppData\Local\Temp\ccnuqzHD.s 			page 21


 942 0416 5C4B     		ldr	r3, .L39+84
 943 0418 1422     		movs	r2, #20
 944 041a 1A63     		str	r2, [r3, #48]
 130:User/BSP/UART_data_txrx.c ****       MINIPC_to_STM32();
 945              		.loc 1 130 7
 946 041c 7B88     		ldrh	r3, [r7, #2]
 947 041e 1A46     		mov	r2, r3
 948 0420 5A49     		ldr	r1, .L39+88
 949 0422 5B48     		ldr	r0, .L39+92
 950 0424 FFF7FEFF 		bl	decodeMINIPCdata
 131:User/BSP/UART_data_txrx.c ****     }
 951              		.loc 1 131 7
 952 0428 FFF7FEFF 		bl	MINIPC_to_STM32
 953              	.L26:
 133:User/BSP/UART_data_txrx.c ****     __HAL_DMA_DISABLE_IT(huart->hdmarx, DMA_IT_HT);
 954              		.loc 1 133 5
 955 042c 4FF48072 		mov	r2, #256
 956 0430 5649     		ldr	r1, .L39+88
 957 0432 7868     		ldr	r0, [r7, #4]
 958 0434 FFF7FEFF 		bl	HAL_UARTEx_ReceiveToIdle_DMA
 134:User/BSP/UART_data_txrx.c ****   }
 959              		.loc 1 134 5
 960 0438 7B68     		ldr	r3, [r7, #4]
 961 043a D3F88030 		ldr	r3, [r3, #128]
 962 043e 1B68     		ldr	r3, [r3]
 963 0440 3F4A     		ldr	r2, .L39+12
 964 0442 9342     		cmp	r3, r2
 965 0444 68D0     		beq	.L27
 134:User/BSP/UART_data_txrx.c ****   }
 966              		.loc 1 134 5 is_stmt 0 discriminator 2
 967 0446 7B68     		ldr	r3, [r7, #4]
 968 0448 D3F88030 		ldr	r3, [r3, #128]
 969 044c 1B68     		ldr	r3, [r3]
 970 044e 3D4A     		ldr	r2, .L39+16
 971 0450 9342     		cmp	r3, r2
 972 0452 61D0     		beq	.L27
 134:User/BSP/UART_data_txrx.c ****   }
 973              		.loc 1 134 5 discriminator 4
 974 0454 7B68     		ldr	r3, [r7, #4]
 975 0456 D3F88030 		ldr	r3, [r3, #128]
 976 045a 1B68     		ldr	r3, [r3]
 977 045c 3A4A     		ldr	r2, .L39+20
 978 045e 9342     		cmp	r3, r2
 979 0460 5AD0     		beq	.L27
 134:User/BSP/UART_data_txrx.c ****   }
 980              		.loc 1 134 5 discriminator 6
 981 0462 7B68     		ldr	r3, [r7, #4]
 982 0464 D3F88030 		ldr	r3, [r3, #128]
 983 0468 1B68     		ldr	r3, [r3]
 984 046a 384A     		ldr	r2, .L39+24
 985 046c 9342     		cmp	r3, r2
 986 046e 53D0     		beq	.L27
 134:User/BSP/UART_data_txrx.c ****   }
 987              		.loc 1 134 5 discriminator 8
 988 0470 7B68     		ldr	r3, [r7, #4]
 989 0472 D3F88030 		ldr	r3, [r3, #128]
 990 0476 1B68     		ldr	r3, [r3]
ARM GAS  C:\Users\fffff\AppData\Local\Temp\ccnuqzHD.s 			page 22


 991 0478 354A     		ldr	r2, .L39+28
 992 047a 9342     		cmp	r3, r2
 993 047c 4CD0     		beq	.L27
 134:User/BSP/UART_data_txrx.c ****   }
 994              		.loc 1 134 5 discriminator 10
 995 047e 7B68     		ldr	r3, [r7, #4]
 996 0480 D3F88030 		ldr	r3, [r3, #128]
 997 0484 1B68     		ldr	r3, [r3]
 998 0486 334A     		ldr	r2, .L39+32
 999 0488 9342     		cmp	r3, r2
 1000 048a 45D0     		beq	.L27
 134:User/BSP/UART_data_txrx.c ****   }
 1001              		.loc 1 134 5 discriminator 12
 1002 048c 7B68     		ldr	r3, [r7, #4]
 1003 048e D3F88030 		ldr	r3, [r3, #128]
 1004 0492 1B68     		ldr	r3, [r3]
 1005 0494 304A     		ldr	r2, .L39+36
 1006 0496 9342     		cmp	r3, r2
 1007 0498 3ED0     		beq	.L27
 134:User/BSP/UART_data_txrx.c ****   }
 1008              		.loc 1 134 5 discriminator 14
 1009 049a 7B68     		ldr	r3, [r7, #4]
 1010 049c D3F88030 		ldr	r3, [r3, #128]
 1011 04a0 1B68     		ldr	r3, [r3]
 1012 04a2 2E4A     		ldr	r2, .L39+40
 1013 04a4 9342     		cmp	r3, r2
 1014 04a6 37D0     		beq	.L27
 134:User/BSP/UART_data_txrx.c ****   }
 1015              		.loc 1 134 5 discriminator 16
 1016 04a8 7B68     		ldr	r3, [r7, #4]
 1017 04aa D3F88030 		ldr	r3, [r3, #128]
 1018 04ae 1B68     		ldr	r3, [r3]
 1019 04b0 2B4A     		ldr	r2, .L39+44
 1020 04b2 9342     		cmp	r3, r2
 1021 04b4 30D0     		beq	.L27
 134:User/BSP/UART_data_txrx.c ****   }
 1022              		.loc 1 134 5 discriminator 18
 1023 04b6 7B68     		ldr	r3, [r7, #4]
 1024 04b8 D3F88030 		ldr	r3, [r3, #128]
 1025 04bc 1B68     		ldr	r3, [r3]
 1026 04be 294A     		ldr	r2, .L39+48
 1027 04c0 9342     		cmp	r3, r2
 1028 04c2 29D0     		beq	.L27
 134:User/BSP/UART_data_txrx.c ****   }
 1029              		.loc 1 134 5 discriminator 20
 1030 04c4 7B68     		ldr	r3, [r7, #4]
 1031 04c6 D3F88030 		ldr	r3, [r3, #128]
 1032 04ca 1B68     		ldr	r3, [r3]
 1033 04cc 264A     		ldr	r2, .L39+52
 1034 04ce 9342     		cmp	r3, r2
 1035 04d0 22D0     		beq	.L27
 134:User/BSP/UART_data_txrx.c ****   }
 1036              		.loc 1 134 5 discriminator 22
 1037 04d2 7B68     		ldr	r3, [r7, #4]
 1038 04d4 D3F88030 		ldr	r3, [r3, #128]
 1039 04d8 1B68     		ldr	r3, [r3]
 1040 04da 244A     		ldr	r2, .L39+56
ARM GAS  C:\Users\fffff\AppData\Local\Temp\ccnuqzHD.s 			page 23


 1041 04dc 9342     		cmp	r3, r2
 1042 04de 1BD0     		beq	.L27
 134:User/BSP/UART_data_txrx.c ****   }
 1043              		.loc 1 134 5 discriminator 24
 1044 04e0 7B68     		ldr	r3, [r7, #4]
 1045 04e2 D3F88030 		ldr	r3, [r3, #128]
 1046 04e6 1B68     		ldr	r3, [r3]
 1047 04e8 214A     		ldr	r2, .L39+60
 1048 04ea 9342     		cmp	r3, r2
 1049 04ec 14D0     		beq	.L27
 134:User/BSP/UART_data_txrx.c ****   }
 1050              		.loc 1 134 5 discriminator 26
 1051 04ee 7B68     		ldr	r3, [r7, #4]
 1052 04f0 D3F88030 		ldr	r3, [r3, #128]
 1053 04f4 1B68     		ldr	r3, [r3]
 1054 04f6 1F4A     		ldr	r2, .L39+64
 1055 04f8 9342     		cmp	r3, r2
 1056 04fa 0DD0     		beq	.L27
 134:User/BSP/UART_data_txrx.c ****   }
 1057              		.loc 1 134 5 discriminator 28
 1058 04fc 7B68     		ldr	r3, [r7, #4]
 1059 04fe D3F88030 		ldr	r3, [r3, #128]
 1060 0502 1B68     		ldr	r3, [r3]
 1061 0504 1C4A     		ldr	r2, .L39+68
 1062 0506 9342     		cmp	r3, r2
 1063 0508 06D0     		beq	.L27
 134:User/BSP/UART_data_txrx.c ****   }
 1064              		.loc 1 134 5 discriminator 30
 1065 050a 7B68     		ldr	r3, [r7, #4]
 1066 050c D3F88030 		ldr	r3, [r3, #128]
 1067 0510 1B68     		ldr	r3, [r3]
 1068 0512 1A4A     		ldr	r2, .L39+72
 1069 0514 9342     		cmp	r3, r2
 1070 0516 3DD1     		bne	.L28
 1071              	.L27:
 134:User/BSP/UART_data_txrx.c ****   }
 1072              		.loc 1 134 5 discriminator 31
 1073 0518 7B68     		ldr	r3, [r7, #4]
 1074 051a D3F88030 		ldr	r3, [r3, #128]
 1075 051e 1B68     		ldr	r3, [r3]
 1076 0520 1A68     		ldr	r2, [r3]
 1077 0522 7B68     		ldr	r3, [r7, #4]
 1078 0524 D3F88030 		ldr	r3, [r3, #128]
 1079 0528 1B68     		ldr	r3, [r3]
 1080 052a 22F00802 		bic	r2, r2, #8
 1081 052e 1A60     		str	r2, [r3]
 134:User/BSP/UART_data_txrx.c ****   }
 1082              		.loc 1 134 5
 1083 0530 67E1     		b	.L16
 1084              	.L40:
 1085 0532 00BF     		.align	2
 1086              	.L39:
 1087 0534 00000000 		.word	huart10
 1088 0538 0C000000 		.word	UART10_data+12
 1089 053c 00000000 		.word	referee_image_fifo
 1090 0540 10000240 		.word	1073872912
 1091 0544 28000240 		.word	1073872936
ARM GAS  C:\Users\fffff\AppData\Local\Temp\ccnuqzHD.s 			page 24


 1092 0548 40000240 		.word	1073872960
 1093 054c 58000240 		.word	1073872984
 1094 0550 70000240 		.word	1073873008
 1095 0554 88000240 		.word	1073873032
 1096 0558 A0000240 		.word	1073873056
 1097 055c B8000240 		.word	1073873080
 1098 0560 10040240 		.word	1073873936
 1099 0564 28040240 		.word	1073873960
 1100 0568 40040240 		.word	1073873984
 1101 056c 58040240 		.word	1073874008
 1102 0570 70040240 		.word	1073874032
 1103 0574 88040240 		.word	1073874056
 1104 0578 A0040240 		.word	1073874080
 1105 057c B8040240 		.word	1073874104
 1106 0580 00000000 		.word	huart1
 1107 0584 00000000 		.word	UART1_data
 1108 0588 00000000 		.word	Global
 1109 058c 0C000000 		.word	UART1_data+12
 1110 0590 00000000 		.word	fromMINIPC
 1111              	.L28:
 134:User/BSP/UART_data_txrx.c ****   }
 1112              		.loc 1 134 5 discriminator 32
 1113 0594 7B68     		ldr	r3, [r7, #4]
 1114 0596 D3F88030 		ldr	r3, [r3, #128]
 1115 059a 1B68     		ldr	r3, [r3]
 1116 059c 1A68     		ldr	r2, [r3]
 1117 059e 7B68     		ldr	r3, [r7, #4]
 1118 05a0 D3F88030 		ldr	r3, [r3, #128]
 1119 05a4 1B68     		ldr	r3, [r3]
 1120 05a6 22F00402 		bic	r2, r2, #4
 1121 05aa 1A60     		str	r2, [r3]
 1122              		.loc 1 146 1 is_stmt 1
 1123 05ac 29E1     		b	.L36
 1124              	.L25:
 136:User/BSP/UART_data_txrx.c ****   {
 1125              		.loc 1 136 11
 1126 05ae 7B68     		ldr	r3, [r7, #4]
 1127 05b0 964A     		ldr	r2, .L41
 1128 05b2 9342     		cmp	r3, r2
 1129 05b4 40F09080 		bne	.L30
 138:User/BSP/UART_data_txrx.c ****     __HAL_DMA_DISABLE_IT(huart->hdmarx, DMA_IT_HT);
 1130              		.loc 1 138 5
 1131 05b8 4FF48072 		mov	r2, #256
 1132 05bc 9449     		ldr	r1, .L41+4
 1133 05be 7868     		ldr	r0, [r7, #4]
 1134 05c0 FFF7FEFF 		bl	HAL_UARTEx_ReceiveToIdle_DMA
 139:User/BSP/UART_data_txrx.c ****   }
 1135              		.loc 1 139 5
 1136 05c4 7B68     		ldr	r3, [r7, #4]
 1137 05c6 D3F88030 		ldr	r3, [r3, #128]
 1138 05ca 1B68     		ldr	r3, [r3]
 1139 05cc 914A     		ldr	r2, .L41+8
 1140 05ce 9342     		cmp	r3, r2
 1141 05d0 68D0     		beq	.L31
 139:User/BSP/UART_data_txrx.c ****   }
 1142              		.loc 1 139 5 is_stmt 0 discriminator 2
 1143 05d2 7B68     		ldr	r3, [r7, #4]
ARM GAS  C:\Users\fffff\AppData\Local\Temp\ccnuqzHD.s 			page 25


 1144 05d4 D3F88030 		ldr	r3, [r3, #128]
 1145 05d8 1B68     		ldr	r3, [r3]
 1146 05da 8F4A     		ldr	r2, .L41+12
 1147 05dc 9342     		cmp	r3, r2
 1148 05de 61D0     		beq	.L31
 139:User/BSP/UART_data_txrx.c ****   }
 1149              		.loc 1 139 5 discriminator 4
 1150 05e0 7B68     		ldr	r3, [r7, #4]
 1151 05e2 D3F88030 		ldr	r3, [r3, #128]
 1152 05e6 1B68     		ldr	r3, [r3]
 1153 05e8 8C4A     		ldr	r2, .L41+16
 1154 05ea 9342     		cmp	r3, r2
 1155 05ec 5AD0     		beq	.L31
 139:User/BSP/UART_data_txrx.c ****   }
 1156              		.loc 1 139 5 discriminator 6
 1157 05ee 7B68     		ldr	r3, [r7, #4]
 1158 05f0 D3F88030 		ldr	r3, [r3, #128]
 1159 05f4 1B68     		ldr	r3, [r3]
 1160 05f6 8A4A     		ldr	r2, .L41+20
 1161 05f8 9342     		cmp	r3, r2
 1162 05fa 53D0     		beq	.L31
 139:User/BSP/UART_data_txrx.c ****   }
 1163              		.loc 1 139 5 discriminator 8
 1164 05fc 7B68     		ldr	r3, [r7, #4]
 1165 05fe D3F88030 		ldr	r3, [r3, #128]
 1166 0602 1B68     		ldr	r3, [r3]
 1167 0604 874A     		ldr	r2, .L41+24
 1168 0606 9342     		cmp	r3, r2
 1169 0608 4CD0     		beq	.L31
 139:User/BSP/UART_data_txrx.c ****   }
 1170              		.loc 1 139 5 discriminator 10
 1171 060a 7B68     		ldr	r3, [r7, #4]
 1172 060c D3F88030 		ldr	r3, [r3, #128]
 1173 0610 1B68     		ldr	r3, [r3]
 1174 0612 854A     		ldr	r2, .L41+28
 1175 0614 9342     		cmp	r3, r2
 1176 0616 45D0     		beq	.L31
 139:User/BSP/UART_data_txrx.c ****   }
 1177              		.loc 1 139 5 discriminator 12
 1178 0618 7B68     		ldr	r3, [r7, #4]
 1179 061a D3F88030 		ldr	r3, [r3, #128]
 1180 061e 1B68     		ldr	r3, [r3]
 1181 0620 824A     		ldr	r2, .L41+32
 1182 0622 9342     		cmp	r3, r2
 1183 0624 3ED0     		beq	.L31
 139:User/BSP/UART_data_txrx.c ****   }
 1184              		.loc 1 139 5 discriminator 14
 1185 0626 7B68     		ldr	r3, [r7, #4]
 1186 0628 D3F88030 		ldr	r3, [r3, #128]
 1187 062c 1B68     		ldr	r3, [r3]
 1188 062e 804A     		ldr	r2, .L41+36
 1189 0630 9342     		cmp	r3, r2
 1190 0632 37D0     		beq	.L31
 139:User/BSP/UART_data_txrx.c ****   }
 1191              		.loc 1 139 5 discriminator 16
 1192 0634 7B68     		ldr	r3, [r7, #4]
 1193 0636 D3F88030 		ldr	r3, [r3, #128]
ARM GAS  C:\Users\fffff\AppData\Local\Temp\ccnuqzHD.s 			page 26


 1194 063a 1B68     		ldr	r3, [r3]
 1195 063c 7D4A     		ldr	r2, .L41+40
 1196 063e 9342     		cmp	r3, r2
 1197 0640 30D0     		beq	.L31
 139:User/BSP/UART_data_txrx.c ****   }
 1198              		.loc 1 139 5 discriminator 18
 1199 0642 7B68     		ldr	r3, [r7, #4]
 1200 0644 D3F88030 		ldr	r3, [r3, #128]
 1201 0648 1B68     		ldr	r3, [r3]
 1202 064a 7B4A     		ldr	r2, .L41+44
 1203 064c 9342     		cmp	r3, r2
 1204 064e 29D0     		beq	.L31
 139:User/BSP/UART_data_txrx.c ****   }
 1205              		.loc 1 139 5 discriminator 20
 1206 0650 7B68     		ldr	r3, [r7, #4]
 1207 0652 D3F88030 		ldr	r3, [r3, #128]
 1208 0656 1B68     		ldr	r3, [r3]
 1209 0658 784A     		ldr	r2, .L41+48
 1210 065a 9342     		cmp	r3, r2
 1211 065c 22D0     		beq	.L31
 139:User/BSP/UART_data_txrx.c ****   }
 1212              		.loc 1 139 5 discriminator 22
 1213 065e 7B68     		ldr	r3, [r7, #4]
 1214 0660 D3F88030 		ldr	r3, [r3, #128]
 1215 0664 1B68     		ldr	r3, [r3]
 1216 0666 764A     		ldr	r2, .L41+52
 1217 0668 9342     		cmp	r3, r2
 1218 066a 1BD0     		beq	.L31
 139:User/BSP/UART_data_txrx.c ****   }
 1219              		.loc 1 139 5 discriminator 24
 1220 066c 7B68     		ldr	r3, [r7, #4]
 1221 066e D3F88030 		ldr	r3, [r3, #128]
 1222 0672 1B68     		ldr	r3, [r3]
 1223 0674 734A     		ldr	r2, .L41+56
 1224 0676 9342     		cmp	r3, r2
 1225 0678 14D0     		beq	.L31
 139:User/BSP/UART_data_txrx.c ****   }
 1226              		.loc 1 139 5 discriminator 26
 1227 067a 7B68     		ldr	r3, [r7, #4]
 1228 067c D3F88030 		ldr	r3, [r3, #128]
 1229 0680 1B68     		ldr	r3, [r3]
 1230 0682 714A     		ldr	r2, .L41+60
 1231 0684 9342     		cmp	r3, r2
 1232 0686 0DD0     		beq	.L31
 139:User/BSP/UART_data_txrx.c ****   }
 1233              		.loc 1 139 5 discriminator 28
 1234 0688 7B68     		ldr	r3, [r7, #4]
 1235 068a D3F88030 		ldr	r3, [r3, #128]
 1236 068e 1B68     		ldr	r3, [r3]
 1237 0690 6E4A     		ldr	r2, .L41+64
 1238 0692 9342     		cmp	r3, r2
 1239 0694 06D0     		beq	.L31
 139:User/BSP/UART_data_txrx.c ****   }
 1240              		.loc 1 139 5 discriminator 30
 1241 0696 7B68     		ldr	r3, [r7, #4]
 1242 0698 D3F88030 		ldr	r3, [r3, #128]
 1243 069c 1B68     		ldr	r3, [r3]
ARM GAS  C:\Users\fffff\AppData\Local\Temp\ccnuqzHD.s 			page 27


 1244 069e 6C4A     		ldr	r2, .L41+68
 1245 06a0 9342     		cmp	r3, r2
 1246 06a2 0CD1     		bne	.L32
 1247              	.L31:
 139:User/BSP/UART_data_txrx.c ****   }
 1248              		.loc 1 139 5 discriminator 31
 1249 06a4 7B68     		ldr	r3, [r7, #4]
 1250 06a6 D3F88030 		ldr	r3, [r3, #128]
 1251 06aa 1B68     		ldr	r3, [r3]
 1252 06ac 1A68     		ldr	r2, [r3]
 1253 06ae 7B68     		ldr	r3, [r7, #4]
 1254 06b0 D3F88030 		ldr	r3, [r3, #128]
 1255 06b4 1B68     		ldr	r3, [r3]
 1256 06b6 22F00802 		bic	r2, r2, #8
 1257 06ba 1A60     		str	r2, [r3]
 139:User/BSP/UART_data_txrx.c ****   }
 1258              		.loc 1 139 5
 1259 06bc A1E0     		b	.L16
 1260              	.L32:
 139:User/BSP/UART_data_txrx.c ****   }
 1261              		.loc 1 139 5 discriminator 32
 1262 06be 7B68     		ldr	r3, [r7, #4]
 1263 06c0 D3F88030 		ldr	r3, [r3, #128]
 1264 06c4 1B68     		ldr	r3, [r3]
 1265 06c6 1A68     		ldr	r2, [r3]
 1266 06c8 7B68     		ldr	r3, [r7, #4]
 1267 06ca D3F88030 		ldr	r3, [r3, #128]
 1268 06ce 1B68     		ldr	r3, [r3]
 1269 06d0 22F00402 		bic	r2, r2, #4
 1270 06d4 1A60     		str	r2, [r3]
 1271              		.loc 1 146 1 is_stmt 1
 1272 06d6 94E0     		b	.L36
 1273              	.L30:
 141:User/BSP/UART_data_txrx.c ****   {
 1274              		.loc 1 141 11
 1275 06d8 7B68     		ldr	r3, [r7, #4]
 1276 06da 5E4A     		ldr	r2, .L41+72
 1277 06dc 9342     		cmp	r3, r2
 1278 06de 40F09080 		bne	.L36
 143:User/BSP/UART_data_txrx.c ****     __HAL_DMA_DISABLE_IT(huart->hdmarx, DMA_IT_HT);
 1279              		.loc 1 143 5
 1280 06e2 4FF48072 		mov	r2, #256
 1281 06e6 5C49     		ldr	r1, .L41+76
 1282 06e8 7868     		ldr	r0, [r7, #4]
 1283 06ea FFF7FEFF 		bl	HAL_UARTEx_ReceiveToIdle_DMA
 144:User/BSP/UART_data_txrx.c ****   }
 1284              		.loc 1 144 5
 1285 06ee 7B68     		ldr	r3, [r7, #4]
 1286 06f0 D3F88030 		ldr	r3, [r3, #128]
 1287 06f4 1B68     		ldr	r3, [r3]
 1288 06f6 474A     		ldr	r2, .L41+8
 1289 06f8 9342     		cmp	r3, r2
 1290 06fa 68D0     		beq	.L34
 144:User/BSP/UART_data_txrx.c ****   }
 1291              		.loc 1 144 5 is_stmt 0 discriminator 2
 1292 06fc 7B68     		ldr	r3, [r7, #4]
 1293 06fe D3F88030 		ldr	r3, [r3, #128]
ARM GAS  C:\Users\fffff\AppData\Local\Temp\ccnuqzHD.s 			page 28


 1294 0702 1B68     		ldr	r3, [r3]
 1295 0704 444A     		ldr	r2, .L41+12
 1296 0706 9342     		cmp	r3, r2
 1297 0708 61D0     		beq	.L34
 144:User/BSP/UART_data_txrx.c ****   }
 1298              		.loc 1 144 5 discriminator 4
 1299 070a 7B68     		ldr	r3, [r7, #4]
 1300 070c D3F88030 		ldr	r3, [r3, #128]
 1301 0710 1B68     		ldr	r3, [r3]
 1302 0712 424A     		ldr	r2, .L41+16
 1303 0714 9342     		cmp	r3, r2
 1304 0716 5AD0     		beq	.L34
 144:User/BSP/UART_data_txrx.c ****   }
 1305              		.loc 1 144 5 discriminator 6
 1306 0718 7B68     		ldr	r3, [r7, #4]
 1307 071a D3F88030 		ldr	r3, [r3, #128]
 1308 071e 1B68     		ldr	r3, [r3]
 1309 0720 3F4A     		ldr	r2, .L41+20
 1310 0722 9342     		cmp	r3, r2
 1311 0724 53D0     		beq	.L34
 144:User/BSP/UART_data_txrx.c ****   }
 1312              		.loc 1 144 5 discriminator 8
 1313 0726 7B68     		ldr	r3, [r7, #4]
 1314 0728 D3F88030 		ldr	r3, [r3, #128]
 1315 072c 1B68     		ldr	r3, [r3]
 1316 072e 3D4A     		ldr	r2, .L41+24
 1317 0730 9342     		cmp	r3, r2
 1318 0732 4CD0     		beq	.L34
 144:User/BSP/UART_data_txrx.c ****   }
 1319              		.loc 1 144 5 discriminator 10
 1320 0734 7B68     		ldr	r3, [r7, #4]
 1321 0736 D3F88030 		ldr	r3, [r3, #128]
 1322 073a 1B68     		ldr	r3, [r3]
 1323 073c 3A4A     		ldr	r2, .L41+28
 1324 073e 9342     		cmp	r3, r2
 1325 0740 45D0     		beq	.L34
 144:User/BSP/UART_data_txrx.c ****   }
 1326              		.loc 1 144 5 discriminator 12
 1327 0742 7B68     		ldr	r3, [r7, #4]
 1328 0744 D3F88030 		ldr	r3, [r3, #128]
 1329 0748 1B68     		ldr	r3, [r3]
 1330 074a 384A     		ldr	r2, .L41+32
 1331 074c 9342     		cmp	r3, r2
 1332 074e 3ED0     		beq	.L34
 144:User/BSP/UART_data_txrx.c ****   }
 1333              		.loc 1 144 5 discriminator 14
 1334 0750 7B68     		ldr	r3, [r7, #4]
 1335 0752 D3F88030 		ldr	r3, [r3, #128]
 1336 0756 1B68     		ldr	r3, [r3]
 1337 0758 354A     		ldr	r2, .L41+36
 1338 075a 9342     		cmp	r3, r2
 1339 075c 37D0     		beq	.L34
 144:User/BSP/UART_data_txrx.c ****   }
 1340              		.loc 1 144 5 discriminator 16
 1341 075e 7B68     		ldr	r3, [r7, #4]
 1342 0760 D3F88030 		ldr	r3, [r3, #128]
 1343 0764 1B68     		ldr	r3, [r3]
ARM GAS  C:\Users\fffff\AppData\Local\Temp\ccnuqzHD.s 			page 29


 1344 0766 334A     		ldr	r2, .L41+40
 1345 0768 9342     		cmp	r3, r2
 1346 076a 30D0     		beq	.L34
 144:User/BSP/UART_data_txrx.c ****   }
 1347              		.loc 1 144 5 discriminator 18
 1348 076c 7B68     		ldr	r3, [r7, #4]
 1349 076e D3F88030 		ldr	r3, [r3, #128]
 1350 0772 1B68     		ldr	r3, [r3]
 1351 0774 304A     		ldr	r2, .L41+44
 1352 0776 9342     		cmp	r3, r2
 1353 0778 29D0     		beq	.L34
 144:User/BSP/UART_data_txrx.c ****   }
 1354              		.loc 1 144 5 discriminator 20
 1355 077a 7B68     		ldr	r3, [r7, #4]
 1356 077c D3F88030 		ldr	r3, [r3, #128]
 1357 0780 1B68     		ldr	r3, [r3]
 1358 0782 2E4A     		ldr	r2, .L41+48
 1359 0784 9342     		cmp	r3, r2
 1360 0786 22D0     		beq	.L34
 144:User/BSP/UART_data_txrx.c ****   }
 1361              		.loc 1 144 5 discriminator 22
 1362 0788 7B68     		ldr	r3, [r7, #4]
 1363 078a D3F88030 		ldr	r3, [r3, #128]
 1364 078e 1B68     		ldr	r3, [r3]
 1365 0790 2B4A     		ldr	r2, .L41+52
 1366 0792 9342     		cmp	r3, r2
 1367 0794 1BD0     		beq	.L34
 144:User/BSP/UART_data_txrx.c ****   }
 1368              		.loc 1 144 5 discriminator 24
 1369 0796 7B68     		ldr	r3, [r7, #4]
 1370 0798 D3F88030 		ldr	r3, [r3, #128]
 1371 079c 1B68     		ldr	r3, [r3]
 1372 079e 294A     		ldr	r2, .L41+56
 1373 07a0 9342     		cmp	r3, r2
 1374 07a2 14D0     		beq	.L34
 144:User/BSP/UART_data_txrx.c ****   }
 1375              		.loc 1 144 5 discriminator 26
 1376 07a4 7B68     		ldr	r3, [r7, #4]
 1377 07a6 D3F88030 		ldr	r3, [r3, #128]
 1378 07aa 1B68     		ldr	r3, [r3]
 1379 07ac 264A     		ldr	r2, .L41+60
 1380 07ae 9342     		cmp	r3, r2
 1381 07b0 0DD0     		beq	.L34
 144:User/BSP/UART_data_txrx.c ****   }
 1382              		.loc 1 144 5 discriminator 28
 1383 07b2 7B68     		ldr	r3, [r7, #4]
 1384 07b4 D3F88030 		ldr	r3, [r3, #128]
 1385 07b8 1B68     		ldr	r3, [r3]
 1386 07ba 244A     		ldr	r2, .L41+64
 1387 07bc 9342     		cmp	r3, r2
 1388 07be 06D0     		beq	.L34
 144:User/BSP/UART_data_txrx.c ****   }
 1389              		.loc 1 144 5 discriminator 30
 1390 07c0 7B68     		ldr	r3, [r7, #4]
 1391 07c2 D3F88030 		ldr	r3, [r3, #128]
 1392 07c6 1B68     		ldr	r3, [r3]
 1393 07c8 214A     		ldr	r2, .L41+68
ARM GAS  C:\Users\fffff\AppData\Local\Temp\ccnuqzHD.s 			page 30


 1394 07ca 9342     		cmp	r3, r2
 1395 07cc 0CD1     		bne	.L35
 1396              	.L34:
 144:User/BSP/UART_data_txrx.c ****   }
 1397              		.loc 1 144 5 discriminator 31
 1398 07ce 7B68     		ldr	r3, [r7, #4]
 1399 07d0 D3F88030 		ldr	r3, [r3, #128]
 1400 07d4 1B68     		ldr	r3, [r3]
 1401 07d6 1A68     		ldr	r2, [r3]
 1402 07d8 7B68     		ldr	r3, [r7, #4]
 1403 07da D3F88030 		ldr	r3, [r3, #128]
 1404 07de 1B68     		ldr	r3, [r3]
 1405 07e0 22F00802 		bic	r2, r2, #8
 1406 07e4 1A60     		str	r2, [r3]
 144:User/BSP/UART_data_txrx.c ****   }
 1407              		.loc 1 144 5
 1408 07e6 0CE0     		b	.L16
 1409              	.L35:
 144:User/BSP/UART_data_txrx.c ****   }
 1410              		.loc 1 144 5 discriminator 32
 1411 07e8 7B68     		ldr	r3, [r7, #4]
 1412 07ea D3F88030 		ldr	r3, [r3, #128]
 1413 07ee 1B68     		ldr	r3, [r3]
 1414 07f0 1A68     		ldr	r2, [r3]
 1415 07f2 7B68     		ldr	r3, [r7, #4]
 1416 07f4 D3F88030 		ldr	r3, [r3, #128]
 1417 07f8 1B68     		ldr	r3, [r3]
 1418 07fa 22F00402 		bic	r2, r2, #4
 1419 07fe 1A60     		str	r2, [r3]
 1420              		.loc 1 146 1 is_stmt 1
 1421 0800 FFE7     		b	.L36
 1422              	.L16:
 1423              	.L36:
 1424 0802 00BF     		nop
 1425 0804 0837     		adds	r7, r7, #8
 1426              	.LCFI16:
 1427              		.cfi_def_cfa_offset 8
 1428 0806 BD46     		mov	sp, r7
 1429              	.LCFI17:
 1430              		.cfi_def_cfa_register 13
 1431              		@ sp needed
 1432 0808 80BD     		pop	{r7, pc}
 1433              	.L42:
 1434 080a 00BF     		.align	2
 1435              	.L41:
 1436 080c 00000000 		.word	huart2
 1437 0810 0C000000 		.word	UART2_data+12
 1438 0814 10000240 		.word	1073872912
 1439 0818 28000240 		.word	1073872936
 1440 081c 40000240 		.word	1073872960
 1441 0820 58000240 		.word	1073872984
 1442 0824 70000240 		.word	1073873008
 1443 0828 88000240 		.word	1073873032
 1444 082c A0000240 		.word	1073873056
 1445 0830 B8000240 		.word	1073873080
 1446 0834 10040240 		.word	1073873936
 1447 0838 28040240 		.word	1073873960
ARM GAS  C:\Users\fffff\AppData\Local\Temp\ccnuqzHD.s 			page 31


 1448 083c 40040240 		.word	1073873984
 1449 0840 58040240 		.word	1073874008
 1450 0844 70040240 		.word	1073874032
 1451 0848 88040240 		.word	1073874056
 1452 084c A0040240 		.word	1073874080
 1453 0850 B8040240 		.word	1073874104
 1454 0854 00000000 		.word	huart3
 1455 0858 0C000000 		.word	UART3_data+12
 1456              		.cfi_endproc
 1457              	.LFE150:
 1459              		.section	.text.HAL_UART_RxCpltCallback,"ax",%progbits
 1460              		.align	1
 1461              		.global	HAL_UART_RxCpltCallback
 1462              		.syntax unified
 1463              		.thumb
 1464              		.thumb_func
 1466              	HAL_UART_RxCpltCallback:
 1467              	.LFB151:
 147:User/BSP/UART_data_txrx.c **** 
 148:User/BSP/UART_data_txrx.c **** /**
 149:User/BSP/UART_data_txrx.c ****  * @brief 串口接受完成中断回调函数，用于接受定长数据
 150:User/BSP/UART_data_txrx.c ****  *
 151:User/BSP/UART_data_txrx.c ****  * @param huart 接受串口号
 152:User/BSP/UART_data_txrx.c ****  */
 153:User/BSP/UART_data_txrx.c **** void HAL_UART_RxCpltCallback(UART_HandleTypeDef *huart)
 154:User/BSP/UART_data_txrx.c **** {
 1468              		.loc 1 154 1
 1469              		.cfi_startproc
 1470              		@ args = 0, pretend = 0, frame = 8
 1471              		@ frame_needed = 1, uses_anonymous_args = 0
 1472              		@ link register save eliminated.
 1473 0000 80B4     		push	{r7}
 1474              	.LCFI18:
 1475              		.cfi_def_cfa_offset 4
 1476              		.cfi_offset 7, -4
 1477 0002 83B0     		sub	sp, sp, #12
 1478              	.LCFI19:
 1479              		.cfi_def_cfa_offset 16
 1480 0004 00AF     		add	r7, sp, #0
 1481              	.LCFI20:
 1482              		.cfi_def_cfa_register 7
 1483 0006 7860     		str	r0, [r7, #4]
 155:User/BSP/UART_data_txrx.c **** }
 1484              		.loc 1 155 1
 1485 0008 00BF     		nop
 1486 000a 0C37     		adds	r7, r7, #12
 1487              	.LCFI21:
 1488              		.cfi_def_cfa_offset 4
 1489 000c BD46     		mov	sp, r7
 1490              	.LCFI22:
 1491              		.cfi_def_cfa_register 13
 1492              		@ sp needed
 1493 000e 5DF8047B 		ldr	r7, [sp], #4
 1494              	.LCFI23:
 1495              		.cfi_restore 7
 1496              		.cfi_def_cfa_offset 0
 1497 0012 7047     		bx	lr
ARM GAS  C:\Users\fffff\AppData\Local\Temp\ccnuqzHD.s 			page 32


 1498              		.cfi_endproc
 1499              	.LFE151:
 1501              		.section	.text.HAL_UART_ErrorCallback,"ax",%progbits
 1502              		.align	1
 1503              		.global	HAL_UART_ErrorCallback
 1504              		.syntax unified
 1505              		.thumb
 1506              		.thumb_func
 1508              	HAL_UART_ErrorCallback:
 1509              	.LFB152:
 156:User/BSP/UART_data_txrx.c **** 
 157:User/BSP/UART_data_txrx.c **** // 发生错误重启串口
 158:User/BSP/UART_data_txrx.c **** void HAL_UART_ErrorCallback(UART_HandleTypeDef *huart)
 159:User/BSP/UART_data_txrx.c **** {
 1510              		.loc 1 159 1
 1511              		.cfi_startproc
 1512              		@ args = 0, pretend = 0, frame = 8
 1513              		@ frame_needed = 1, uses_anonymous_args = 0
 1514 0000 80B5     		push	{r7, lr}
 1515              	.LCFI24:
 1516              		.cfi_def_cfa_offset 8
 1517              		.cfi_offset 7, -8
 1518              		.cfi_offset 14, -4
 1519 0002 82B0     		sub	sp, sp, #8
 1520              	.LCFI25:
 1521              		.cfi_def_cfa_offset 16
 1522 0004 00AF     		add	r7, sp, #0
 1523              	.LCFI26:
 1524              		.cfi_def_cfa_register 7
 1525 0006 7860     		str	r0, [r7, #4]
 160:User/BSP/UART_data_txrx.c ****   if (huart == &huart7)
 1526              		.loc 1 160 6
 1527 0008 7B68     		ldr	r3, [r7, #4]
 1528 000a 944A     		ldr	r2, .L61
 1529 000c 9342     		cmp	r3, r2
 1530 000e 40F09080 		bne	.L45
 161:User/BSP/UART_data_txrx.c ****   {
 162:User/BSP/UART_data_txrx.c ****     HAL_UARTEx_ReceiveToIdle_DMA(&huart7, UART7_data.rev_data, UART_BUFFER_SIZE);
 1531              		.loc 1 162 5
 1532 0012 4FF48072 		mov	r2, #256
 1533 0016 9249     		ldr	r1, .L61+4
 1534 0018 9048     		ldr	r0, .L61
 1535 001a FFF7FEFF 		bl	HAL_UARTEx_ReceiveToIdle_DMA
 163:User/BSP/UART_data_txrx.c ****     __HAL_DMA_DISABLE_IT(huart->hdmarx, DMA_IT_HT);
 1536              		.loc 1 163 5
 1537 001e 7B68     		ldr	r3, [r7, #4]
 1538 0020 D3F88030 		ldr	r3, [r3, #128]
 1539 0024 1B68     		ldr	r3, [r3]
 1540 0026 8F4A     		ldr	r2, .L61+8
 1541 0028 9342     		cmp	r3, r2
 1542 002a 68D0     		beq	.L46
 1543              		.loc 1 163 5 is_stmt 0 discriminator 2
 1544 002c 7B68     		ldr	r3, [r7, #4]
 1545 002e D3F88030 		ldr	r3, [r3, #128]
 1546 0032 1B68     		ldr	r3, [r3]
 1547 0034 8C4A     		ldr	r2, .L61+12
 1548 0036 9342     		cmp	r3, r2
ARM GAS  C:\Users\fffff\AppData\Local\Temp\ccnuqzHD.s 			page 33


 1549 0038 61D0     		beq	.L46
 1550              		.loc 1 163 5 discriminator 4
 1551 003a 7B68     		ldr	r3, [r7, #4]
 1552 003c D3F88030 		ldr	r3, [r3, #128]
 1553 0040 1B68     		ldr	r3, [r3]
 1554 0042 8A4A     		ldr	r2, .L61+16
 1555 0044 9342     		cmp	r3, r2
 1556 0046 5AD0     		beq	.L46
 1557              		.loc 1 163 5 discriminator 6
 1558 0048 7B68     		ldr	r3, [r7, #4]
 1559 004a D3F88030 		ldr	r3, [r3, #128]
 1560 004e 1B68     		ldr	r3, [r3]
 1561 0050 874A     		ldr	r2, .L61+20
 1562 0052 9342     		cmp	r3, r2
 1563 0054 53D0     		beq	.L46
 1564              		.loc 1 163 5 discriminator 8
 1565 0056 7B68     		ldr	r3, [r7, #4]
 1566 0058 D3F88030 		ldr	r3, [r3, #128]
 1567 005c 1B68     		ldr	r3, [r3]
 1568 005e 854A     		ldr	r2, .L61+24
 1569 0060 9342     		cmp	r3, r2
 1570 0062 4CD0     		beq	.L46
 1571              		.loc 1 163 5 discriminator 10
 1572 0064 7B68     		ldr	r3, [r7, #4]
 1573 0066 D3F88030 		ldr	r3, [r3, #128]
 1574 006a 1B68     		ldr	r3, [r3]
 1575 006c 824A     		ldr	r2, .L61+28
 1576 006e 9342     		cmp	r3, r2
 1577 0070 45D0     		beq	.L46
 1578              		.loc 1 163 5 discriminator 12
 1579 0072 7B68     		ldr	r3, [r7, #4]
 1580 0074 D3F88030 		ldr	r3, [r3, #128]
 1581 0078 1B68     		ldr	r3, [r3]
 1582 007a 804A     		ldr	r2, .L61+32
 1583 007c 9342     		cmp	r3, r2
 1584 007e 3ED0     		beq	.L46
 1585              		.loc 1 163 5 discriminator 14
 1586 0080 7B68     		ldr	r3, [r7, #4]
 1587 0082 D3F88030 		ldr	r3, [r3, #128]
 1588 0086 1B68     		ldr	r3, [r3]
 1589 0088 7D4A     		ldr	r2, .L61+36
 1590 008a 9342     		cmp	r3, r2
 1591 008c 37D0     		beq	.L46
 1592              		.loc 1 163 5 discriminator 16
 1593 008e 7B68     		ldr	r3, [r7, #4]
 1594 0090 D3F88030 		ldr	r3, [r3, #128]
 1595 0094 1B68     		ldr	r3, [r3]
 1596 0096 7B4A     		ldr	r2, .L61+40
 1597 0098 9342     		cmp	r3, r2
 1598 009a 30D0     		beq	.L46
 1599              		.loc 1 163 5 discriminator 18
 1600 009c 7B68     		ldr	r3, [r7, #4]
 1601 009e D3F88030 		ldr	r3, [r3, #128]
 1602 00a2 1B68     		ldr	r3, [r3]
 1603 00a4 784A     		ldr	r2, .L61+44
 1604 00a6 9342     		cmp	r3, r2
 1605 00a8 29D0     		beq	.L46
ARM GAS  C:\Users\fffff\AppData\Local\Temp\ccnuqzHD.s 			page 34


 1606              		.loc 1 163 5 discriminator 20
 1607 00aa 7B68     		ldr	r3, [r7, #4]
 1608 00ac D3F88030 		ldr	r3, [r3, #128]
 1609 00b0 1B68     		ldr	r3, [r3]
 1610 00b2 764A     		ldr	r2, .L61+48
 1611 00b4 9342     		cmp	r3, r2
 1612 00b6 22D0     		beq	.L46
 1613              		.loc 1 163 5 discriminator 22
 1614 00b8 7B68     		ldr	r3, [r7, #4]
 1615 00ba D3F88030 		ldr	r3, [r3, #128]
 1616 00be 1B68     		ldr	r3, [r3]
 1617 00c0 734A     		ldr	r2, .L61+52
 1618 00c2 9342     		cmp	r3, r2
 1619 00c4 1BD0     		beq	.L46
 1620              		.loc 1 163 5 discriminator 24
 1621 00c6 7B68     		ldr	r3, [r7, #4]
 1622 00c8 D3F88030 		ldr	r3, [r3, #128]
 1623 00cc 1B68     		ldr	r3, [r3]
 1624 00ce 714A     		ldr	r2, .L61+56
 1625 00d0 9342     		cmp	r3, r2
 1626 00d2 14D0     		beq	.L46
 1627              		.loc 1 163 5 discriminator 26
 1628 00d4 7B68     		ldr	r3, [r7, #4]
 1629 00d6 D3F88030 		ldr	r3, [r3, #128]
 1630 00da 1B68     		ldr	r3, [r3]
 1631 00dc 6E4A     		ldr	r2, .L61+60
 1632 00de 9342     		cmp	r3, r2
 1633 00e0 0DD0     		beq	.L46
 1634              		.loc 1 163 5 discriminator 28
 1635 00e2 7B68     		ldr	r3, [r7, #4]
 1636 00e4 D3F88030 		ldr	r3, [r3, #128]
 1637 00e8 1B68     		ldr	r3, [r3]
 1638 00ea 6C4A     		ldr	r2, .L61+64
 1639 00ec 9342     		cmp	r3, r2
 1640 00ee 06D0     		beq	.L46
 1641              		.loc 1 163 5 discriminator 30
 1642 00f0 7B68     		ldr	r3, [r7, #4]
 1643 00f2 D3F88030 		ldr	r3, [r3, #128]
 1644 00f6 1B68     		ldr	r3, [r3]
 1645 00f8 694A     		ldr	r2, .L61+68
 1646 00fa 9342     		cmp	r3, r2
 1647 00fc 0CD1     		bne	.L47
 1648              	.L46:
 1649              		.loc 1 163 5 discriminator 31
 1650 00fe 7B68     		ldr	r3, [r7, #4]
 1651 0100 D3F88030 		ldr	r3, [r3, #128]
 1652 0104 1B68     		ldr	r3, [r3]
 1653 0106 1A68     		ldr	r2, [r3]
 1654 0108 7B68     		ldr	r3, [r7, #4]
 1655 010a D3F88030 		ldr	r3, [r3, #128]
 1656 010e 1B68     		ldr	r3, [r3]
 1657 0110 22F00802 		bic	r2, r2, #8
 1658 0114 1A60     		str	r2, [r3]
 1659              		.loc 1 163 5
 1660 0116 F3E1     		b	.L49
 1661              	.L47:
 1662              		.loc 1 163 5 discriminator 32
ARM GAS  C:\Users\fffff\AppData\Local\Temp\ccnuqzHD.s 			page 35


 1663 0118 7B68     		ldr	r3, [r7, #4]
 1664 011a D3F88030 		ldr	r3, [r3, #128]
 1665 011e 1B68     		ldr	r3, [r3]
 1666 0120 1A68     		ldr	r2, [r3]
 1667 0122 7B68     		ldr	r3, [r7, #4]
 1668 0124 D3F88030 		ldr	r3, [r3, #128]
 1669 0128 1B68     		ldr	r3, [r3]
 1670 012a 22F00402 		bic	r2, r2, #4
 1671 012e 1A60     		str	r2, [r3]
 164:User/BSP/UART_data_txrx.c ****   }
 165:User/BSP/UART_data_txrx.c ****   else if (huart == &huart10)
 166:User/BSP/UART_data_txrx.c ****   {
 167:User/BSP/UART_data_txrx.c ****     HAL_UARTEx_ReceiveToIdle_DMA(&huart10, UART10_data.rev_data, UART_BUFFER_SIZE);
 168:User/BSP/UART_data_txrx.c ****     __HAL_DMA_DISABLE_IT(huart->hdmarx, DMA_IT_HT);
 169:User/BSP/UART_data_txrx.c ****   }
 170:User/BSP/UART_data_txrx.c ****   else if (huart == &huart5)
 171:User/BSP/UART_data_txrx.c ****   {
 172:User/BSP/UART_data_txrx.c ****     HAL_UARTEx_ReceiveToIdle_DMA(&huart5, UART5_data.rev_data, UART_BUFFER_SIZE);
 173:User/BSP/UART_data_txrx.c ****     __HAL_DMA_DISABLE_IT(huart->hdmarx, DMA_IT_HT);
 174:User/BSP/UART_data_txrx.c ****   }
 175:User/BSP/UART_data_txrx.c ****   else if (huart == &huart1)
 176:User/BSP/UART_data_txrx.c ****   {
 177:User/BSP/UART_data_txrx.c ****     HAL_UARTEx_ReceiveToIdle_DMA(&huart1, UART1_data.rev_data, UART_BUFFER_SIZE);
 178:User/BSP/UART_data_txrx.c ****     __HAL_DMA_DISABLE_IT(huart->hdmarx, DMA_IT_HT);
 179:User/BSP/UART_data_txrx.c ****   }
 180:User/BSP/UART_data_txrx.c **** }
 1672              		.loc 1 180 1 is_stmt 1
 1673 0130 E6E1     		b	.L60
 1674              	.L45:
 165:User/BSP/UART_data_txrx.c ****   {
 1675              		.loc 1 165 11
 1676 0132 7B68     		ldr	r3, [r7, #4]
 1677 0134 5B4A     		ldr	r2, .L61+72
 1678 0136 9342     		cmp	r3, r2
 1679 0138 40F0B880 		bne	.L50
 167:User/BSP/UART_data_txrx.c ****     __HAL_DMA_DISABLE_IT(huart->hdmarx, DMA_IT_HT);
 1680              		.loc 1 167 5
 1681 013c 4FF48072 		mov	r2, #256
 1682 0140 5949     		ldr	r1, .L61+76
 1683 0142 5848     		ldr	r0, .L61+72
 1684 0144 FFF7FEFF 		bl	HAL_UARTEx_ReceiveToIdle_DMA
 168:User/BSP/UART_data_txrx.c ****   }
 1685              		.loc 1 168 5
 1686 0148 7B68     		ldr	r3, [r7, #4]
 1687 014a D3F88030 		ldr	r3, [r3, #128]
 1688 014e 1B68     		ldr	r3, [r3]
 1689 0150 444A     		ldr	r2, .L61+8
 1690 0152 9342     		cmp	r3, r2
 1691 0154 68D0     		beq	.L51
 168:User/BSP/UART_data_txrx.c ****   }
 1692              		.loc 1 168 5 is_stmt 0 discriminator 2
 1693 0156 7B68     		ldr	r3, [r7, #4]
 1694 0158 D3F88030 		ldr	r3, [r3, #128]
 1695 015c 1B68     		ldr	r3, [r3]
 1696 015e 424A     		ldr	r2, .L61+12
 1697 0160 9342     		cmp	r3, r2
 1698 0162 61D0     		beq	.L51
ARM GAS  C:\Users\fffff\AppData\Local\Temp\ccnuqzHD.s 			page 36


 168:User/BSP/UART_data_txrx.c ****   }
 1699              		.loc 1 168 5 discriminator 4
 1700 0164 7B68     		ldr	r3, [r7, #4]
 1701 0166 D3F88030 		ldr	r3, [r3, #128]
 1702 016a 1B68     		ldr	r3, [r3]
 1703 016c 3F4A     		ldr	r2, .L61+16
 1704 016e 9342     		cmp	r3, r2
 1705 0170 5AD0     		beq	.L51
 168:User/BSP/UART_data_txrx.c ****   }
 1706              		.loc 1 168 5 discriminator 6
 1707 0172 7B68     		ldr	r3, [r7, #4]
 1708 0174 D3F88030 		ldr	r3, [r3, #128]
 1709 0178 1B68     		ldr	r3, [r3]
 1710 017a 3D4A     		ldr	r2, .L61+20
 1711 017c 9342     		cmp	r3, r2
 1712 017e 53D0     		beq	.L51
 168:User/BSP/UART_data_txrx.c ****   }
 1713              		.loc 1 168 5 discriminator 8
 1714 0180 7B68     		ldr	r3, [r7, #4]
 1715 0182 D3F88030 		ldr	r3, [r3, #128]
 1716 0186 1B68     		ldr	r3, [r3]
 1717 0188 3A4A     		ldr	r2, .L61+24
 1718 018a 9342     		cmp	r3, r2
 1719 018c 4CD0     		beq	.L51
 168:User/BSP/UART_data_txrx.c ****   }
 1720              		.loc 1 168 5 discriminator 10
 1721 018e 7B68     		ldr	r3, [r7, #4]
 1722 0190 D3F88030 		ldr	r3, [r3, #128]
 1723 0194 1B68     		ldr	r3, [r3]
 1724 0196 384A     		ldr	r2, .L61+28
 1725 0198 9342     		cmp	r3, r2
 1726 019a 45D0     		beq	.L51
 168:User/BSP/UART_data_txrx.c ****   }
 1727              		.loc 1 168 5 discriminator 12
 1728 019c 7B68     		ldr	r3, [r7, #4]
 1729 019e D3F88030 		ldr	r3, [r3, #128]
 1730 01a2 1B68     		ldr	r3, [r3]
 1731 01a4 354A     		ldr	r2, .L61+32
 1732 01a6 9342     		cmp	r3, r2
 1733 01a8 3ED0     		beq	.L51
 168:User/BSP/UART_data_txrx.c ****   }
 1734              		.loc 1 168 5 discriminator 14
 1735 01aa 7B68     		ldr	r3, [r7, #4]
 1736 01ac D3F88030 		ldr	r3, [r3, #128]
 1737 01b0 1B68     		ldr	r3, [r3]
 1738 01b2 334A     		ldr	r2, .L61+36
 1739 01b4 9342     		cmp	r3, r2
 1740 01b6 37D0     		beq	.L51
 168:User/BSP/UART_data_txrx.c ****   }
 1741              		.loc 1 168 5 discriminator 16
 1742 01b8 7B68     		ldr	r3, [r7, #4]
 1743 01ba D3F88030 		ldr	r3, [r3, #128]
 1744 01be 1B68     		ldr	r3, [r3]
 1745 01c0 304A     		ldr	r2, .L61+40
 1746 01c2 9342     		cmp	r3, r2
 1747 01c4 30D0     		beq	.L51
 168:User/BSP/UART_data_txrx.c ****   }
ARM GAS  C:\Users\fffff\AppData\Local\Temp\ccnuqzHD.s 			page 37


 1748              		.loc 1 168 5 discriminator 18
 1749 01c6 7B68     		ldr	r3, [r7, #4]
 1750 01c8 D3F88030 		ldr	r3, [r3, #128]
 1751 01cc 1B68     		ldr	r3, [r3]
 1752 01ce 2E4A     		ldr	r2, .L61+44
 1753 01d0 9342     		cmp	r3, r2
 1754 01d2 29D0     		beq	.L51
 168:User/BSP/UART_data_txrx.c ****   }
 1755              		.loc 1 168 5 discriminator 20
 1756 01d4 7B68     		ldr	r3, [r7, #4]
 1757 01d6 D3F88030 		ldr	r3, [r3, #128]
 1758 01da 1B68     		ldr	r3, [r3]
 1759 01dc 2B4A     		ldr	r2, .L61+48
 1760 01de 9342     		cmp	r3, r2
 1761 01e0 22D0     		beq	.L51
 168:User/BSP/UART_data_txrx.c ****   }
 1762              		.loc 1 168 5 discriminator 22
 1763 01e2 7B68     		ldr	r3, [r7, #4]
 1764 01e4 D3F88030 		ldr	r3, [r3, #128]
 1765 01e8 1B68     		ldr	r3, [r3]
 1766 01ea 294A     		ldr	r2, .L61+52
 1767 01ec 9342     		cmp	r3, r2
 1768 01ee 1BD0     		beq	.L51
 168:User/BSP/UART_data_txrx.c ****   }
 1769              		.loc 1 168 5 discriminator 24
 1770 01f0 7B68     		ldr	r3, [r7, #4]
 1771 01f2 D3F88030 		ldr	r3, [r3, #128]
 1772 01f6 1B68     		ldr	r3, [r3]
 1773 01f8 264A     		ldr	r2, .L61+56
 1774 01fa 9342     		cmp	r3, r2
 1775 01fc 14D0     		beq	.L51
 168:User/BSP/UART_data_txrx.c ****   }
 1776              		.loc 1 168 5 discriminator 26
 1777 01fe 7B68     		ldr	r3, [r7, #4]
 1778 0200 D3F88030 		ldr	r3, [r3, #128]
 1779 0204 1B68     		ldr	r3, [r3]
 1780 0206 244A     		ldr	r2, .L61+60
 1781 0208 9342     		cmp	r3, r2
 1782 020a 0DD0     		beq	.L51
 168:User/BSP/UART_data_txrx.c ****   }
 1783              		.loc 1 168 5 discriminator 28
 1784 020c 7B68     		ldr	r3, [r7, #4]
 1785 020e D3F88030 		ldr	r3, [r3, #128]
 1786 0212 1B68     		ldr	r3, [r3]
 1787 0214 214A     		ldr	r2, .L61+64
 1788 0216 9342     		cmp	r3, r2
 1789 0218 06D0     		beq	.L51
 168:User/BSP/UART_data_txrx.c ****   }
 1790              		.loc 1 168 5 discriminator 30
 1791 021a 7B68     		ldr	r3, [r7, #4]
 1792 021c D3F88030 		ldr	r3, [r3, #128]
 1793 0220 1B68     		ldr	r3, [r3]
 1794 0222 1F4A     		ldr	r2, .L61+68
 1795 0224 9342     		cmp	r3, r2
 1796 0226 0CD1     		bne	.L52
 1797              	.L51:
 168:User/BSP/UART_data_txrx.c ****   }
ARM GAS  C:\Users\fffff\AppData\Local\Temp\ccnuqzHD.s 			page 38


 1798              		.loc 1 168 5 discriminator 31
 1799 0228 7B68     		ldr	r3, [r7, #4]
 1800 022a D3F88030 		ldr	r3, [r3, #128]
 1801 022e 1B68     		ldr	r3, [r3]
 1802 0230 1A68     		ldr	r2, [r3]
 1803 0232 7B68     		ldr	r3, [r7, #4]
 1804 0234 D3F88030 		ldr	r3, [r3, #128]
 1805 0238 1B68     		ldr	r3, [r3]
 1806 023a 22F00802 		bic	r2, r2, #8
 1807 023e 1A60     		str	r2, [r3]
 168:User/BSP/UART_data_txrx.c ****   }
 1808              		.loc 1 168 5
 1809 0240 5EE1     		b	.L49
 1810              	.L52:
 168:User/BSP/UART_data_txrx.c ****   }
 1811              		.loc 1 168 5 discriminator 32
 1812 0242 7B68     		ldr	r3, [r7, #4]
 1813 0244 D3F88030 		ldr	r3, [r3, #128]
 1814 0248 1B68     		ldr	r3, [r3]
 1815 024a 1A68     		ldr	r2, [r3]
 1816 024c 7B68     		ldr	r3, [r7, #4]
 1817 024e D3F88030 		ldr	r3, [r3, #128]
 1818 0252 1B68     		ldr	r3, [r3]
 1819 0254 22F00402 		bic	r2, r2, #4
 1820 0258 1A60     		str	r2, [r3]
 1821              		.loc 1 180 1 is_stmt 1
 1822 025a 51E1     		b	.L60
 1823              	.L62:
 1824              		.align	2
 1825              	.L61:
 1826 025c 00000000 		.word	huart7
 1827 0260 0C000000 		.word	UART7_data+12
 1828 0264 10000240 		.word	1073872912
 1829 0268 28000240 		.word	1073872936
 1830 026c 40000240 		.word	1073872960
 1831 0270 58000240 		.word	1073872984
 1832 0274 70000240 		.word	1073873008
 1833 0278 88000240 		.word	1073873032
 1834 027c A0000240 		.word	1073873056
 1835 0280 B8000240 		.word	1073873080
 1836 0284 10040240 		.word	1073873936
 1837 0288 28040240 		.word	1073873960
 1838 028c 40040240 		.word	1073873984
 1839 0290 58040240 		.word	1073874008
 1840 0294 70040240 		.word	1073874032
 1841 0298 88040240 		.word	1073874056
 1842 029c A0040240 		.word	1073874080
 1843 02a0 B8040240 		.word	1073874104
 1844 02a4 00000000 		.word	huart10
 1845 02a8 0C000000 		.word	UART10_data+12
 1846              	.L50:
 170:User/BSP/UART_data_txrx.c ****   {
 1847              		.loc 1 170 11
 1848 02ac 7B68     		ldr	r3, [r7, #4]
 1849 02ae 964A     		ldr	r2, .L63
 1850 02b0 9342     		cmp	r3, r2
 1851 02b2 40F09080 		bne	.L54
ARM GAS  C:\Users\fffff\AppData\Local\Temp\ccnuqzHD.s 			page 39


 172:User/BSP/UART_data_txrx.c ****     __HAL_DMA_DISABLE_IT(huart->hdmarx, DMA_IT_HT);
 1852              		.loc 1 172 5
 1853 02b6 4FF48072 		mov	r2, #256
 1854 02ba 9449     		ldr	r1, .L63+4
 1855 02bc 9248     		ldr	r0, .L63
 1856 02be FFF7FEFF 		bl	HAL_UARTEx_ReceiveToIdle_DMA
 173:User/BSP/UART_data_txrx.c ****   }
 1857              		.loc 1 173 5
 1858 02c2 7B68     		ldr	r3, [r7, #4]
 1859 02c4 D3F88030 		ldr	r3, [r3, #128]
 1860 02c8 1B68     		ldr	r3, [r3]
 1861 02ca 914A     		ldr	r2, .L63+8
 1862 02cc 9342     		cmp	r3, r2
 1863 02ce 68D0     		beq	.L55
 173:User/BSP/UART_data_txrx.c ****   }
 1864              		.loc 1 173 5 is_stmt 0 discriminator 2
 1865 02d0 7B68     		ldr	r3, [r7, #4]
 1866 02d2 D3F88030 		ldr	r3, [r3, #128]
 1867 02d6 1B68     		ldr	r3, [r3]
 1868 02d8 8E4A     		ldr	r2, .L63+12
 1869 02da 9342     		cmp	r3, r2
 1870 02dc 61D0     		beq	.L55
 173:User/BSP/UART_data_txrx.c ****   }
 1871              		.loc 1 173 5 discriminator 4
 1872 02de 7B68     		ldr	r3, [r7, #4]
 1873 02e0 D3F88030 		ldr	r3, [r3, #128]
 1874 02e4 1B68     		ldr	r3, [r3]
 1875 02e6 8C4A     		ldr	r2, .L63+16
 1876 02e8 9342     		cmp	r3, r2
 1877 02ea 5AD0     		beq	.L55
 173:User/BSP/UART_data_txrx.c ****   }
 1878              		.loc 1 173 5 discriminator 6
 1879 02ec 7B68     		ldr	r3, [r7, #4]
 1880 02ee D3F88030 		ldr	r3, [r3, #128]
 1881 02f2 1B68     		ldr	r3, [r3]
 1882 02f4 894A     		ldr	r2, .L63+20
 1883 02f6 9342     		cmp	r3, r2
 1884 02f8 53D0     		beq	.L55
 173:User/BSP/UART_data_txrx.c ****   }
 1885              		.loc 1 173 5 discriminator 8
 1886 02fa 7B68     		ldr	r3, [r7, #4]
 1887 02fc D3F88030 		ldr	r3, [r3, #128]
 1888 0300 1B68     		ldr	r3, [r3]
 1889 0302 874A     		ldr	r2, .L63+24
 1890 0304 9342     		cmp	r3, r2
 1891 0306 4CD0     		beq	.L55
 173:User/BSP/UART_data_txrx.c ****   }
 1892              		.loc 1 173 5 discriminator 10
 1893 0308 7B68     		ldr	r3, [r7, #4]
 1894 030a D3F88030 		ldr	r3, [r3, #128]
 1895 030e 1B68     		ldr	r3, [r3]
 1896 0310 844A     		ldr	r2, .L63+28
 1897 0312 9342     		cmp	r3, r2
 1898 0314 45D0     		beq	.L55
 173:User/BSP/UART_data_txrx.c ****   }
 1899              		.loc 1 173 5 discriminator 12
 1900 0316 7B68     		ldr	r3, [r7, #4]
ARM GAS  C:\Users\fffff\AppData\Local\Temp\ccnuqzHD.s 			page 40


 1901 0318 D3F88030 		ldr	r3, [r3, #128]
 1902 031c 1B68     		ldr	r3, [r3]
 1903 031e 824A     		ldr	r2, .L63+32
 1904 0320 9342     		cmp	r3, r2
 1905 0322 3ED0     		beq	.L55
 173:User/BSP/UART_data_txrx.c ****   }
 1906              		.loc 1 173 5 discriminator 14
 1907 0324 7B68     		ldr	r3, [r7, #4]
 1908 0326 D3F88030 		ldr	r3, [r3, #128]
 1909 032a 1B68     		ldr	r3, [r3]
 1910 032c 7F4A     		ldr	r2, .L63+36
 1911 032e 9342     		cmp	r3, r2
 1912 0330 37D0     		beq	.L55
 173:User/BSP/UART_data_txrx.c ****   }
 1913              		.loc 1 173 5 discriminator 16
 1914 0332 7B68     		ldr	r3, [r7, #4]
 1915 0334 D3F88030 		ldr	r3, [r3, #128]
 1916 0338 1B68     		ldr	r3, [r3]
 1917 033a 7D4A     		ldr	r2, .L63+40
 1918 033c 9342     		cmp	r3, r2
 1919 033e 30D0     		beq	.L55
 173:User/BSP/UART_data_txrx.c ****   }
 1920              		.loc 1 173 5 discriminator 18
 1921 0340 7B68     		ldr	r3, [r7, #4]
 1922 0342 D3F88030 		ldr	r3, [r3, #128]
 1923 0346 1B68     		ldr	r3, [r3]
 1924 0348 7A4A     		ldr	r2, .L63+44
 1925 034a 9342     		cmp	r3, r2
 1926 034c 29D0     		beq	.L55
 173:User/BSP/UART_data_txrx.c ****   }
 1927              		.loc 1 173 5 discriminator 20
 1928 034e 7B68     		ldr	r3, [r7, #4]
 1929 0350 D3F88030 		ldr	r3, [r3, #128]
 1930 0354 1B68     		ldr	r3, [r3]
 1931 0356 784A     		ldr	r2, .L63+48
 1932 0358 9342     		cmp	r3, r2
 1933 035a 22D0     		beq	.L55
 173:User/BSP/UART_data_txrx.c ****   }
 1934              		.loc 1 173 5 discriminator 22
 1935 035c 7B68     		ldr	r3, [r7, #4]
 1936 035e D3F88030 		ldr	r3, [r3, #128]
 1937 0362 1B68     		ldr	r3, [r3]
 1938 0364 754A     		ldr	r2, .L63+52
 1939 0366 9342     		cmp	r3, r2
 1940 0368 1BD0     		beq	.L55
 173:User/BSP/UART_data_txrx.c ****   }
 1941              		.loc 1 173 5 discriminator 24
 1942 036a 7B68     		ldr	r3, [r7, #4]
 1943 036c D3F88030 		ldr	r3, [r3, #128]
 1944 0370 1B68     		ldr	r3, [r3]
 1945 0372 734A     		ldr	r2, .L63+56
 1946 0374 9342     		cmp	r3, r2
 1947 0376 14D0     		beq	.L55
 173:User/BSP/UART_data_txrx.c ****   }
 1948              		.loc 1 173 5 discriminator 26
 1949 0378 7B68     		ldr	r3, [r7, #4]
 1950 037a D3F88030 		ldr	r3, [r3, #128]
ARM GAS  C:\Users\fffff\AppData\Local\Temp\ccnuqzHD.s 			page 41


 1951 037e 1B68     		ldr	r3, [r3]
 1952 0380 704A     		ldr	r2, .L63+60
 1953 0382 9342     		cmp	r3, r2
 1954 0384 0DD0     		beq	.L55
 173:User/BSP/UART_data_txrx.c ****   }
 1955              		.loc 1 173 5 discriminator 28
 1956 0386 7B68     		ldr	r3, [r7, #4]
 1957 0388 D3F88030 		ldr	r3, [r3, #128]
 1958 038c 1B68     		ldr	r3, [r3]
 1959 038e 6E4A     		ldr	r2, .L63+64
 1960 0390 9342     		cmp	r3, r2
 1961 0392 06D0     		beq	.L55
 173:User/BSP/UART_data_txrx.c ****   }
 1962              		.loc 1 173 5 discriminator 30
 1963 0394 7B68     		ldr	r3, [r7, #4]
 1964 0396 D3F88030 		ldr	r3, [r3, #128]
 1965 039a 1B68     		ldr	r3, [r3]
 1966 039c 6B4A     		ldr	r2, .L63+68
 1967 039e 9342     		cmp	r3, r2
 1968 03a0 0CD1     		bne	.L56
 1969              	.L55:
 173:User/BSP/UART_data_txrx.c ****   }
 1970              		.loc 1 173 5 discriminator 31
 1971 03a2 7B68     		ldr	r3, [r7, #4]
 1972 03a4 D3F88030 		ldr	r3, [r3, #128]
 1973 03a8 1B68     		ldr	r3, [r3]
 1974 03aa 1A68     		ldr	r2, [r3]
 1975 03ac 7B68     		ldr	r3, [r7, #4]
 1976 03ae D3F88030 		ldr	r3, [r3, #128]
 1977 03b2 1B68     		ldr	r3, [r3]
 1978 03b4 22F00802 		bic	r2, r2, #8
 1979 03b8 1A60     		str	r2, [r3]
 173:User/BSP/UART_data_txrx.c ****   }
 1980              		.loc 1 173 5
 1981 03ba A1E0     		b	.L49
 1982              	.L56:
 173:User/BSP/UART_data_txrx.c ****   }
 1983              		.loc 1 173 5 discriminator 32
 1984 03bc 7B68     		ldr	r3, [r7, #4]
 1985 03be D3F88030 		ldr	r3, [r3, #128]
 1986 03c2 1B68     		ldr	r3, [r3]
 1987 03c4 1A68     		ldr	r2, [r3]
 1988 03c6 7B68     		ldr	r3, [r7, #4]
 1989 03c8 D3F88030 		ldr	r3, [r3, #128]
 1990 03cc 1B68     		ldr	r3, [r3]
 1991 03ce 22F00402 		bic	r2, r2, #4
 1992 03d2 1A60     		str	r2, [r3]
 1993              		.loc 1 180 1 is_stmt 1
 1994 03d4 94E0     		b	.L60
 1995              	.L54:
 175:User/BSP/UART_data_txrx.c ****   {
 1996              		.loc 1 175 11
 1997 03d6 7B68     		ldr	r3, [r7, #4]
 1998 03d8 5D4A     		ldr	r2, .L63+72
 1999 03da 9342     		cmp	r3, r2
 2000 03dc 40F09080 		bne	.L60
 177:User/BSP/UART_data_txrx.c ****     __HAL_DMA_DISABLE_IT(huart->hdmarx, DMA_IT_HT);
ARM GAS  C:\Users\fffff\AppData\Local\Temp\ccnuqzHD.s 			page 42


 2001              		.loc 1 177 5
 2002 03e0 4FF48072 		mov	r2, #256
 2003 03e4 5B49     		ldr	r1, .L63+76
 2004 03e6 5A48     		ldr	r0, .L63+72
 2005 03e8 FFF7FEFF 		bl	HAL_UARTEx_ReceiveToIdle_DMA
 178:User/BSP/UART_data_txrx.c ****   }
 2006              		.loc 1 178 5
 2007 03ec 7B68     		ldr	r3, [r7, #4]
 2008 03ee D3F88030 		ldr	r3, [r3, #128]
 2009 03f2 1B68     		ldr	r3, [r3]
 2010 03f4 464A     		ldr	r2, .L63+8
 2011 03f6 9342     		cmp	r3, r2
 2012 03f8 68D0     		beq	.L58
 178:User/BSP/UART_data_txrx.c ****   }
 2013              		.loc 1 178 5 is_stmt 0 discriminator 2
 2014 03fa 7B68     		ldr	r3, [r7, #4]
 2015 03fc D3F88030 		ldr	r3, [r3, #128]
 2016 0400 1B68     		ldr	r3, [r3]
 2017 0402 444A     		ldr	r2, .L63+12
 2018 0404 9342     		cmp	r3, r2
 2019 0406 61D0     		beq	.L58
 178:User/BSP/UART_data_txrx.c ****   }
 2020              		.loc 1 178 5 discriminator 4
 2021 0408 7B68     		ldr	r3, [r7, #4]
 2022 040a D3F88030 		ldr	r3, [r3, #128]
 2023 040e 1B68     		ldr	r3, [r3]
 2024 0410 414A     		ldr	r2, .L63+16
 2025 0412 9342     		cmp	r3, r2
 2026 0414 5AD0     		beq	.L58
 178:User/BSP/UART_data_txrx.c ****   }
 2027              		.loc 1 178 5 discriminator 6
 2028 0416 7B68     		ldr	r3, [r7, #4]
 2029 0418 D3F88030 		ldr	r3, [r3, #128]
 2030 041c 1B68     		ldr	r3, [r3]
 2031 041e 3F4A     		ldr	r2, .L63+20
 2032 0420 9342     		cmp	r3, r2
 2033 0422 53D0     		beq	.L58
 178:User/BSP/UART_data_txrx.c ****   }
 2034              		.loc 1 178 5 discriminator 8
 2035 0424 7B68     		ldr	r3, [r7, #4]
 2036 0426 D3F88030 		ldr	r3, [r3, #128]
 2037 042a 1B68     		ldr	r3, [r3]
 2038 042c 3C4A     		ldr	r2, .L63+24
 2039 042e 9342     		cmp	r3, r2
 2040 0430 4CD0     		beq	.L58
 178:User/BSP/UART_data_txrx.c ****   }
 2041              		.loc 1 178 5 discriminator 10
 2042 0432 7B68     		ldr	r3, [r7, #4]
 2043 0434 D3F88030 		ldr	r3, [r3, #128]
 2044 0438 1B68     		ldr	r3, [r3]
 2045 043a 3A4A     		ldr	r2, .L63+28
 2046 043c 9342     		cmp	r3, r2
 2047 043e 45D0     		beq	.L58
 178:User/BSP/UART_data_txrx.c ****   }
 2048              		.loc 1 178 5 discriminator 12
 2049 0440 7B68     		ldr	r3, [r7, #4]
 2050 0442 D3F88030 		ldr	r3, [r3, #128]
ARM GAS  C:\Users\fffff\AppData\Local\Temp\ccnuqzHD.s 			page 43


 2051 0446 1B68     		ldr	r3, [r3]
 2052 0448 374A     		ldr	r2, .L63+32
 2053 044a 9342     		cmp	r3, r2
 2054 044c 3ED0     		beq	.L58
 178:User/BSP/UART_data_txrx.c ****   }
 2055              		.loc 1 178 5 discriminator 14
 2056 044e 7B68     		ldr	r3, [r7, #4]
 2057 0450 D3F88030 		ldr	r3, [r3, #128]
 2058 0454 1B68     		ldr	r3, [r3]
 2059 0456 354A     		ldr	r2, .L63+36
 2060 0458 9342     		cmp	r3, r2
 2061 045a 37D0     		beq	.L58
 178:User/BSP/UART_data_txrx.c ****   }
 2062              		.loc 1 178 5 discriminator 16
 2063 045c 7B68     		ldr	r3, [r7, #4]
 2064 045e D3F88030 		ldr	r3, [r3, #128]
 2065 0462 1B68     		ldr	r3, [r3]
 2066 0464 324A     		ldr	r2, .L63+40
 2067 0466 9342     		cmp	r3, r2
 2068 0468 30D0     		beq	.L58
 178:User/BSP/UART_data_txrx.c ****   }
 2069              		.loc 1 178 5 discriminator 18
 2070 046a 7B68     		ldr	r3, [r7, #4]
 2071 046c D3F88030 		ldr	r3, [r3, #128]
 2072 0470 1B68     		ldr	r3, [r3]
 2073 0472 304A     		ldr	r2, .L63+44
 2074 0474 9342     		cmp	r3, r2
 2075 0476 29D0     		beq	.L58
 178:User/BSP/UART_data_txrx.c ****   }
 2076              		.loc 1 178 5 discriminator 20
 2077 0478 7B68     		ldr	r3, [r7, #4]
 2078 047a D3F88030 		ldr	r3, [r3, #128]
 2079 047e 1B68     		ldr	r3, [r3]
 2080 0480 2D4A     		ldr	r2, .L63+48
 2081 0482 9342     		cmp	r3, r2
 2082 0484 22D0     		beq	.L58
 178:User/BSP/UART_data_txrx.c ****   }
 2083              		.loc 1 178 5 discriminator 22
 2084 0486 7B68     		ldr	r3, [r7, #4]
 2085 0488 D3F88030 		ldr	r3, [r3, #128]
 2086 048c 1B68     		ldr	r3, [r3]
 2087 048e 2B4A     		ldr	r2, .L63+52
 2088 0490 9342     		cmp	r3, r2
 2089 0492 1BD0     		beq	.L58
 178:User/BSP/UART_data_txrx.c ****   }
 2090              		.loc 1 178 5 discriminator 24
 2091 0494 7B68     		ldr	r3, [r7, #4]
 2092 0496 D3F88030 		ldr	r3, [r3, #128]
 2093 049a 1B68     		ldr	r3, [r3]
 2094 049c 284A     		ldr	r2, .L63+56
 2095 049e 9342     		cmp	r3, r2
 2096 04a0 14D0     		beq	.L58
 178:User/BSP/UART_data_txrx.c ****   }
 2097              		.loc 1 178 5 discriminator 26
 2098 04a2 7B68     		ldr	r3, [r7, #4]
 2099 04a4 D3F88030 		ldr	r3, [r3, #128]
 2100 04a8 1B68     		ldr	r3, [r3]
ARM GAS  C:\Users\fffff\AppData\Local\Temp\ccnuqzHD.s 			page 44


 2101 04aa 264A     		ldr	r2, .L63+60
 2102 04ac 9342     		cmp	r3, r2
 2103 04ae 0DD0     		beq	.L58
 178:User/BSP/UART_data_txrx.c ****   }
 2104              		.loc 1 178 5 discriminator 28
 2105 04b0 7B68     		ldr	r3, [r7, #4]
 2106 04b2 D3F88030 		ldr	r3, [r3, #128]
 2107 04b6 1B68     		ldr	r3, [r3]
 2108 04b8 234A     		ldr	r2, .L63+64
 2109 04ba 9342     		cmp	r3, r2
 2110 04bc 06D0     		beq	.L58
 178:User/BSP/UART_data_txrx.c ****   }
 2111              		.loc 1 178 5 discriminator 30
 2112 04be 7B68     		ldr	r3, [r7, #4]
 2113 04c0 D3F88030 		ldr	r3, [r3, #128]
 2114 04c4 1B68     		ldr	r3, [r3]
 2115 04c6 214A     		ldr	r2, .L63+68
 2116 04c8 9342     		cmp	r3, r2
 2117 04ca 0CD1     		bne	.L59
 2118              	.L58:
 178:User/BSP/UART_data_txrx.c ****   }
 2119              		.loc 1 178 5 discriminator 31
 2120 04cc 7B68     		ldr	r3, [r7, #4]
 2121 04ce D3F88030 		ldr	r3, [r3, #128]
 2122 04d2 1B68     		ldr	r3, [r3]
 2123 04d4 1A68     		ldr	r2, [r3]
 2124 04d6 7B68     		ldr	r3, [r7, #4]
 2125 04d8 D3F88030 		ldr	r3, [r3, #128]
 2126 04dc 1B68     		ldr	r3, [r3]
 2127 04de 22F00802 		bic	r2, r2, #8
 2128 04e2 1A60     		str	r2, [r3]
 178:User/BSP/UART_data_txrx.c ****   }
 2129              		.loc 1 178 5
 2130 04e4 0CE0     		b	.L49
 2131              	.L59:
 178:User/BSP/UART_data_txrx.c ****   }
 2132              		.loc 1 178 5 discriminator 32
 2133 04e6 7B68     		ldr	r3, [r7, #4]
 2134 04e8 D3F88030 		ldr	r3, [r3, #128]
 2135 04ec 1B68     		ldr	r3, [r3]
 2136 04ee 1A68     		ldr	r2, [r3]
 2137 04f0 7B68     		ldr	r3, [r7, #4]
 2138 04f2 D3F88030 		ldr	r3, [r3, #128]
 2139 04f6 1B68     		ldr	r3, [r3]
 2140 04f8 22F00402 		bic	r2, r2, #4
 2141 04fc 1A60     		str	r2, [r3]
 2142              		.loc 1 180 1 is_stmt 1
 2143 04fe FFE7     		b	.L60
 2144              	.L49:
 2145              	.L60:
 2146 0500 00BF     		nop
 2147 0502 0837     		adds	r7, r7, #8
 2148              	.LCFI27:
 2149              		.cfi_def_cfa_offset 8
 2150 0504 BD46     		mov	sp, r7
 2151              	.LCFI28:
 2152              		.cfi_def_cfa_register 13
ARM GAS  C:\Users\fffff\AppData\Local\Temp\ccnuqzHD.s 			page 45


 2153              		@ sp needed
 2154 0506 80BD     		pop	{r7, pc}
 2155              	.L64:
 2156              		.align	2
 2157              	.L63:
 2158 0508 00000000 		.word	huart5
 2159 050c 0C000000 		.word	UART5_data+12
 2160 0510 10000240 		.word	1073872912
 2161 0514 28000240 		.word	1073872936
 2162 0518 40000240 		.word	1073872960
 2163 051c 58000240 		.word	1073872984
 2164 0520 70000240 		.word	1073873008
 2165 0524 88000240 		.word	1073873032
 2166 0528 A0000240 		.word	1073873056
 2167 052c B8000240 		.word	1073873080
 2168 0530 10040240 		.word	1073873936
 2169 0534 28040240 		.word	1073873960
 2170 0538 40040240 		.word	1073873984
 2171 053c 58040240 		.word	1073874008
 2172 0540 70040240 		.word	1073874032
 2173 0544 88040240 		.word	1073874056
 2174 0548 A0040240 		.word	1073874080
 2175 054c B8040240 		.word	1073874104
 2176 0550 00000000 		.word	huart1
 2177 0554 0C000000 		.word	UART1_data+12
 2178              		.cfi_endproc
 2179              	.LFE152:
 2181              		.text
 2182              	.Letext0:
 2183              		.file 2 "C:/msys64/mingw64/arm-none-eabi/include/machine/_default_types.h"
 2184              		.file 3 "C:/msys64/mingw64/arm-none-eabi/include/sys/_stdint.h"
 2185              		.file 4 "Drivers/CMSIS/Device/ST/STM32H7xx/Include/stm32h723xx.h"
 2186              		.file 5 "Drivers/STM32H7xx_HAL_Driver/Inc/stm32h7xx_hal_def.h"
 2187              		.file 6 "Drivers/STM32H7xx_HAL_Driver/Inc/stm32h7xx_hal_dma.h"
 2188              		.file 7 "Drivers/STM32H7xx_HAL_Driver/Inc/stm32h7xx_hal_uart.h"
 2189              		.file 8 "Algorithm/fifo.h"
 2190              		.file 9 "Core/Inc/usart.h"
 2191              		.file 10 "User/BSP/UART_data_txrx.h"
 2192              		.file 11 "User/Hardware/DT7.h"
 2193              		.file 12 "User/Hardware/referee_system.h"
 2194              		.file 13 "User/Software/Global_status.h"
 2195              		.file 14 "User/Software/Auto_control.h"
 2196              		.file 15 "Drivers/STM32H7xx_HAL_Driver/Inc/stm32h7xx_hal_uart_ex.h"
ARM GAS  C:\Users\fffff\AppData\Local\Temp\ccnuqzHD.s 			page 46


DEFINED SYMBOLS
                            *ABS*:00000000 UART_data_txrx.c
C:\Users\fffff\AppData\Local\Temp\ccnuqzHD.s:24     .bss.UART1_data:00000000 UART1_data
C:\Users\fffff\AppData\Local\Temp\ccnuqzHD.s:21     .bss.UART1_data:00000000 $d
C:\Users\fffff\AppData\Local\Temp\ccnuqzHD.s:31     .bss.UART2_data:00000000 UART2_data
C:\Users\fffff\AppData\Local\Temp\ccnuqzHD.s:28     .bss.UART2_data:00000000 $d
C:\Users\fffff\AppData\Local\Temp\ccnuqzHD.s:38     .bss.UART3_data:00000000 UART3_data
C:\Users\fffff\AppData\Local\Temp\ccnuqzHD.s:35     .bss.UART3_data:00000000 $d
C:\Users\fffff\AppData\Local\Temp\ccnuqzHD.s:45     .bss.UART5_data:00000000 UART5_data
C:\Users\fffff\AppData\Local\Temp\ccnuqzHD.s:42     .bss.UART5_data:00000000 $d
C:\Users\fffff\AppData\Local\Temp\ccnuqzHD.s:52     .bss.UART7_data:00000000 UART7_data
C:\Users\fffff\AppData\Local\Temp\ccnuqzHD.s:49     .bss.UART7_data:00000000 $d
C:\Users\fffff\AppData\Local\Temp\ccnuqzHD.s:59     .bss.UART10_data:00000000 UART10_data
C:\Users\fffff\AppData\Local\Temp\ccnuqzHD.s:56     .bss.UART10_data:00000000 $d
C:\Users\fffff\AppData\Local\Temp\ccnuqzHD.s:62     .text.uart_init:00000000 $t
C:\Users\fffff\AppData\Local\Temp\ccnuqzHD.s:68     .text.uart_init:00000000 uart_init
C:\Users\fffff\AppData\Local\Temp\ccnuqzHD.s:154    .text.UART_DMA_rxtx_start:00000000 UART_DMA_rxtx_start
C:\Users\fffff\AppData\Local\Temp\ccnuqzHD.s:124    .text.uart_init:00000050 $d
C:\Users\fffff\AppData\Local\Temp\ccnuqzHD.s:148    .text.UART_DMA_rxtx_start:00000000 $t
C:\Users\fffff\AppData\Local\Temp\ccnuqzHD.s:346    .text.UART_DMA_rxtx_start:0000014c $d
C:\Users\fffff\AppData\Local\Temp\ccnuqzHD.s:366    .text.UART_send_data:00000000 $t
C:\Users\fffff\AppData\Local\Temp\ccnuqzHD.s:372    .text.UART_send_data:00000000 UART_send_data
C:\Users\fffff\AppData\Local\Temp\ccnuqzHD.s:416    .text.HAL_UARTEx_RxEventCallback:00000000 $t
C:\Users\fffff\AppData\Local\Temp\ccnuqzHD.s:422    .text.HAL_UARTEx_RxEventCallback:00000000 HAL_UARTEx_RxEventCallback
C:\Users\fffff\AppData\Local\Temp\ccnuqzHD.s:739    .text.HAL_UARTEx_RxEventCallback:0000025c $d
C:\Users\fffff\AppData\Local\Temp\ccnuqzHD.s:763    .text.HAL_UARTEx_RxEventCallback:000002b4 $t
C:\Users\fffff\AppData\Local\Temp\ccnuqzHD.s:1087   .text.HAL_UARTEx_RxEventCallback:00000534 $d
C:\Users\fffff\AppData\Local\Temp\ccnuqzHD.s:1113   .text.HAL_UARTEx_RxEventCallback:00000594 $t
C:\Users\fffff\AppData\Local\Temp\ccnuqzHD.s:1436   .text.HAL_UARTEx_RxEventCallback:0000080c $d
C:\Users\fffff\AppData\Local\Temp\ccnuqzHD.s:1460   .text.HAL_UART_RxCpltCallback:00000000 $t
C:\Users\fffff\AppData\Local\Temp\ccnuqzHD.s:1466   .text.HAL_UART_RxCpltCallback:00000000 HAL_UART_RxCpltCallback
C:\Users\fffff\AppData\Local\Temp\ccnuqzHD.s:1502   .text.HAL_UART_ErrorCallback:00000000 $t
C:\Users\fffff\AppData\Local\Temp\ccnuqzHD.s:1508   .text.HAL_UART_ErrorCallback:00000000 HAL_UART_ErrorCallback
C:\Users\fffff\AppData\Local\Temp\ccnuqzHD.s:1826   .text.HAL_UART_ErrorCallback:0000025c $d
C:\Users\fffff\AppData\Local\Temp\ccnuqzHD.s:1848   .text.HAL_UART_ErrorCallback:000002ac $t
C:\Users\fffff\AppData\Local\Temp\ccnuqzHD.s:2158   .text.HAL_UART_ErrorCallback:00000508 $d

UNDEFINED SYMBOLS
hdma_usart1_rx
huart1
hdma_usart2_rx
huart2
hdma_usart3_rx
huart3
hdma_uart5_rx
huart5
hdma_uart7_tx
hdma_uart7_rx
huart7
hdma_usart10_tx
hdma_usart10_rx
huart10
HAL_UARTEx_ReceiveToIdle_DMA
HAL_UART_Transmit_DMA
update_sbus
fifo_s_puts
SBUS_CH
ARM GAS  C:\Users\fffff\AppData\Local\Temp\ccnuqzHD.s 			page 47


referee_fifo
decodeMINIPCdata
MINIPC_to_STM32
referee_image_fifo
Global
fromMINIPC
