ARM GAS  C:\Users\23671\AppData\Local\Temp\ccoDtdY8.s 			page 1


   1              		.cpu cortex-m7
   2              		.arch armv7e-m
   3              		.fpu fpv5-d16
   4              		.eabi_attribute 28, 1
   5              		.eabi_attribute 20, 1
   6              		.eabi_attribute 21, 1
   7              		.eabi_attribute 23, 3
   8              		.eabi_attribute 24, 1
   9              		.eabi_attribute 25, 1
  10              		.eabi_attribute 26, 1
  11              		.eabi_attribute 30, 6
  12              		.eabi_attribute 34, 1
  13              		.eabi_attribute 18, 4
  14              		.file	"usbd_conf.c"
  15              		.text
  16              	.Ltext0:
  17              		.cfi_sections	.debug_frame
  18              		.file 1 "USB_DEVICE/Target/usbd_conf.c"
  19              		.global	hpcd_USB_OTG_HS
  20              		.section	.bss.hpcd_USB_OTG_HS,"aw",%nobits
  21              		.align	2
  24              	hpcd_USB_OTG_HS:
  25 0000 00000000 		.space	1252
  25      00000000 
  25      00000000 
  25      00000000 
  25      00000000 
  26              		.section	.text.HAL_PCD_MspInit,"ax",%progbits
  27              		.align	1
  28              		.global	HAL_PCD_MspInit
  29              		.syntax unified
  30              		.thumb
  31              		.thumb_func
  33              	HAL_PCD_MspInit:
  34              	.LFB148:
   1:USB_DEVICE/Target/usbd_conf.c **** /* USER CODE BEGIN Header */
   2:USB_DEVICE/Target/usbd_conf.c **** /**
   3:USB_DEVICE/Target/usbd_conf.c ****   ******************************************************************************
   4:USB_DEVICE/Target/usbd_conf.c ****   * @file           : Target/usbd_conf.c
   5:USB_DEVICE/Target/usbd_conf.c ****   * @version        : v1.0_Cube
   6:USB_DEVICE/Target/usbd_conf.c ****   * @brief          : This file implements the board support package for the USB device library
   7:USB_DEVICE/Target/usbd_conf.c ****   ******************************************************************************
   8:USB_DEVICE/Target/usbd_conf.c ****   * @attention
   9:USB_DEVICE/Target/usbd_conf.c ****   *
  10:USB_DEVICE/Target/usbd_conf.c ****   * Copyright (c) 2024 STMicroelectronics.
  11:USB_DEVICE/Target/usbd_conf.c ****   * All rights reserved.
  12:USB_DEVICE/Target/usbd_conf.c ****   *
  13:USB_DEVICE/Target/usbd_conf.c ****   * This software is licensed under terms that can be found in the LICENSE file
  14:USB_DEVICE/Target/usbd_conf.c ****   * in the root directory of this software component.
  15:USB_DEVICE/Target/usbd_conf.c ****   * If no LICENSE file comes with this software, it is provided AS-IS.
  16:USB_DEVICE/Target/usbd_conf.c ****   *
  17:USB_DEVICE/Target/usbd_conf.c ****   ******************************************************************************
  18:USB_DEVICE/Target/usbd_conf.c ****   */
  19:USB_DEVICE/Target/usbd_conf.c **** /* USER CODE END Header */
  20:USB_DEVICE/Target/usbd_conf.c **** 
  21:USB_DEVICE/Target/usbd_conf.c **** /* Includes ------------------------------------------------------------------*/
  22:USB_DEVICE/Target/usbd_conf.c **** #include "stm32h7xx.h"
ARM GAS  C:\Users\23671\AppData\Local\Temp\ccoDtdY8.s 			page 2


  23:USB_DEVICE/Target/usbd_conf.c **** #include "stm32h7xx_hal.h"
  24:USB_DEVICE/Target/usbd_conf.c **** #include "usbd_def.h"
  25:USB_DEVICE/Target/usbd_conf.c **** #include "usbd_core.h"
  26:USB_DEVICE/Target/usbd_conf.c **** #include "usbd_cdc.h"
  27:USB_DEVICE/Target/usbd_conf.c **** 
  28:USB_DEVICE/Target/usbd_conf.c **** /* USER CODE BEGIN Includes */
  29:USB_DEVICE/Target/usbd_conf.c **** 
  30:USB_DEVICE/Target/usbd_conf.c **** /* USER CODE END Includes */
  31:USB_DEVICE/Target/usbd_conf.c **** 
  32:USB_DEVICE/Target/usbd_conf.c **** /* Private typedef -----------------------------------------------------------*/
  33:USB_DEVICE/Target/usbd_conf.c **** /* Private define ------------------------------------------------------------*/
  34:USB_DEVICE/Target/usbd_conf.c **** /* Private macro -------------------------------------------------------------*/
  35:USB_DEVICE/Target/usbd_conf.c **** 
  36:USB_DEVICE/Target/usbd_conf.c **** /* USER CODE BEGIN PV */
  37:USB_DEVICE/Target/usbd_conf.c **** /* Private variables ---------------------------------------------------------*/
  38:USB_DEVICE/Target/usbd_conf.c **** 
  39:USB_DEVICE/Target/usbd_conf.c **** /* USER CODE END PV */
  40:USB_DEVICE/Target/usbd_conf.c **** 
  41:USB_DEVICE/Target/usbd_conf.c **** PCD_HandleTypeDef hpcd_USB_OTG_HS;
  42:USB_DEVICE/Target/usbd_conf.c **** void Error_Handler(void);
  43:USB_DEVICE/Target/usbd_conf.c **** 
  44:USB_DEVICE/Target/usbd_conf.c **** /* External functions --------------------------------------------------------*/
  45:USB_DEVICE/Target/usbd_conf.c **** 
  46:USB_DEVICE/Target/usbd_conf.c **** /* USER CODE BEGIN 0 */
  47:USB_DEVICE/Target/usbd_conf.c **** 
  48:USB_DEVICE/Target/usbd_conf.c **** /* USER CODE END 0 */
  49:USB_DEVICE/Target/usbd_conf.c **** 
  50:USB_DEVICE/Target/usbd_conf.c **** /* USER CODE BEGIN PFP */
  51:USB_DEVICE/Target/usbd_conf.c **** /* Private function prototypes -----------------------------------------------*/
  52:USB_DEVICE/Target/usbd_conf.c **** USBD_StatusTypeDef USBD_Get_USB_Status(HAL_StatusTypeDef hal_status);
  53:USB_DEVICE/Target/usbd_conf.c **** 
  54:USB_DEVICE/Target/usbd_conf.c **** /* USER CODE END PFP */
  55:USB_DEVICE/Target/usbd_conf.c **** 
  56:USB_DEVICE/Target/usbd_conf.c **** /* Private functions ---------------------------------------------------------*/
  57:USB_DEVICE/Target/usbd_conf.c **** 
  58:USB_DEVICE/Target/usbd_conf.c **** /* USER CODE BEGIN 1 */
  59:USB_DEVICE/Target/usbd_conf.c **** /* USER CODE END 1 */
  60:USB_DEVICE/Target/usbd_conf.c **** 
  61:USB_DEVICE/Target/usbd_conf.c **** /*******************************************************************************
  62:USB_DEVICE/Target/usbd_conf.c ****                        LL Driver Callbacks (PCD -> USB Device Library)
  63:USB_DEVICE/Target/usbd_conf.c **** *******************************************************************************/
  64:USB_DEVICE/Target/usbd_conf.c **** /* MSP Init */
  65:USB_DEVICE/Target/usbd_conf.c **** 
  66:USB_DEVICE/Target/usbd_conf.c **** void HAL_PCD_MspInit(PCD_HandleTypeDef* pcdHandle)
  67:USB_DEVICE/Target/usbd_conf.c **** {
  35              		.loc 1 67 1
  36              		.cfi_startproc
  37              		@ args = 0, pretend = 0, frame = 200
  38              		@ frame_needed = 1, uses_anonymous_args = 0
  39 0000 80B5     		push	{r7, lr}
  40              	.LCFI0:
  41              		.cfi_def_cfa_offset 8
  42              		.cfi_offset 7, -8
  43              		.cfi_offset 14, -4
  44 0002 B2B0     		sub	sp, sp, #200
  45              	.LCFI1:
  46              		.cfi_def_cfa_offset 208
ARM GAS  C:\Users\23671\AppData\Local\Temp\ccoDtdY8.s 			page 3


  47 0004 00AF     		add	r7, sp, #0
  48              	.LCFI2:
  49              		.cfi_def_cfa_register 7
  50 0006 7860     		str	r0, [r7, #4]
  68:USB_DEVICE/Target/usbd_conf.c ****   RCC_PeriphCLKInitTypeDef PeriphClkInitStruct = {0};
  51              		.loc 1 68 28
  52 0008 07F11003 		add	r3, r7, #16
  53 000c B822     		movs	r2, #184
  54 000e 0021     		movs	r1, #0
  55 0010 1846     		mov	r0, r3
  56 0012 FFF7FEFF 		bl	memset
  69:USB_DEVICE/Target/usbd_conf.c ****   if(pcdHandle->Instance==USB_OTG_HS)
  57              		.loc 1 69 15
  58 0016 7B68     		ldr	r3, [r7, #4]
  59 0018 1B68     		ldr	r3, [r3]
  60              		.loc 1 69 5
  61 001a 1A4A     		ldr	r2, .L5
  62 001c 9342     		cmp	r3, r2
  63 001e 2CD1     		bne	.L4
  70:USB_DEVICE/Target/usbd_conf.c ****   {
  71:USB_DEVICE/Target/usbd_conf.c ****   /* USER CODE BEGIN USB_OTG_HS_MspInit 0 */
  72:USB_DEVICE/Target/usbd_conf.c **** 
  73:USB_DEVICE/Target/usbd_conf.c ****   /* USER CODE END USB_OTG_HS_MspInit 0 */
  74:USB_DEVICE/Target/usbd_conf.c **** 
  75:USB_DEVICE/Target/usbd_conf.c ****   /** Initializes the peripherals clock
  76:USB_DEVICE/Target/usbd_conf.c ****   */
  77:USB_DEVICE/Target/usbd_conf.c ****     PeriphClkInitStruct.PeriphClockSelection = RCC_PERIPHCLK_USB;
  64              		.loc 1 77 46
  65 0020 4FF48022 		mov	r2, #262144
  66 0024 4FF00003 		mov	r3, #0
  67 0028 C7E90423 		strd	r2, [r7, #16]
  78:USB_DEVICE/Target/usbd_conf.c ****     PeriphClkInitStruct.UsbClockSelection = RCC_USBCLKSOURCE_HSI48;
  68              		.loc 1 78 43
  69 002c 4FF44013 		mov	r3, #3145728
  70 0030 C7F89430 		str	r3, [r7, #148]
  79:USB_DEVICE/Target/usbd_conf.c ****     if (HAL_RCCEx_PeriphCLKConfig(&PeriphClkInitStruct) != HAL_OK)
  71              		.loc 1 79 9
  72 0034 07F11003 		add	r3, r7, #16
  73 0038 1846     		mov	r0, r3
  74 003a FFF7FEFF 		bl	HAL_RCCEx_PeriphCLKConfig
  75 003e 0346     		mov	r3, r0
  76              		.loc 1 79 8 discriminator 1
  77 0040 002B     		cmp	r3, #0
  78 0042 01D0     		beq	.L3
  80:USB_DEVICE/Target/usbd_conf.c ****     {
  81:USB_DEVICE/Target/usbd_conf.c ****       Error_Handler();
  79              		.loc 1 81 7
  80 0044 FFF7FEFF 		bl	Error_Handler
  81              	.L3:
  82:USB_DEVICE/Target/usbd_conf.c ****     }
  83:USB_DEVICE/Target/usbd_conf.c **** 
  84:USB_DEVICE/Target/usbd_conf.c ****   /** Enable USB Voltage detector
  85:USB_DEVICE/Target/usbd_conf.c ****   */
  86:USB_DEVICE/Target/usbd_conf.c ****     HAL_PWREx_EnableUSBVoltageDetector();
  82              		.loc 1 86 5
  83 0048 FFF7FEFF 		bl	HAL_PWREx_EnableUSBVoltageDetector
  84              	.LBB2:
ARM GAS  C:\Users\23671\AppData\Local\Temp\ccoDtdY8.s 			page 4


  87:USB_DEVICE/Target/usbd_conf.c **** 
  88:USB_DEVICE/Target/usbd_conf.c ****     /* Peripheral clock enable */
  89:USB_DEVICE/Target/usbd_conf.c ****     __HAL_RCC_USB_OTG_HS_CLK_ENABLE();
  85              		.loc 1 89 5
  86 004c 0E4B     		ldr	r3, .L5+4
  87 004e D3F8D830 		ldr	r3, [r3, #216]
  88 0052 0D4A     		ldr	r2, .L5+4
  89 0054 43F00073 		orr	r3, r3, #33554432
  90 0058 C2F8D830 		str	r3, [r2, #216]
  91 005c 0A4B     		ldr	r3, .L5+4
  92 005e D3F8D830 		ldr	r3, [r3, #216]
  93 0062 03F00073 		and	r3, r3, #33554432
  94 0066 FB60     		str	r3, [r7, #12]
  95 0068 FB68     		ldr	r3, [r7, #12]
  96              	.LBE2:
  90:USB_DEVICE/Target/usbd_conf.c **** 
  91:USB_DEVICE/Target/usbd_conf.c ****     /* Peripheral interrupt init */
  92:USB_DEVICE/Target/usbd_conf.c ****     HAL_NVIC_SetPriority(OTG_HS_IRQn, 5, 0);
  97              		.loc 1 92 5
  98 006a 0022     		movs	r2, #0
  99 006c 0521     		movs	r1, #5
 100 006e 4D20     		movs	r0, #77
 101 0070 FFF7FEFF 		bl	HAL_NVIC_SetPriority
  93:USB_DEVICE/Target/usbd_conf.c ****     HAL_NVIC_EnableIRQ(OTG_HS_IRQn);
 102              		.loc 1 93 5
 103 0074 4D20     		movs	r0, #77
 104 0076 FFF7FEFF 		bl	HAL_NVIC_EnableIRQ
 105              	.L4:
  94:USB_DEVICE/Target/usbd_conf.c ****   /* USER CODE BEGIN USB_OTG_HS_MspInit 1 */
  95:USB_DEVICE/Target/usbd_conf.c **** 
  96:USB_DEVICE/Target/usbd_conf.c ****   /* USER CODE END USB_OTG_HS_MspInit 1 */
  97:USB_DEVICE/Target/usbd_conf.c ****   }
  98:USB_DEVICE/Target/usbd_conf.c **** }
 106              		.loc 1 98 1
 107 007a 00BF     		nop
 108 007c C837     		adds	r7, r7, #200
 109              	.LCFI3:
 110              		.cfi_def_cfa_offset 8
 111 007e BD46     		mov	sp, r7
 112              	.LCFI4:
 113              		.cfi_def_cfa_register 13
 114              		@ sp needed
 115 0080 80BD     		pop	{r7, pc}
 116              	.L6:
 117 0082 00BF     		.align	2
 118              	.L5:
 119 0084 00000440 		.word	1074003968
 120 0088 00440258 		.word	1476543488
 121              		.cfi_endproc
 122              	.LFE148:
 124              		.section	.text.HAL_PCD_MspDeInit,"ax",%progbits
 125              		.align	1
 126              		.global	HAL_PCD_MspDeInit
 127              		.syntax unified
 128              		.thumb
 129              		.thumb_func
 131              	HAL_PCD_MspDeInit:
ARM GAS  C:\Users\23671\AppData\Local\Temp\ccoDtdY8.s 			page 5


 132              	.LFB149:
  99:USB_DEVICE/Target/usbd_conf.c **** 
 100:USB_DEVICE/Target/usbd_conf.c **** void HAL_PCD_MspDeInit(PCD_HandleTypeDef* pcdHandle)
 101:USB_DEVICE/Target/usbd_conf.c **** {
 133              		.loc 1 101 1
 134              		.cfi_startproc
 135              		@ args = 0, pretend = 0, frame = 8
 136              		@ frame_needed = 1, uses_anonymous_args = 0
 137 0000 80B5     		push	{r7, lr}
 138              	.LCFI5:
 139              		.cfi_def_cfa_offset 8
 140              		.cfi_offset 7, -8
 141              		.cfi_offset 14, -4
 142 0002 82B0     		sub	sp, sp, #8
 143              	.LCFI6:
 144              		.cfi_def_cfa_offset 16
 145 0004 00AF     		add	r7, sp, #0
 146              	.LCFI7:
 147              		.cfi_def_cfa_register 7
 148 0006 7860     		str	r0, [r7, #4]
 102:USB_DEVICE/Target/usbd_conf.c ****   if(pcdHandle->Instance==USB_OTG_HS)
 149              		.loc 1 102 15
 150 0008 7B68     		ldr	r3, [r7, #4]
 151 000a 1B68     		ldr	r3, [r3]
 152              		.loc 1 102 5
 153 000c 084A     		ldr	r2, .L10
 154 000e 9342     		cmp	r3, r2
 155 0010 0AD1     		bne	.L9
 103:USB_DEVICE/Target/usbd_conf.c ****   {
 104:USB_DEVICE/Target/usbd_conf.c ****   /* USER CODE BEGIN USB_OTG_HS_MspDeInit 0 */
 105:USB_DEVICE/Target/usbd_conf.c **** 
 106:USB_DEVICE/Target/usbd_conf.c ****   /* USER CODE END USB_OTG_HS_MspDeInit 0 */
 107:USB_DEVICE/Target/usbd_conf.c ****     /* Peripheral clock disable */
 108:USB_DEVICE/Target/usbd_conf.c ****     __HAL_RCC_USB_OTG_HS_CLK_DISABLE();
 156              		.loc 1 108 5
 157 0012 084B     		ldr	r3, .L10+4
 158 0014 D3F8D830 		ldr	r3, [r3, #216]
 159 0018 064A     		ldr	r2, .L10+4
 160 001a 23F00073 		bic	r3, r3, #33554432
 161 001e C2F8D830 		str	r3, [r2, #216]
 109:USB_DEVICE/Target/usbd_conf.c **** 
 110:USB_DEVICE/Target/usbd_conf.c ****     /* Peripheral interrupt Deinit*/
 111:USB_DEVICE/Target/usbd_conf.c ****     HAL_NVIC_DisableIRQ(OTG_HS_IRQn);
 162              		.loc 1 111 5
 163 0022 4D20     		movs	r0, #77
 164 0024 FFF7FEFF 		bl	HAL_NVIC_DisableIRQ
 165              	.L9:
 112:USB_DEVICE/Target/usbd_conf.c **** 
 113:USB_DEVICE/Target/usbd_conf.c ****   /* USER CODE BEGIN USB_OTG_HS_MspDeInit 1 */
 114:USB_DEVICE/Target/usbd_conf.c **** 
 115:USB_DEVICE/Target/usbd_conf.c ****   /* USER CODE END USB_OTG_HS_MspDeInit 1 */
 116:USB_DEVICE/Target/usbd_conf.c ****   }
 117:USB_DEVICE/Target/usbd_conf.c **** }
 166              		.loc 1 117 1
 167 0028 00BF     		nop
 168 002a 0837     		adds	r7, r7, #8
 169              	.LCFI8:
ARM GAS  C:\Users\23671\AppData\Local\Temp\ccoDtdY8.s 			page 6


 170              		.cfi_def_cfa_offset 8
 171 002c BD46     		mov	sp, r7
 172              	.LCFI9:
 173              		.cfi_def_cfa_register 13
 174              		@ sp needed
 175 002e 80BD     		pop	{r7, pc}
 176              	.L11:
 177              		.align	2
 178              	.L10:
 179 0030 00000440 		.word	1074003968
 180 0034 00440258 		.word	1476543488
 181              		.cfi_endproc
 182              	.LFE149:
 184              		.section	.text.HAL_PCD_SetupStageCallback,"ax",%progbits
 185              		.align	1
 186              		.global	HAL_PCD_SetupStageCallback
 187              		.syntax unified
 188              		.thumb
 189              		.thumb_func
 191              	HAL_PCD_SetupStageCallback:
 192              	.LFB150:
 118:USB_DEVICE/Target/usbd_conf.c **** 
 119:USB_DEVICE/Target/usbd_conf.c **** /**
 120:USB_DEVICE/Target/usbd_conf.c ****   * @brief  Setup stage callback
 121:USB_DEVICE/Target/usbd_conf.c ****   * @param  hpcd: PCD handle
 122:USB_DEVICE/Target/usbd_conf.c ****   * @retval None
 123:USB_DEVICE/Target/usbd_conf.c ****   */
 124:USB_DEVICE/Target/usbd_conf.c **** #if (USE_HAL_PCD_REGISTER_CALLBACKS == 1U)
 125:USB_DEVICE/Target/usbd_conf.c **** static void PCD_SetupStageCallback(PCD_HandleTypeDef *hpcd)
 126:USB_DEVICE/Target/usbd_conf.c **** #else
 127:USB_DEVICE/Target/usbd_conf.c **** void HAL_PCD_SetupStageCallback(PCD_HandleTypeDef *hpcd)
 128:USB_DEVICE/Target/usbd_conf.c **** #endif /* USE_HAL_PCD_REGISTER_CALLBACKS */
 129:USB_DEVICE/Target/usbd_conf.c **** {
 193              		.loc 1 129 1
 194              		.cfi_startproc
 195              		@ args = 0, pretend = 0, frame = 8
 196              		@ frame_needed = 1, uses_anonymous_args = 0
 197 0000 80B5     		push	{r7, lr}
 198              	.LCFI10:
 199              		.cfi_def_cfa_offset 8
 200              		.cfi_offset 7, -8
 201              		.cfi_offset 14, -4
 202 0002 82B0     		sub	sp, sp, #8
 203              	.LCFI11:
 204              		.cfi_def_cfa_offset 16
 205 0004 00AF     		add	r7, sp, #0
 206              	.LCFI12:
 207              		.cfi_def_cfa_register 7
 208 0006 7860     		str	r0, [r7, #4]
 130:USB_DEVICE/Target/usbd_conf.c ****   USBD_LL_SetupStage((USBD_HandleTypeDef*)hpcd->pData, (uint8_t *)hpcd->Setup);
 209              		.loc 1 130 47
 210 0008 7B68     		ldr	r3, [r7, #4]
 211 000a D3F8E024 		ldr	r2, [r3, #1248]
 212              		.loc 1 130 67
 213 000e 7B68     		ldr	r3, [r7, #4]
 214 0010 03F29C43 		addw	r3, r3, #1180
 215              		.loc 1 130 3
ARM GAS  C:\Users\23671\AppData\Local\Temp\ccoDtdY8.s 			page 7


 216 0014 1946     		mov	r1, r3
 217 0016 1046     		mov	r0, r2
 218 0018 FFF7FEFF 		bl	USBD_LL_SetupStage
 131:USB_DEVICE/Target/usbd_conf.c **** }
 219              		.loc 1 131 1
 220 001c 00BF     		nop
 221 001e 0837     		adds	r7, r7, #8
 222              	.LCFI13:
 223              		.cfi_def_cfa_offset 8
 224 0020 BD46     		mov	sp, r7
 225              	.LCFI14:
 226              		.cfi_def_cfa_register 13
 227              		@ sp needed
 228 0022 80BD     		pop	{r7, pc}
 229              		.cfi_endproc
 230              	.LFE150:
 232              		.section	.text.HAL_PCD_DataOutStageCallback,"ax",%progbits
 233              		.align	1
 234              		.global	HAL_PCD_DataOutStageCallback
 235              		.syntax unified
 236              		.thumb
 237              		.thumb_func
 239              	HAL_PCD_DataOutStageCallback:
 240              	.LFB151:
 132:USB_DEVICE/Target/usbd_conf.c **** 
 133:USB_DEVICE/Target/usbd_conf.c **** /**
 134:USB_DEVICE/Target/usbd_conf.c ****   * @brief  Data Out stage callback.
 135:USB_DEVICE/Target/usbd_conf.c ****   * @param  hpcd: PCD handle
 136:USB_DEVICE/Target/usbd_conf.c ****   * @param  epnum: Endpoint number
 137:USB_DEVICE/Target/usbd_conf.c ****   * @retval None
 138:USB_DEVICE/Target/usbd_conf.c ****   */
 139:USB_DEVICE/Target/usbd_conf.c **** #if (USE_HAL_PCD_REGISTER_CALLBACKS == 1U)
 140:USB_DEVICE/Target/usbd_conf.c **** static void PCD_DataOutStageCallback(PCD_HandleTypeDef *hpcd, uint8_t epnum)
 141:USB_DEVICE/Target/usbd_conf.c **** #else
 142:USB_DEVICE/Target/usbd_conf.c **** void HAL_PCD_DataOutStageCallback(PCD_HandleTypeDef *hpcd, uint8_t epnum)
 143:USB_DEVICE/Target/usbd_conf.c **** #endif /* USE_HAL_PCD_REGISTER_CALLBACKS */
 144:USB_DEVICE/Target/usbd_conf.c **** {
 241              		.loc 1 144 1
 242              		.cfi_startproc
 243              		@ args = 0, pretend = 0, frame = 8
 244              		@ frame_needed = 1, uses_anonymous_args = 0
 245 0000 80B5     		push	{r7, lr}
 246              	.LCFI15:
 247              		.cfi_def_cfa_offset 8
 248              		.cfi_offset 7, -8
 249              		.cfi_offset 14, -4
 250 0002 82B0     		sub	sp, sp, #8
 251              	.LCFI16:
 252              		.cfi_def_cfa_offset 16
 253 0004 00AF     		add	r7, sp, #0
 254              	.LCFI17:
 255              		.cfi_def_cfa_register 7
 256 0006 7860     		str	r0, [r7, #4]
 257 0008 0B46     		mov	r3, r1
 258 000a FB70     		strb	r3, [r7, #3]
 145:USB_DEVICE/Target/usbd_conf.c ****   USBD_LL_DataOutStage((USBD_HandleTypeDef*)hpcd->pData, epnum, hpcd->OUT_ep[epnum].xfer_buff);
 259              		.loc 1 145 49
ARM GAS  C:\Users\23671\AppData\Local\Temp\ccoDtdY8.s 			page 8


 260 000c 7B68     		ldr	r3, [r7, #4]
 261 000e D3F8E004 		ldr	r0, [r3, #1248]
 262              		.loc 1 145 3
 263 0012 FA78     		ldrb	r2, [r7, #3]	@ zero_extendqisi2
 264 0014 7968     		ldr	r1, [r7, #4]
 265 0016 1346     		mov	r3, r2
 266 0018 DB00     		lsls	r3, r3, #3
 267 001a 1344     		add	r3, r3, r2
 268 001c 9B00     		lsls	r3, r3, #2
 269 001e 0B44     		add	r3, r3, r1
 270 0020 03F51873 		add	r3, r3, #608
 271 0024 1A68     		ldr	r2, [r3]
 272 0026 FB78     		ldrb	r3, [r7, #3]	@ zero_extendqisi2
 273 0028 1946     		mov	r1, r3
 274 002a FFF7FEFF 		bl	USBD_LL_DataOutStage
 146:USB_DEVICE/Target/usbd_conf.c **** }
 275              		.loc 1 146 1
 276 002e 00BF     		nop
 277 0030 0837     		adds	r7, r7, #8
 278              	.LCFI18:
 279              		.cfi_def_cfa_offset 8
 280 0032 BD46     		mov	sp, r7
 281              	.LCFI19:
 282              		.cfi_def_cfa_register 13
 283              		@ sp needed
 284 0034 80BD     		pop	{r7, pc}
 285              		.cfi_endproc
 286              	.LFE151:
 288              		.section	.text.HAL_PCD_DataInStageCallback,"ax",%progbits
 289              		.align	1
 290              		.global	HAL_PCD_DataInStageCallback
 291              		.syntax unified
 292              		.thumb
 293              		.thumb_func
 295              	HAL_PCD_DataInStageCallback:
 296              	.LFB152:
 147:USB_DEVICE/Target/usbd_conf.c **** 
 148:USB_DEVICE/Target/usbd_conf.c **** /**
 149:USB_DEVICE/Target/usbd_conf.c ****   * @brief  Data In stage callback.
 150:USB_DEVICE/Target/usbd_conf.c ****   * @param  hpcd: PCD handle
 151:USB_DEVICE/Target/usbd_conf.c ****   * @param  epnum: Endpoint number
 152:USB_DEVICE/Target/usbd_conf.c ****   * @retval None
 153:USB_DEVICE/Target/usbd_conf.c ****   */
 154:USB_DEVICE/Target/usbd_conf.c **** #if (USE_HAL_PCD_REGISTER_CALLBACKS == 1U)
 155:USB_DEVICE/Target/usbd_conf.c **** static void PCD_DataInStageCallback(PCD_HandleTypeDef *hpcd, uint8_t epnum)
 156:USB_DEVICE/Target/usbd_conf.c **** #else
 157:USB_DEVICE/Target/usbd_conf.c **** void HAL_PCD_DataInStageCallback(PCD_HandleTypeDef *hpcd, uint8_t epnum)
 158:USB_DEVICE/Target/usbd_conf.c **** #endif /* USE_HAL_PCD_REGISTER_CALLBACKS */
 159:USB_DEVICE/Target/usbd_conf.c **** {
 297              		.loc 1 159 1
 298              		.cfi_startproc
 299              		@ args = 0, pretend = 0, frame = 8
 300              		@ frame_needed = 1, uses_anonymous_args = 0
 301 0000 80B5     		push	{r7, lr}
 302              	.LCFI20:
 303              		.cfi_def_cfa_offset 8
 304              		.cfi_offset 7, -8
ARM GAS  C:\Users\23671\AppData\Local\Temp\ccoDtdY8.s 			page 9


 305              		.cfi_offset 14, -4
 306 0002 82B0     		sub	sp, sp, #8
 307              	.LCFI21:
 308              		.cfi_def_cfa_offset 16
 309 0004 00AF     		add	r7, sp, #0
 310              	.LCFI22:
 311              		.cfi_def_cfa_register 7
 312 0006 7860     		str	r0, [r7, #4]
 313 0008 0B46     		mov	r3, r1
 314 000a FB70     		strb	r3, [r7, #3]
 160:USB_DEVICE/Target/usbd_conf.c ****   USBD_LL_DataInStage((USBD_HandleTypeDef*)hpcd->pData, epnum, hpcd->IN_ep[epnum].xfer_buff);
 315              		.loc 1 160 48
 316 000c 7B68     		ldr	r3, [r7, #4]
 317 000e D3F8E004 		ldr	r0, [r3, #1248]
 318              		.loc 1 160 3
 319 0012 FA78     		ldrb	r2, [r7, #3]	@ zero_extendqisi2
 320 0014 7968     		ldr	r1, [r7, #4]
 321 0016 1346     		mov	r3, r2
 322 0018 DB00     		lsls	r3, r3, #3
 323 001a 1344     		add	r3, r3, r2
 324 001c 9B00     		lsls	r3, r3, #2
 325 001e 0B44     		add	r3, r3, r1
 326 0020 2033     		adds	r3, r3, #32
 327 0022 1A68     		ldr	r2, [r3]
 328 0024 FB78     		ldrb	r3, [r7, #3]	@ zero_extendqisi2
 329 0026 1946     		mov	r1, r3
 330 0028 FFF7FEFF 		bl	USBD_LL_DataInStage
 161:USB_DEVICE/Target/usbd_conf.c **** }
 331              		.loc 1 161 1
 332 002c 00BF     		nop
 333 002e 0837     		adds	r7, r7, #8
 334              	.LCFI23:
 335              		.cfi_def_cfa_offset 8
 336 0030 BD46     		mov	sp, r7
 337              	.LCFI24:
 338              		.cfi_def_cfa_register 13
 339              		@ sp needed
 340 0032 80BD     		pop	{r7, pc}
 341              		.cfi_endproc
 342              	.LFE152:
 344              		.section	.text.HAL_PCD_SOFCallback,"ax",%progbits
 345              		.align	1
 346              		.global	HAL_PCD_SOFCallback
 347              		.syntax unified
 348              		.thumb
 349              		.thumb_func
 351              	HAL_PCD_SOFCallback:
 352              	.LFB153:
 162:USB_DEVICE/Target/usbd_conf.c **** 
 163:USB_DEVICE/Target/usbd_conf.c **** /**
 164:USB_DEVICE/Target/usbd_conf.c ****   * @brief  SOF callback.
 165:USB_DEVICE/Target/usbd_conf.c ****   * @param  hpcd: PCD handle
 166:USB_DEVICE/Target/usbd_conf.c ****   * @retval None
 167:USB_DEVICE/Target/usbd_conf.c ****   */
 168:USB_DEVICE/Target/usbd_conf.c **** #if (USE_HAL_PCD_REGISTER_CALLBACKS == 1U)
 169:USB_DEVICE/Target/usbd_conf.c **** static void PCD_SOFCallback(PCD_HandleTypeDef *hpcd)
 170:USB_DEVICE/Target/usbd_conf.c **** #else
ARM GAS  C:\Users\23671\AppData\Local\Temp\ccoDtdY8.s 			page 10


 171:USB_DEVICE/Target/usbd_conf.c **** void HAL_PCD_SOFCallback(PCD_HandleTypeDef *hpcd)
 172:USB_DEVICE/Target/usbd_conf.c **** #endif /* USE_HAL_PCD_REGISTER_CALLBACKS */
 173:USB_DEVICE/Target/usbd_conf.c **** {
 353              		.loc 1 173 1
 354              		.cfi_startproc
 355              		@ args = 0, pretend = 0, frame = 8
 356              		@ frame_needed = 1, uses_anonymous_args = 0
 357 0000 80B5     		push	{r7, lr}
 358              	.LCFI25:
 359              		.cfi_def_cfa_offset 8
 360              		.cfi_offset 7, -8
 361              		.cfi_offset 14, -4
 362 0002 82B0     		sub	sp, sp, #8
 363              	.LCFI26:
 364              		.cfi_def_cfa_offset 16
 365 0004 00AF     		add	r7, sp, #0
 366              	.LCFI27:
 367              		.cfi_def_cfa_register 7
 368 0006 7860     		str	r0, [r7, #4]
 174:USB_DEVICE/Target/usbd_conf.c ****   USBD_LL_SOF((USBD_HandleTypeDef*)hpcd->pData);
 369              		.loc 1 174 40
 370 0008 7B68     		ldr	r3, [r7, #4]
 371 000a D3F8E034 		ldr	r3, [r3, #1248]
 372              		.loc 1 174 3
 373 000e 1846     		mov	r0, r3
 374 0010 FFF7FEFF 		bl	USBD_LL_SOF
 175:USB_DEVICE/Target/usbd_conf.c **** }
 375              		.loc 1 175 1
 376 0014 00BF     		nop
 377 0016 0837     		adds	r7, r7, #8
 378              	.LCFI28:
 379              		.cfi_def_cfa_offset 8
 380 0018 BD46     		mov	sp, r7
 381              	.LCFI29:
 382              		.cfi_def_cfa_register 13
 383              		@ sp needed
 384 001a 80BD     		pop	{r7, pc}
 385              		.cfi_endproc
 386              	.LFE153:
 388              		.section	.text.HAL_PCD_ResetCallback,"ax",%progbits
 389              		.align	1
 390              		.global	HAL_PCD_ResetCallback
 391              		.syntax unified
 392              		.thumb
 393              		.thumb_func
 395              	HAL_PCD_ResetCallback:
 396              	.LFB154:
 176:USB_DEVICE/Target/usbd_conf.c **** 
 177:USB_DEVICE/Target/usbd_conf.c **** /**
 178:USB_DEVICE/Target/usbd_conf.c ****   * @brief  Reset callback.
 179:USB_DEVICE/Target/usbd_conf.c ****   * @param  hpcd: PCD handle
 180:USB_DEVICE/Target/usbd_conf.c ****   * @retval None
 181:USB_DEVICE/Target/usbd_conf.c ****   */
 182:USB_DEVICE/Target/usbd_conf.c **** #if (USE_HAL_PCD_REGISTER_CALLBACKS == 1U)
 183:USB_DEVICE/Target/usbd_conf.c **** static void PCD_ResetCallback(PCD_HandleTypeDef *hpcd)
 184:USB_DEVICE/Target/usbd_conf.c **** #else
 185:USB_DEVICE/Target/usbd_conf.c **** void HAL_PCD_ResetCallback(PCD_HandleTypeDef *hpcd)
ARM GAS  C:\Users\23671\AppData\Local\Temp\ccoDtdY8.s 			page 11


 186:USB_DEVICE/Target/usbd_conf.c **** #endif /* USE_HAL_PCD_REGISTER_CALLBACKS */
 187:USB_DEVICE/Target/usbd_conf.c **** {
 397              		.loc 1 187 1
 398              		.cfi_startproc
 399              		@ args = 0, pretend = 0, frame = 16
 400              		@ frame_needed = 1, uses_anonymous_args = 0
 401 0000 80B5     		push	{r7, lr}
 402              	.LCFI30:
 403              		.cfi_def_cfa_offset 8
 404              		.cfi_offset 7, -8
 405              		.cfi_offset 14, -4
 406 0002 84B0     		sub	sp, sp, #16
 407              	.LCFI31:
 408              		.cfi_def_cfa_offset 24
 409 0004 00AF     		add	r7, sp, #0
 410              	.LCFI32:
 411              		.cfi_def_cfa_register 7
 412 0006 7860     		str	r0, [r7, #4]
 188:USB_DEVICE/Target/usbd_conf.c ****   USBD_SpeedTypeDef speed = USBD_SPEED_FULL;
 413              		.loc 1 188 21
 414 0008 0123     		movs	r3, #1
 415 000a FB73     		strb	r3, [r7, #15]
 189:USB_DEVICE/Target/usbd_conf.c **** 
 190:USB_DEVICE/Target/usbd_conf.c ****   if ( hpcd->Init.speed == PCD_SPEED_HIGH)
 416              		.loc 1 190 18
 417 000c 7B68     		ldr	r3, [r7, #4]
 418 000e DB79     		ldrb	r3, [r3, #7]	@ zero_extendqisi2
 419              		.loc 1 190 6
 420 0010 002B     		cmp	r3, #0
 421 0012 02D1     		bne	.L17
 191:USB_DEVICE/Target/usbd_conf.c ****   {
 192:USB_DEVICE/Target/usbd_conf.c ****     speed = USBD_SPEED_HIGH;
 422              		.loc 1 192 11
 423 0014 0023     		movs	r3, #0
 424 0016 FB73     		strb	r3, [r7, #15]
 425 0018 08E0     		b	.L18
 426              	.L17:
 193:USB_DEVICE/Target/usbd_conf.c ****   }
 194:USB_DEVICE/Target/usbd_conf.c ****   else if ( hpcd->Init.speed == PCD_SPEED_FULL)
 427              		.loc 1 194 23
 428 001a 7B68     		ldr	r3, [r7, #4]
 429 001c DB79     		ldrb	r3, [r3, #7]	@ zero_extendqisi2
 430              		.loc 1 194 11
 431 001e 022B     		cmp	r3, #2
 432 0020 02D1     		bne	.L19
 195:USB_DEVICE/Target/usbd_conf.c ****   {
 196:USB_DEVICE/Target/usbd_conf.c ****     speed = USBD_SPEED_FULL;
 433              		.loc 1 196 11
 434 0022 0123     		movs	r3, #1
 435 0024 FB73     		strb	r3, [r7, #15]
 436 0026 01E0     		b	.L18
 437              	.L19:
 197:USB_DEVICE/Target/usbd_conf.c ****   }
 198:USB_DEVICE/Target/usbd_conf.c ****   else
 199:USB_DEVICE/Target/usbd_conf.c ****   {
 200:USB_DEVICE/Target/usbd_conf.c ****     Error_Handler();
 438              		.loc 1 200 5
ARM GAS  C:\Users\23671\AppData\Local\Temp\ccoDtdY8.s 			page 12


 439 0028 FFF7FEFF 		bl	Error_Handler
 440              	.L18:
 201:USB_DEVICE/Target/usbd_conf.c ****   }
 202:USB_DEVICE/Target/usbd_conf.c ****     /* Set Speed. */
 203:USB_DEVICE/Target/usbd_conf.c ****   USBD_LL_SetSpeed((USBD_HandleTypeDef*)hpcd->pData, speed);
 441              		.loc 1 203 45
 442 002c 7B68     		ldr	r3, [r7, #4]
 443 002e D3F8E034 		ldr	r3, [r3, #1248]
 444              		.loc 1 203 3
 445 0032 FA7B     		ldrb	r2, [r7, #15]	@ zero_extendqisi2
 446 0034 1146     		mov	r1, r2
 447 0036 1846     		mov	r0, r3
 448 0038 FFF7FEFF 		bl	USBD_LL_SetSpeed
 204:USB_DEVICE/Target/usbd_conf.c **** 
 205:USB_DEVICE/Target/usbd_conf.c ****   /* Reset Device. */
 206:USB_DEVICE/Target/usbd_conf.c ****   USBD_LL_Reset((USBD_HandleTypeDef*)hpcd->pData);
 449              		.loc 1 206 42
 450 003c 7B68     		ldr	r3, [r7, #4]
 451 003e D3F8E034 		ldr	r3, [r3, #1248]
 452              		.loc 1 206 3
 453 0042 1846     		mov	r0, r3
 454 0044 FFF7FEFF 		bl	USBD_LL_Reset
 207:USB_DEVICE/Target/usbd_conf.c **** }
 455              		.loc 1 207 1
 456 0048 00BF     		nop
 457 004a 1037     		adds	r7, r7, #16
 458              	.LCFI33:
 459              		.cfi_def_cfa_offset 8
 460 004c BD46     		mov	sp, r7
 461              	.LCFI34:
 462              		.cfi_def_cfa_register 13
 463              		@ sp needed
 464 004e 80BD     		pop	{r7, pc}
 465              		.cfi_endproc
 466              	.LFE154:
 468              		.section	.text.HAL_PCD_SuspendCallback,"ax",%progbits
 469              		.align	1
 470              		.global	HAL_PCD_SuspendCallback
 471              		.syntax unified
 472              		.thumb
 473              		.thumb_func
 475              	HAL_PCD_SuspendCallback:
 476              	.LFB155:
 208:USB_DEVICE/Target/usbd_conf.c **** 
 209:USB_DEVICE/Target/usbd_conf.c **** /**
 210:USB_DEVICE/Target/usbd_conf.c ****   * @brief  Suspend callback.
 211:USB_DEVICE/Target/usbd_conf.c ****   * When Low power mode is enabled the debug cannot be used (IAR, Keil doesn't support it)
 212:USB_DEVICE/Target/usbd_conf.c ****   * @param  hpcd: PCD handle
 213:USB_DEVICE/Target/usbd_conf.c ****   * @retval None
 214:USB_DEVICE/Target/usbd_conf.c ****   */
 215:USB_DEVICE/Target/usbd_conf.c **** #if (USE_HAL_PCD_REGISTER_CALLBACKS == 1U)
 216:USB_DEVICE/Target/usbd_conf.c **** static void PCD_SuspendCallback(PCD_HandleTypeDef *hpcd)
 217:USB_DEVICE/Target/usbd_conf.c **** #else
 218:USB_DEVICE/Target/usbd_conf.c **** void HAL_PCD_SuspendCallback(PCD_HandleTypeDef *hpcd)
 219:USB_DEVICE/Target/usbd_conf.c **** #endif /* USE_HAL_PCD_REGISTER_CALLBACKS */
 220:USB_DEVICE/Target/usbd_conf.c **** {
 477              		.loc 1 220 1
ARM GAS  C:\Users\23671\AppData\Local\Temp\ccoDtdY8.s 			page 13


 478              		.cfi_startproc
 479              		@ args = 0, pretend = 0, frame = 8
 480              		@ frame_needed = 1, uses_anonymous_args = 0
 481 0000 80B5     		push	{r7, lr}
 482              	.LCFI35:
 483              		.cfi_def_cfa_offset 8
 484              		.cfi_offset 7, -8
 485              		.cfi_offset 14, -4
 486 0002 82B0     		sub	sp, sp, #8
 487              	.LCFI36:
 488              		.cfi_def_cfa_offset 16
 489 0004 00AF     		add	r7, sp, #0
 490              	.LCFI37:
 491              		.cfi_def_cfa_register 7
 492 0006 7860     		str	r0, [r7, #4]
 221:USB_DEVICE/Target/usbd_conf.c ****   /* Inform USB library that core enters in suspend Mode. */
 222:USB_DEVICE/Target/usbd_conf.c ****   USBD_LL_Suspend((USBD_HandleTypeDef*)hpcd->pData);
 493              		.loc 1 222 44
 494 0008 7B68     		ldr	r3, [r7, #4]
 495 000a D3F8E034 		ldr	r3, [r3, #1248]
 496              		.loc 1 222 3
 497 000e 1846     		mov	r0, r3
 498 0010 FFF7FEFF 		bl	USBD_LL_Suspend
 223:USB_DEVICE/Target/usbd_conf.c ****   __HAL_PCD_GATE_PHYCLOCK(hpcd);
 499              		.loc 1 223 3
 500 0014 7B68     		ldr	r3, [r7, #4]
 501 0016 1B68     		ldr	r3, [r3]
 502 0018 03F56063 		add	r3, r3, #3584
 503 001c 1B68     		ldr	r3, [r3]
 504 001e 7A68     		ldr	r2, [r7, #4]
 505 0020 1268     		ldr	r2, [r2]
 506 0022 02F56062 		add	r2, r2, #3584
 507 0026 43F00103 		orr	r3, r3, #1
 508 002a 1360     		str	r3, [r2]
 224:USB_DEVICE/Target/usbd_conf.c ****   /* Enter in STOP mode. */
 225:USB_DEVICE/Target/usbd_conf.c ****   /* USER CODE BEGIN 2 */
 226:USB_DEVICE/Target/usbd_conf.c ****   if (hpcd->Init.low_power_enable)
 509              		.loc 1 226 17
 510 002c 7B68     		ldr	r3, [r7, #4]
 511 002e DB7A     		ldrb	r3, [r3, #11]	@ zero_extendqisi2
 512              		.loc 1 226 6
 513 0030 002B     		cmp	r3, #0
 514 0032 05D0     		beq	.L22
 227:USB_DEVICE/Target/usbd_conf.c ****   {
 228:USB_DEVICE/Target/usbd_conf.c ****     /* Set SLEEPDEEP bit and SleepOnExit of Cortex System Control Register. */
 229:USB_DEVICE/Target/usbd_conf.c ****     SCB->SCR |= (uint32_t)((uint32_t)(SCB_SCR_SLEEPDEEP_Msk | SCB_SCR_SLEEPONEXIT_Msk));
 515              		.loc 1 229 8
 516 0034 044B     		ldr	r3, .L23
 517 0036 1B69     		ldr	r3, [r3, #16]
 518 0038 034A     		ldr	r2, .L23
 519              		.loc 1 229 14
 520 003a 43F00603 		orr	r3, r3, #6
 521 003e 1361     		str	r3, [r2, #16]
 522              	.L22:
 230:USB_DEVICE/Target/usbd_conf.c ****   }
 231:USB_DEVICE/Target/usbd_conf.c ****   /* USER CODE END 2 */
 232:USB_DEVICE/Target/usbd_conf.c **** }
ARM GAS  C:\Users\23671\AppData\Local\Temp\ccoDtdY8.s 			page 14


 523              		.loc 1 232 1
 524 0040 00BF     		nop
 525 0042 0837     		adds	r7, r7, #8
 526              	.LCFI38:
 527              		.cfi_def_cfa_offset 8
 528 0044 BD46     		mov	sp, r7
 529              	.LCFI39:
 530              		.cfi_def_cfa_register 13
 531              		@ sp needed
 532 0046 80BD     		pop	{r7, pc}
 533              	.L24:
 534              		.align	2
 535              	.L23:
 536 0048 00ED00E0 		.word	-536810240
 537              		.cfi_endproc
 538              	.LFE155:
 540              		.section	.text.HAL_PCD_ResumeCallback,"ax",%progbits
 541              		.align	1
 542              		.global	HAL_PCD_ResumeCallback
 543              		.syntax unified
 544              		.thumb
 545              		.thumb_func
 547              	HAL_PCD_ResumeCallback:
 548              	.LFB156:
 233:USB_DEVICE/Target/usbd_conf.c **** 
 234:USB_DEVICE/Target/usbd_conf.c **** /**
 235:USB_DEVICE/Target/usbd_conf.c ****   * @brief  Resume callback.
 236:USB_DEVICE/Target/usbd_conf.c ****   * When Low power mode is enabled the debug cannot be used (IAR, Keil doesn't support it)
 237:USB_DEVICE/Target/usbd_conf.c ****   * @param  hpcd: PCD handle
 238:USB_DEVICE/Target/usbd_conf.c ****   * @retval None
 239:USB_DEVICE/Target/usbd_conf.c ****   */
 240:USB_DEVICE/Target/usbd_conf.c **** #if (USE_HAL_PCD_REGISTER_CALLBACKS == 1U)
 241:USB_DEVICE/Target/usbd_conf.c **** static void PCD_ResumeCallback(PCD_HandleTypeDef *hpcd)
 242:USB_DEVICE/Target/usbd_conf.c **** #else
 243:USB_DEVICE/Target/usbd_conf.c **** void HAL_PCD_ResumeCallback(PCD_HandleTypeDef *hpcd)
 244:USB_DEVICE/Target/usbd_conf.c **** #endif /* USE_HAL_PCD_REGISTER_CALLBACKS */
 245:USB_DEVICE/Target/usbd_conf.c **** {
 549              		.loc 1 245 1
 550              		.cfi_startproc
 551              		@ args = 0, pretend = 0, frame = 8
 552              		@ frame_needed = 1, uses_anonymous_args = 0
 553 0000 80B5     		push	{r7, lr}
 554              	.LCFI40:
 555              		.cfi_def_cfa_offset 8
 556              		.cfi_offset 7, -8
 557              		.cfi_offset 14, -4
 558 0002 82B0     		sub	sp, sp, #8
 559              	.LCFI41:
 560              		.cfi_def_cfa_offset 16
 561 0004 00AF     		add	r7, sp, #0
 562              	.LCFI42:
 563              		.cfi_def_cfa_register 7
 564 0006 7860     		str	r0, [r7, #4]
 246:USB_DEVICE/Target/usbd_conf.c ****   /* USER CODE BEGIN 3 */
 247:USB_DEVICE/Target/usbd_conf.c **** 
 248:USB_DEVICE/Target/usbd_conf.c ****   /* USER CODE END 3 */
 249:USB_DEVICE/Target/usbd_conf.c ****   USBD_LL_Resume((USBD_HandleTypeDef*)hpcd->pData);
ARM GAS  C:\Users\23671\AppData\Local\Temp\ccoDtdY8.s 			page 15


 565              		.loc 1 249 43
 566 0008 7B68     		ldr	r3, [r7, #4]
 567 000a D3F8E034 		ldr	r3, [r3, #1248]
 568              		.loc 1 249 3
 569 000e 1846     		mov	r0, r3
 570 0010 FFF7FEFF 		bl	USBD_LL_Resume
 250:USB_DEVICE/Target/usbd_conf.c **** }
 571              		.loc 1 250 1
 572 0014 00BF     		nop
 573 0016 0837     		adds	r7, r7, #8
 574              	.LCFI43:
 575              		.cfi_def_cfa_offset 8
 576 0018 BD46     		mov	sp, r7
 577              	.LCFI44:
 578              		.cfi_def_cfa_register 13
 579              		@ sp needed
 580 001a 80BD     		pop	{r7, pc}
 581              		.cfi_endproc
 582              	.LFE156:
 584              		.section	.text.HAL_PCD_ISOOUTIncompleteCallback,"ax",%progbits
 585              		.align	1
 586              		.global	HAL_PCD_ISOOUTIncompleteCallback
 587              		.syntax unified
 588              		.thumb
 589              		.thumb_func
 591              	HAL_PCD_ISOOUTIncompleteCallback:
 592              	.LFB157:
 251:USB_DEVICE/Target/usbd_conf.c **** 
 252:USB_DEVICE/Target/usbd_conf.c **** /**
 253:USB_DEVICE/Target/usbd_conf.c ****   * @brief  ISOOUTIncomplete callback.
 254:USB_DEVICE/Target/usbd_conf.c ****   * @param  hpcd: PCD handle
 255:USB_DEVICE/Target/usbd_conf.c ****   * @param  epnum: Endpoint number
 256:USB_DEVICE/Target/usbd_conf.c ****   * @retval None
 257:USB_DEVICE/Target/usbd_conf.c ****   */
 258:USB_DEVICE/Target/usbd_conf.c **** #if (USE_HAL_PCD_REGISTER_CALLBACKS == 1U)
 259:USB_DEVICE/Target/usbd_conf.c **** static void PCD_ISOOUTIncompleteCallback(PCD_HandleTypeDef *hpcd, uint8_t epnum)
 260:USB_DEVICE/Target/usbd_conf.c **** #else
 261:USB_DEVICE/Target/usbd_conf.c **** void HAL_PCD_ISOOUTIncompleteCallback(PCD_HandleTypeDef *hpcd, uint8_t epnum)
 262:USB_DEVICE/Target/usbd_conf.c **** #endif /* USE_HAL_PCD_REGISTER_CALLBACKS */
 263:USB_DEVICE/Target/usbd_conf.c **** {
 593              		.loc 1 263 1
 594              		.cfi_startproc
 595              		@ args = 0, pretend = 0, frame = 8
 596              		@ frame_needed = 1, uses_anonymous_args = 0
 597 0000 80B5     		push	{r7, lr}
 598              	.LCFI45:
 599              		.cfi_def_cfa_offset 8
 600              		.cfi_offset 7, -8
 601              		.cfi_offset 14, -4
 602 0002 82B0     		sub	sp, sp, #8
 603              	.LCFI46:
 604              		.cfi_def_cfa_offset 16
 605 0004 00AF     		add	r7, sp, #0
 606              	.LCFI47:
 607              		.cfi_def_cfa_register 7
 608 0006 7860     		str	r0, [r7, #4]
 609 0008 0B46     		mov	r3, r1
ARM GAS  C:\Users\23671\AppData\Local\Temp\ccoDtdY8.s 			page 16


 610 000a FB70     		strb	r3, [r7, #3]
 264:USB_DEVICE/Target/usbd_conf.c ****   USBD_LL_IsoOUTIncomplete((USBD_HandleTypeDef*)hpcd->pData, epnum);
 611              		.loc 1 264 53
 612 000c 7B68     		ldr	r3, [r7, #4]
 613 000e D3F8E034 		ldr	r3, [r3, #1248]
 614              		.loc 1 264 3
 615 0012 FA78     		ldrb	r2, [r7, #3]	@ zero_extendqisi2
 616 0014 1146     		mov	r1, r2
 617 0016 1846     		mov	r0, r3
 618 0018 FFF7FEFF 		bl	USBD_LL_IsoOUTIncomplete
 265:USB_DEVICE/Target/usbd_conf.c **** }
 619              		.loc 1 265 1
 620 001c 00BF     		nop
 621 001e 0837     		adds	r7, r7, #8
 622              	.LCFI48:
 623              		.cfi_def_cfa_offset 8
 624 0020 BD46     		mov	sp, r7
 625              	.LCFI49:
 626              		.cfi_def_cfa_register 13
 627              		@ sp needed
 628 0022 80BD     		pop	{r7, pc}
 629              		.cfi_endproc
 630              	.LFE157:
 632              		.section	.text.HAL_PCD_ISOINIncompleteCallback,"ax",%progbits
 633              		.align	1
 634              		.global	HAL_PCD_ISOINIncompleteCallback
 635              		.syntax unified
 636              		.thumb
 637              		.thumb_func
 639              	HAL_PCD_ISOINIncompleteCallback:
 640              	.LFB158:
 266:USB_DEVICE/Target/usbd_conf.c **** 
 267:USB_DEVICE/Target/usbd_conf.c **** /**
 268:USB_DEVICE/Target/usbd_conf.c ****   * @brief  ISOINIncomplete callback.
 269:USB_DEVICE/Target/usbd_conf.c ****   * @param  hpcd: PCD handle
 270:USB_DEVICE/Target/usbd_conf.c ****   * @param  epnum: Endpoint number
 271:USB_DEVICE/Target/usbd_conf.c ****   * @retval None
 272:USB_DEVICE/Target/usbd_conf.c ****   */
 273:USB_DEVICE/Target/usbd_conf.c **** #if (USE_HAL_PCD_REGISTER_CALLBACKS == 1U)
 274:USB_DEVICE/Target/usbd_conf.c **** static void PCD_ISOINIncompleteCallback(PCD_HandleTypeDef *hpcd, uint8_t epnum)
 275:USB_DEVICE/Target/usbd_conf.c **** #else
 276:USB_DEVICE/Target/usbd_conf.c **** void HAL_PCD_ISOINIncompleteCallback(PCD_HandleTypeDef *hpcd, uint8_t epnum)
 277:USB_DEVICE/Target/usbd_conf.c **** #endif /* USE_HAL_PCD_REGISTER_CALLBACKS */
 278:USB_DEVICE/Target/usbd_conf.c **** {
 641              		.loc 1 278 1
 642              		.cfi_startproc
 643              		@ args = 0, pretend = 0, frame = 8
 644              		@ frame_needed = 1, uses_anonymous_args = 0
 645 0000 80B5     		push	{r7, lr}
 646              	.LCFI50:
 647              		.cfi_def_cfa_offset 8
 648              		.cfi_offset 7, -8
 649              		.cfi_offset 14, -4
 650 0002 82B0     		sub	sp, sp, #8
 651              	.LCFI51:
 652              		.cfi_def_cfa_offset 16
 653 0004 00AF     		add	r7, sp, #0
ARM GAS  C:\Users\23671\AppData\Local\Temp\ccoDtdY8.s 			page 17


 654              	.LCFI52:
 655              		.cfi_def_cfa_register 7
 656 0006 7860     		str	r0, [r7, #4]
 657 0008 0B46     		mov	r3, r1
 658 000a FB70     		strb	r3, [r7, #3]
 279:USB_DEVICE/Target/usbd_conf.c ****   USBD_LL_IsoINIncomplete((USBD_HandleTypeDef*)hpcd->pData, epnum);
 659              		.loc 1 279 52
 660 000c 7B68     		ldr	r3, [r7, #4]
 661 000e D3F8E034 		ldr	r3, [r3, #1248]
 662              		.loc 1 279 3
 663 0012 FA78     		ldrb	r2, [r7, #3]	@ zero_extendqisi2
 664 0014 1146     		mov	r1, r2
 665 0016 1846     		mov	r0, r3
 666 0018 FFF7FEFF 		bl	USBD_LL_IsoINIncomplete
 280:USB_DEVICE/Target/usbd_conf.c **** }
 667              		.loc 1 280 1
 668 001c 00BF     		nop
 669 001e 0837     		adds	r7, r7, #8
 670              	.LCFI53:
 671              		.cfi_def_cfa_offset 8
 672 0020 BD46     		mov	sp, r7
 673              	.LCFI54:
 674              		.cfi_def_cfa_register 13
 675              		@ sp needed
 676 0022 80BD     		pop	{r7, pc}
 677              		.cfi_endproc
 678              	.LFE158:
 680              		.section	.text.HAL_PCD_ConnectCallback,"ax",%progbits
 681              		.align	1
 682              		.global	HAL_PCD_ConnectCallback
 683              		.syntax unified
 684              		.thumb
 685              		.thumb_func
 687              	HAL_PCD_ConnectCallback:
 688              	.LFB159:
 281:USB_DEVICE/Target/usbd_conf.c **** 
 282:USB_DEVICE/Target/usbd_conf.c **** /**
 283:USB_DEVICE/Target/usbd_conf.c ****   * @brief  Connect callback.
 284:USB_DEVICE/Target/usbd_conf.c ****   * @param  hpcd: PCD handle
 285:USB_DEVICE/Target/usbd_conf.c ****   * @retval None
 286:USB_DEVICE/Target/usbd_conf.c ****   */
 287:USB_DEVICE/Target/usbd_conf.c **** #if (USE_HAL_PCD_REGISTER_CALLBACKS == 1U)
 288:USB_DEVICE/Target/usbd_conf.c **** static void PCD_ConnectCallback(PCD_HandleTypeDef *hpcd)
 289:USB_DEVICE/Target/usbd_conf.c **** #else
 290:USB_DEVICE/Target/usbd_conf.c **** void HAL_PCD_ConnectCallback(PCD_HandleTypeDef *hpcd)
 291:USB_DEVICE/Target/usbd_conf.c **** #endif /* USE_HAL_PCD_REGISTER_CALLBACKS */
 292:USB_DEVICE/Target/usbd_conf.c **** {
 689              		.loc 1 292 1
 690              		.cfi_startproc
 691              		@ args = 0, pretend = 0, frame = 8
 692              		@ frame_needed = 1, uses_anonymous_args = 0
 693 0000 80B5     		push	{r7, lr}
 694              	.LCFI55:
 695              		.cfi_def_cfa_offset 8
 696              		.cfi_offset 7, -8
 697              		.cfi_offset 14, -4
 698 0002 82B0     		sub	sp, sp, #8
ARM GAS  C:\Users\23671\AppData\Local\Temp\ccoDtdY8.s 			page 18


 699              	.LCFI56:
 700              		.cfi_def_cfa_offset 16
 701 0004 00AF     		add	r7, sp, #0
 702              	.LCFI57:
 703              		.cfi_def_cfa_register 7
 704 0006 7860     		str	r0, [r7, #4]
 293:USB_DEVICE/Target/usbd_conf.c ****   USBD_LL_DevConnected((USBD_HandleTypeDef*)hpcd->pData);
 705              		.loc 1 293 49
 706 0008 7B68     		ldr	r3, [r7, #4]
 707 000a D3F8E034 		ldr	r3, [r3, #1248]
 708              		.loc 1 293 3
 709 000e 1846     		mov	r0, r3
 710 0010 FFF7FEFF 		bl	USBD_LL_DevConnected
 294:USB_DEVICE/Target/usbd_conf.c **** }
 711              		.loc 1 294 1
 712 0014 00BF     		nop
 713 0016 0837     		adds	r7, r7, #8
 714              	.LCFI58:
 715              		.cfi_def_cfa_offset 8
 716 0018 BD46     		mov	sp, r7
 717              	.LCFI59:
 718              		.cfi_def_cfa_register 13
 719              		@ sp needed
 720 001a 80BD     		pop	{r7, pc}
 721              		.cfi_endproc
 722              	.LFE159:
 724              		.section	.text.HAL_PCD_DisconnectCallback,"ax",%progbits
 725              		.align	1
 726              		.global	HAL_PCD_DisconnectCallback
 727              		.syntax unified
 728              		.thumb
 729              		.thumb_func
 731              	HAL_PCD_DisconnectCallback:
 732              	.LFB160:
 295:USB_DEVICE/Target/usbd_conf.c **** 
 296:USB_DEVICE/Target/usbd_conf.c **** /**
 297:USB_DEVICE/Target/usbd_conf.c ****   * @brief  Disconnect callback.
 298:USB_DEVICE/Target/usbd_conf.c ****   * @param  hpcd: PCD handle
 299:USB_DEVICE/Target/usbd_conf.c ****   * @retval None
 300:USB_DEVICE/Target/usbd_conf.c ****   */
 301:USB_DEVICE/Target/usbd_conf.c **** #if (USE_HAL_PCD_REGISTER_CALLBACKS == 1U)
 302:USB_DEVICE/Target/usbd_conf.c **** static void PCD_DisconnectCallback(PCD_HandleTypeDef *hpcd)
 303:USB_DEVICE/Target/usbd_conf.c **** #else
 304:USB_DEVICE/Target/usbd_conf.c **** void HAL_PCD_DisconnectCallback(PCD_HandleTypeDef *hpcd)
 305:USB_DEVICE/Target/usbd_conf.c **** #endif /* USE_HAL_PCD_REGISTER_CALLBACKS */
 306:USB_DEVICE/Target/usbd_conf.c **** {
 733              		.loc 1 306 1
 734              		.cfi_startproc
 735              		@ args = 0, pretend = 0, frame = 8
 736              		@ frame_needed = 1, uses_anonymous_args = 0
 737 0000 80B5     		push	{r7, lr}
 738              	.LCFI60:
 739              		.cfi_def_cfa_offset 8
 740              		.cfi_offset 7, -8
 741              		.cfi_offset 14, -4
 742 0002 82B0     		sub	sp, sp, #8
 743              	.LCFI61:
ARM GAS  C:\Users\23671\AppData\Local\Temp\ccoDtdY8.s 			page 19


 744              		.cfi_def_cfa_offset 16
 745 0004 00AF     		add	r7, sp, #0
 746              	.LCFI62:
 747              		.cfi_def_cfa_register 7
 748 0006 7860     		str	r0, [r7, #4]
 307:USB_DEVICE/Target/usbd_conf.c ****   USBD_LL_DevDisconnected((USBD_HandleTypeDef*)hpcd->pData);
 749              		.loc 1 307 52
 750 0008 7B68     		ldr	r3, [r7, #4]
 751 000a D3F8E034 		ldr	r3, [r3, #1248]
 752              		.loc 1 307 3
 753 000e 1846     		mov	r0, r3
 754 0010 FFF7FEFF 		bl	USBD_LL_DevDisconnected
 308:USB_DEVICE/Target/usbd_conf.c **** }
 755              		.loc 1 308 1
 756 0014 00BF     		nop
 757 0016 0837     		adds	r7, r7, #8
 758              	.LCFI63:
 759              		.cfi_def_cfa_offset 8
 760 0018 BD46     		mov	sp, r7
 761              	.LCFI64:
 762              		.cfi_def_cfa_register 13
 763              		@ sp needed
 764 001a 80BD     		pop	{r7, pc}
 765              		.cfi_endproc
 766              	.LFE160:
 768              		.section	.text.USBD_LL_Init,"ax",%progbits
 769              		.align	1
 770              		.global	USBD_LL_Init
 771              		.syntax unified
 772              		.thumb
 773              		.thumb_func
 775              	USBD_LL_Init:
 776              	.LFB161:
 309:USB_DEVICE/Target/usbd_conf.c **** 
 310:USB_DEVICE/Target/usbd_conf.c **** /*******************************************************************************
 311:USB_DEVICE/Target/usbd_conf.c ****                        LL Driver Interface (USB Device Library --> PCD)
 312:USB_DEVICE/Target/usbd_conf.c **** *******************************************************************************/
 313:USB_DEVICE/Target/usbd_conf.c **** 
 314:USB_DEVICE/Target/usbd_conf.c **** /**
 315:USB_DEVICE/Target/usbd_conf.c ****   * @brief  Initializes the low level portion of the device driver.
 316:USB_DEVICE/Target/usbd_conf.c ****   * @param  pdev: Device handle
 317:USB_DEVICE/Target/usbd_conf.c ****   * @retval USBD status
 318:USB_DEVICE/Target/usbd_conf.c ****   */
 319:USB_DEVICE/Target/usbd_conf.c **** USBD_StatusTypeDef USBD_LL_Init(USBD_HandleTypeDef *pdev)
 320:USB_DEVICE/Target/usbd_conf.c **** {
 777              		.loc 1 320 1
 778              		.cfi_startproc
 779              		@ args = 0, pretend = 0, frame = 8
 780              		@ frame_needed = 1, uses_anonymous_args = 0
 781 0000 80B5     		push	{r7, lr}
 782              	.LCFI65:
 783              		.cfi_def_cfa_offset 8
 784              		.cfi_offset 7, -8
 785              		.cfi_offset 14, -4
 786 0002 82B0     		sub	sp, sp, #8
 787              	.LCFI66:
 788              		.cfi_def_cfa_offset 16
ARM GAS  C:\Users\23671\AppData\Local\Temp\ccoDtdY8.s 			page 20


 789 0004 00AF     		add	r7, sp, #0
 790              	.LCFI67:
 791              		.cfi_def_cfa_register 7
 792 0006 7860     		str	r0, [r7, #4]
 321:USB_DEVICE/Target/usbd_conf.c ****   /* Init USB Ip. */
 322:USB_DEVICE/Target/usbd_conf.c ****   if (pdev->id == DEVICE_HS) {
 793              		.loc 1 322 11
 794 0008 7B68     		ldr	r3, [r7, #4]
 795 000a 1B78     		ldrb	r3, [r3]	@ zero_extendqisi2
 796              		.loc 1 322 6
 797 000c 012B     		cmp	r3, #1
 798 000e 40D1     		bne	.L31
 323:USB_DEVICE/Target/usbd_conf.c ****   /* Link the driver to the stack. */
 324:USB_DEVICE/Target/usbd_conf.c ****   hpcd_USB_OTG_HS.pData = pdev;
 799              		.loc 1 324 25
 800 0010 224A     		ldr	r2, .L34
 801 0012 7B68     		ldr	r3, [r7, #4]
 802 0014 C2F8E034 		str	r3, [r2, #1248]
 325:USB_DEVICE/Target/usbd_conf.c ****   pdev->pData = &hpcd_USB_OTG_HS;
 803              		.loc 1 325 15
 804 0018 7B68     		ldr	r3, [r7, #4]
 805 001a 204A     		ldr	r2, .L34
 806 001c C3F8C822 		str	r2, [r3, #712]
 326:USB_DEVICE/Target/usbd_conf.c **** 
 327:USB_DEVICE/Target/usbd_conf.c ****   hpcd_USB_OTG_HS.Instance = USB_OTG_HS;
 807              		.loc 1 327 28
 808 0020 1E4B     		ldr	r3, .L34
 809 0022 1F4A     		ldr	r2, .L34+4
 810 0024 1A60     		str	r2, [r3]
 328:USB_DEVICE/Target/usbd_conf.c ****   hpcd_USB_OTG_HS.Init.dev_endpoints = 9;
 811              		.loc 1 328 38
 812 0026 1D4B     		ldr	r3, .L34
 813 0028 0922     		movs	r2, #9
 814 002a 1A71     		strb	r2, [r3, #4]
 329:USB_DEVICE/Target/usbd_conf.c ****   hpcd_USB_OTG_HS.Init.speed = PCD_SPEED_FULL;
 815              		.loc 1 329 30
 816 002c 1B4B     		ldr	r3, .L34
 817 002e 0222     		movs	r2, #2
 818 0030 DA71     		strb	r2, [r3, #7]
 330:USB_DEVICE/Target/usbd_conf.c ****   hpcd_USB_OTG_HS.Init.dma_enable = DISABLE;
 819              		.loc 1 330 35
 820 0032 1A4B     		ldr	r3, .L34
 821 0034 0022     		movs	r2, #0
 822 0036 9A71     		strb	r2, [r3, #6]
 331:USB_DEVICE/Target/usbd_conf.c ****   hpcd_USB_OTG_HS.Init.phy_itface = USB_OTG_EMBEDDED_PHY;
 823              		.loc 1 331 35
 824 0038 184B     		ldr	r3, .L34
 825 003a 0222     		movs	r2, #2
 826 003c 5A72     		strb	r2, [r3, #9]
 332:USB_DEVICE/Target/usbd_conf.c ****   hpcd_USB_OTG_HS.Init.Sof_enable = DISABLE;
 827              		.loc 1 332 35
 828 003e 174B     		ldr	r3, .L34
 829 0040 0022     		movs	r2, #0
 830 0042 9A72     		strb	r2, [r3, #10]
 333:USB_DEVICE/Target/usbd_conf.c ****   hpcd_USB_OTG_HS.Init.low_power_enable = DISABLE;
 831              		.loc 1 333 41
 832 0044 154B     		ldr	r3, .L34
ARM GAS  C:\Users\23671\AppData\Local\Temp\ccoDtdY8.s 			page 21


 833 0046 0022     		movs	r2, #0
 834 0048 DA72     		strb	r2, [r3, #11]
 334:USB_DEVICE/Target/usbd_conf.c ****   hpcd_USB_OTG_HS.Init.lpm_enable = DISABLE;
 835              		.loc 1 334 35
 836 004a 144B     		ldr	r3, .L34
 837 004c 0022     		movs	r2, #0
 838 004e 1A73     		strb	r2, [r3, #12]
 335:USB_DEVICE/Target/usbd_conf.c ****   hpcd_USB_OTG_HS.Init.vbus_sensing_enable = DISABLE;
 839              		.loc 1 335 44
 840 0050 124B     		ldr	r3, .L34
 841 0052 0022     		movs	r2, #0
 842 0054 9A73     		strb	r2, [r3, #14]
 336:USB_DEVICE/Target/usbd_conf.c ****   hpcd_USB_OTG_HS.Init.use_dedicated_ep1 = DISABLE;
 843              		.loc 1 336 42
 844 0056 114B     		ldr	r3, .L34
 845 0058 0022     		movs	r2, #0
 846 005a DA73     		strb	r2, [r3, #15]
 337:USB_DEVICE/Target/usbd_conf.c ****   hpcd_USB_OTG_HS.Init.use_external_vbus = DISABLE;
 847              		.loc 1 337 42
 848 005c 0F4B     		ldr	r3, .L34
 849 005e 0022     		movs	r2, #0
 850 0060 1A74     		strb	r2, [r3, #16]
 338:USB_DEVICE/Target/usbd_conf.c ****   if (HAL_PCD_Init(&hpcd_USB_OTG_HS) != HAL_OK)
 851              		.loc 1 338 7
 852 0062 0E48     		ldr	r0, .L34
 853 0064 FFF7FEFF 		bl	HAL_PCD_Init
 854 0068 0346     		mov	r3, r0
 855              		.loc 1 338 6 discriminator 1
 856 006a 002B     		cmp	r3, #0
 857 006c 01D0     		beq	.L32
 339:USB_DEVICE/Target/usbd_conf.c ****   {
 340:USB_DEVICE/Target/usbd_conf.c ****     Error_Handler( );
 858              		.loc 1 340 5
 859 006e FFF7FEFF 		bl	Error_Handler
 860              	.L32:
 341:USB_DEVICE/Target/usbd_conf.c ****   }
 342:USB_DEVICE/Target/usbd_conf.c **** 
 343:USB_DEVICE/Target/usbd_conf.c **** #if (USE_HAL_PCD_REGISTER_CALLBACKS == 1U)
 344:USB_DEVICE/Target/usbd_conf.c ****   /* Register USB PCD CallBacks */
 345:USB_DEVICE/Target/usbd_conf.c ****   HAL_PCD_RegisterCallback(&hpcd_USB_OTG_HS, HAL_PCD_SOF_CB_ID, PCD_SOFCallback);
 346:USB_DEVICE/Target/usbd_conf.c ****   HAL_PCD_RegisterCallback(&hpcd_USB_OTG_HS, HAL_PCD_SETUPSTAGE_CB_ID, PCD_SetupStageCallback);
 347:USB_DEVICE/Target/usbd_conf.c ****   HAL_PCD_RegisterCallback(&hpcd_USB_OTG_HS, HAL_PCD_RESET_CB_ID, PCD_ResetCallback);
 348:USB_DEVICE/Target/usbd_conf.c ****   HAL_PCD_RegisterCallback(&hpcd_USB_OTG_HS, HAL_PCD_SUSPEND_CB_ID, PCD_SuspendCallback);
 349:USB_DEVICE/Target/usbd_conf.c ****   HAL_PCD_RegisterCallback(&hpcd_USB_OTG_HS, HAL_PCD_RESUME_CB_ID, PCD_ResumeCallback);
 350:USB_DEVICE/Target/usbd_conf.c ****   HAL_PCD_RegisterCallback(&hpcd_USB_OTG_HS, HAL_PCD_CONNECT_CB_ID, PCD_ConnectCallback);
 351:USB_DEVICE/Target/usbd_conf.c ****   HAL_PCD_RegisterCallback(&hpcd_USB_OTG_HS, HAL_PCD_DISCONNECT_CB_ID, PCD_DisconnectCallback);
 352:USB_DEVICE/Target/usbd_conf.c **** 
 353:USB_DEVICE/Target/usbd_conf.c ****   HAL_PCD_RegisterDataOutStageCallback(&hpcd_USB_OTG_HS, PCD_DataOutStageCallback);
 354:USB_DEVICE/Target/usbd_conf.c ****   HAL_PCD_RegisterDataInStageCallback(&hpcd_USB_OTG_HS, PCD_DataInStageCallback);
 355:USB_DEVICE/Target/usbd_conf.c ****   HAL_PCD_RegisterIsoOutIncpltCallback(&hpcd_USB_OTG_HS, PCD_ISOOUTIncompleteCallback);
 356:USB_DEVICE/Target/usbd_conf.c ****   HAL_PCD_RegisterIsoInIncpltCallback(&hpcd_USB_OTG_HS, PCD_ISOINIncompleteCallback);
 357:USB_DEVICE/Target/usbd_conf.c **** #endif /* USE_HAL_PCD_REGISTER_CALLBACKS */
 358:USB_DEVICE/Target/usbd_conf.c ****   /* USER CODE BEGIN TxRx_HS_Configuration */
 359:USB_DEVICE/Target/usbd_conf.c ****   HAL_PCDEx_SetRxFiFo(&hpcd_USB_OTG_HS, 0x200);
 861              		.loc 1 359 3
 862 0072 4FF40071 		mov	r1, #512
 863 0076 0948     		ldr	r0, .L34
ARM GAS  C:\Users\23671\AppData\Local\Temp\ccoDtdY8.s 			page 22


 864 0078 FFF7FEFF 		bl	HAL_PCDEx_SetRxFiFo
 360:USB_DEVICE/Target/usbd_conf.c ****   HAL_PCDEx_SetTxFiFo(&hpcd_USB_OTG_HS, 0, 0x80);
 865              		.loc 1 360 3
 866 007c 8022     		movs	r2, #128
 867 007e 0021     		movs	r1, #0
 868 0080 0648     		ldr	r0, .L34
 869 0082 FFF7FEFF 		bl	HAL_PCDEx_SetTxFiFo
 361:USB_DEVICE/Target/usbd_conf.c ****   HAL_PCDEx_SetTxFiFo(&hpcd_USB_OTG_HS, 1, 0x174);
 870              		.loc 1 361 3
 871 0086 4FF4BA72 		mov	r2, #372
 872 008a 0121     		movs	r1, #1
 873 008c 0348     		ldr	r0, .L34
 874 008e FFF7FEFF 		bl	HAL_PCDEx_SetTxFiFo
 875              	.L31:
 362:USB_DEVICE/Target/usbd_conf.c ****   /* USER CODE END TxRx_HS_Configuration */
 363:USB_DEVICE/Target/usbd_conf.c ****   }
 364:USB_DEVICE/Target/usbd_conf.c ****   return USBD_OK;
 876              		.loc 1 364 10
 877 0092 0023     		movs	r3, #0
 365:USB_DEVICE/Target/usbd_conf.c **** }
 878              		.loc 1 365 1
 879 0094 1846     		mov	r0, r3
 880 0096 0837     		adds	r7, r7, #8
 881              	.LCFI68:
 882              		.cfi_def_cfa_offset 8
 883 0098 BD46     		mov	sp, r7
 884              	.LCFI69:
 885              		.cfi_def_cfa_register 13
 886              		@ sp needed
 887 009a 80BD     		pop	{r7, pc}
 888              	.L35:
 889              		.align	2
 890              	.L34:
 891 009c 00000000 		.word	hpcd_USB_OTG_HS
 892 00a0 00000440 		.word	1074003968
 893              		.cfi_endproc
 894              	.LFE161:
 896              		.section	.text.USBD_LL_DeInit,"ax",%progbits
 897              		.align	1
 898              		.global	USBD_LL_DeInit
 899              		.syntax unified
 900              		.thumb
 901              		.thumb_func
 903              	USBD_LL_DeInit:
 904              	.LFB162:
 366:USB_DEVICE/Target/usbd_conf.c **** 
 367:USB_DEVICE/Target/usbd_conf.c **** /**
 368:USB_DEVICE/Target/usbd_conf.c ****   * @brief  De-Initializes the low level portion of the device driver.
 369:USB_DEVICE/Target/usbd_conf.c ****   * @param  pdev: Device handle
 370:USB_DEVICE/Target/usbd_conf.c ****   * @retval USBD status
 371:USB_DEVICE/Target/usbd_conf.c ****   */
 372:USB_DEVICE/Target/usbd_conf.c **** USBD_StatusTypeDef USBD_LL_DeInit(USBD_HandleTypeDef *pdev)
 373:USB_DEVICE/Target/usbd_conf.c **** {
 905              		.loc 1 373 1
 906              		.cfi_startproc
 907              		@ args = 0, pretend = 0, frame = 16
 908              		@ frame_needed = 1, uses_anonymous_args = 0
ARM GAS  C:\Users\23671\AppData\Local\Temp\ccoDtdY8.s 			page 23


 909 0000 80B5     		push	{r7, lr}
 910              	.LCFI70:
 911              		.cfi_def_cfa_offset 8
 912              		.cfi_offset 7, -8
 913              		.cfi_offset 14, -4
 914 0002 84B0     		sub	sp, sp, #16
 915              	.LCFI71:
 916              		.cfi_def_cfa_offset 24
 917 0004 00AF     		add	r7, sp, #0
 918              	.LCFI72:
 919              		.cfi_def_cfa_register 7
 920 0006 7860     		str	r0, [r7, #4]
 374:USB_DEVICE/Target/usbd_conf.c ****   HAL_StatusTypeDef hal_status = HAL_OK;
 921              		.loc 1 374 21
 922 0008 0023     		movs	r3, #0
 923 000a FB73     		strb	r3, [r7, #15]
 375:USB_DEVICE/Target/usbd_conf.c ****   USBD_StatusTypeDef usb_status = USBD_OK;
 924              		.loc 1 375 22
 925 000c 0023     		movs	r3, #0
 926 000e BB73     		strb	r3, [r7, #14]
 376:USB_DEVICE/Target/usbd_conf.c **** 
 377:USB_DEVICE/Target/usbd_conf.c ****   hal_status = HAL_PCD_DeInit(pdev->pData);
 927              		.loc 1 377 35
 928 0010 7B68     		ldr	r3, [r7, #4]
 929 0012 D3F8C832 		ldr	r3, [r3, #712]
 930              		.loc 1 377 16
 931 0016 1846     		mov	r0, r3
 932 0018 FFF7FEFF 		bl	HAL_PCD_DeInit
 933 001c 0346     		mov	r3, r0
 934 001e FB73     		strb	r3, [r7, #15]
 378:USB_DEVICE/Target/usbd_conf.c **** 
 379:USB_DEVICE/Target/usbd_conf.c ****   usb_status =  USBD_Get_USB_Status(hal_status);
 935              		.loc 1 379 17
 936 0020 FB7B     		ldrb	r3, [r7, #15]	@ zero_extendqisi2
 937 0022 1846     		mov	r0, r3
 938 0024 FFF7FEFF 		bl	USBD_Get_USB_Status
 939 0028 0346     		mov	r3, r0
 940 002a BB73     		strb	r3, [r7, #14]
 380:USB_DEVICE/Target/usbd_conf.c **** 
 381:USB_DEVICE/Target/usbd_conf.c ****   return usb_status;
 941              		.loc 1 381 10
 942 002c BB7B     		ldrb	r3, [r7, #14]	@ zero_extendqisi2
 382:USB_DEVICE/Target/usbd_conf.c **** }
 943              		.loc 1 382 1
 944 002e 1846     		mov	r0, r3
 945 0030 1037     		adds	r7, r7, #16
 946              	.LCFI73:
 947              		.cfi_def_cfa_offset 8
 948 0032 BD46     		mov	sp, r7
 949              	.LCFI74:
 950              		.cfi_def_cfa_register 13
 951              		@ sp needed
 952 0034 80BD     		pop	{r7, pc}
 953              		.cfi_endproc
 954              	.LFE162:
 956              		.section	.text.USBD_LL_Start,"ax",%progbits
 957              		.align	1
ARM GAS  C:\Users\23671\AppData\Local\Temp\ccoDtdY8.s 			page 24


 958              		.global	USBD_LL_Start
 959              		.syntax unified
 960              		.thumb
 961              		.thumb_func
 963              	USBD_LL_Start:
 964              	.LFB163:
 383:USB_DEVICE/Target/usbd_conf.c **** 
 384:USB_DEVICE/Target/usbd_conf.c **** /**
 385:USB_DEVICE/Target/usbd_conf.c ****   * @brief  Starts the low level portion of the device driver.
 386:USB_DEVICE/Target/usbd_conf.c ****   * @param  pdev: Device handle
 387:USB_DEVICE/Target/usbd_conf.c ****   * @retval USBD status
 388:USB_DEVICE/Target/usbd_conf.c ****   */
 389:USB_DEVICE/Target/usbd_conf.c **** USBD_StatusTypeDef USBD_LL_Start(USBD_HandleTypeDef *pdev)
 390:USB_DEVICE/Target/usbd_conf.c **** {
 965              		.loc 1 390 1
 966              		.cfi_startproc
 967              		@ args = 0, pretend = 0, frame = 16
 968              		@ frame_needed = 1, uses_anonymous_args = 0
 969 0000 80B5     		push	{r7, lr}
 970              	.LCFI75:
 971              		.cfi_def_cfa_offset 8
 972              		.cfi_offset 7, -8
 973              		.cfi_offset 14, -4
 974 0002 84B0     		sub	sp, sp, #16
 975              	.LCFI76:
 976              		.cfi_def_cfa_offset 24
 977 0004 00AF     		add	r7, sp, #0
 978              	.LCFI77:
 979              		.cfi_def_cfa_register 7
 980 0006 7860     		str	r0, [r7, #4]
 391:USB_DEVICE/Target/usbd_conf.c ****   HAL_StatusTypeDef hal_status = HAL_OK;
 981              		.loc 1 391 21
 982 0008 0023     		movs	r3, #0
 983 000a FB73     		strb	r3, [r7, #15]
 392:USB_DEVICE/Target/usbd_conf.c ****   USBD_StatusTypeDef usb_status = USBD_OK;
 984              		.loc 1 392 22
 985 000c 0023     		movs	r3, #0
 986 000e BB73     		strb	r3, [r7, #14]
 393:USB_DEVICE/Target/usbd_conf.c **** 
 394:USB_DEVICE/Target/usbd_conf.c ****   hal_status = HAL_PCD_Start(pdev->pData);
 987              		.loc 1 394 34
 988 0010 7B68     		ldr	r3, [r7, #4]
 989 0012 D3F8C832 		ldr	r3, [r3, #712]
 990              		.loc 1 394 16
 991 0016 1846     		mov	r0, r3
 992 0018 FFF7FEFF 		bl	HAL_PCD_Start
 993 001c 0346     		mov	r3, r0
 994 001e FB73     		strb	r3, [r7, #15]
 395:USB_DEVICE/Target/usbd_conf.c **** 
 396:USB_DEVICE/Target/usbd_conf.c ****   usb_status =  USBD_Get_USB_Status(hal_status);
 995              		.loc 1 396 17
 996 0020 FB7B     		ldrb	r3, [r7, #15]	@ zero_extendqisi2
 997 0022 1846     		mov	r0, r3
 998 0024 FFF7FEFF 		bl	USBD_Get_USB_Status
 999 0028 0346     		mov	r3, r0
 1000 002a BB73     		strb	r3, [r7, #14]
 397:USB_DEVICE/Target/usbd_conf.c **** 
ARM GAS  C:\Users\23671\AppData\Local\Temp\ccoDtdY8.s 			page 25


 398:USB_DEVICE/Target/usbd_conf.c ****   return usb_status;
 1001              		.loc 1 398 10
 1002 002c BB7B     		ldrb	r3, [r7, #14]	@ zero_extendqisi2
 399:USB_DEVICE/Target/usbd_conf.c **** }
 1003              		.loc 1 399 1
 1004 002e 1846     		mov	r0, r3
 1005 0030 1037     		adds	r7, r7, #16
 1006              	.LCFI78:
 1007              		.cfi_def_cfa_offset 8
 1008 0032 BD46     		mov	sp, r7
 1009              	.LCFI79:
 1010              		.cfi_def_cfa_register 13
 1011              		@ sp needed
 1012 0034 80BD     		pop	{r7, pc}
 1013              		.cfi_endproc
 1014              	.LFE163:
 1016              		.section	.text.USBD_LL_Stop,"ax",%progbits
 1017              		.align	1
 1018              		.global	USBD_LL_Stop
 1019              		.syntax unified
 1020              		.thumb
 1021              		.thumb_func
 1023              	USBD_LL_Stop:
 1024              	.LFB164:
 400:USB_DEVICE/Target/usbd_conf.c **** 
 401:USB_DEVICE/Target/usbd_conf.c **** /**
 402:USB_DEVICE/Target/usbd_conf.c ****   * @brief  Stops the low level portion of the device driver.
 403:USB_DEVICE/Target/usbd_conf.c ****   * @param  pdev: Device handle
 404:USB_DEVICE/Target/usbd_conf.c ****   * @retval USBD status
 405:USB_DEVICE/Target/usbd_conf.c ****   */
 406:USB_DEVICE/Target/usbd_conf.c **** USBD_StatusTypeDef USBD_LL_Stop(USBD_HandleTypeDef *pdev)
 407:USB_DEVICE/Target/usbd_conf.c **** {
 1025              		.loc 1 407 1
 1026              		.cfi_startproc
 1027              		@ args = 0, pretend = 0, frame = 16
 1028              		@ frame_needed = 1, uses_anonymous_args = 0
 1029 0000 80B5     		push	{r7, lr}
 1030              	.LCFI80:
 1031              		.cfi_def_cfa_offset 8
 1032              		.cfi_offset 7, -8
 1033              		.cfi_offset 14, -4
 1034 0002 84B0     		sub	sp, sp, #16
 1035              	.LCFI81:
 1036              		.cfi_def_cfa_offset 24
 1037 0004 00AF     		add	r7, sp, #0
 1038              	.LCFI82:
 1039              		.cfi_def_cfa_register 7
 1040 0006 7860     		str	r0, [r7, #4]
 408:USB_DEVICE/Target/usbd_conf.c ****   HAL_StatusTypeDef hal_status = HAL_OK;
 1041              		.loc 1 408 21
 1042 0008 0023     		movs	r3, #0
 1043 000a FB73     		strb	r3, [r7, #15]
 409:USB_DEVICE/Target/usbd_conf.c ****   USBD_StatusTypeDef usb_status = USBD_OK;
 1044              		.loc 1 409 22
 1045 000c 0023     		movs	r3, #0
 1046 000e BB73     		strb	r3, [r7, #14]
 410:USB_DEVICE/Target/usbd_conf.c **** 
ARM GAS  C:\Users\23671\AppData\Local\Temp\ccoDtdY8.s 			page 26


 411:USB_DEVICE/Target/usbd_conf.c ****   hal_status = HAL_PCD_Stop(pdev->pData);
 1047              		.loc 1 411 33
 1048 0010 7B68     		ldr	r3, [r7, #4]
 1049 0012 D3F8C832 		ldr	r3, [r3, #712]
 1050              		.loc 1 411 16
 1051 0016 1846     		mov	r0, r3
 1052 0018 FFF7FEFF 		bl	HAL_PCD_Stop
 1053 001c 0346     		mov	r3, r0
 1054 001e FB73     		strb	r3, [r7, #15]
 412:USB_DEVICE/Target/usbd_conf.c **** 
 413:USB_DEVICE/Target/usbd_conf.c ****   usb_status =  USBD_Get_USB_Status(hal_status);
 1055              		.loc 1 413 17
 1056 0020 FB7B     		ldrb	r3, [r7, #15]	@ zero_extendqisi2
 1057 0022 1846     		mov	r0, r3
 1058 0024 FFF7FEFF 		bl	USBD_Get_USB_Status
 1059 0028 0346     		mov	r3, r0
 1060 002a BB73     		strb	r3, [r7, #14]
 414:USB_DEVICE/Target/usbd_conf.c **** 
 415:USB_DEVICE/Target/usbd_conf.c ****   return usb_status;
 1061              		.loc 1 415 10
 1062 002c BB7B     		ldrb	r3, [r7, #14]	@ zero_extendqisi2
 416:USB_DEVICE/Target/usbd_conf.c **** }
 1063              		.loc 1 416 1
 1064 002e 1846     		mov	r0, r3
 1065 0030 1037     		adds	r7, r7, #16
 1066              	.LCFI83:
 1067              		.cfi_def_cfa_offset 8
 1068 0032 BD46     		mov	sp, r7
 1069              	.LCFI84:
 1070              		.cfi_def_cfa_register 13
 1071              		@ sp needed
 1072 0034 80BD     		pop	{r7, pc}
 1073              		.cfi_endproc
 1074              	.LFE164:
 1076              		.section	.text.USBD_LL_OpenEP,"ax",%progbits
 1077              		.align	1
 1078              		.global	USBD_LL_OpenEP
 1079              		.syntax unified
 1080              		.thumb
 1081              		.thumb_func
 1083              	USBD_LL_OpenEP:
 1084              	.LFB165:
 417:USB_DEVICE/Target/usbd_conf.c **** 
 418:USB_DEVICE/Target/usbd_conf.c **** /**
 419:USB_DEVICE/Target/usbd_conf.c ****   * @brief  Opens an endpoint of the low level driver.
 420:USB_DEVICE/Target/usbd_conf.c ****   * @param  pdev: Device handle
 421:USB_DEVICE/Target/usbd_conf.c ****   * @param  ep_addr: Endpoint number
 422:USB_DEVICE/Target/usbd_conf.c ****   * @param  ep_type: Endpoint type
 423:USB_DEVICE/Target/usbd_conf.c ****   * @param  ep_mps: Endpoint max packet size
 424:USB_DEVICE/Target/usbd_conf.c ****   * @retval USBD status
 425:USB_DEVICE/Target/usbd_conf.c ****   */
 426:USB_DEVICE/Target/usbd_conf.c **** USBD_StatusTypeDef USBD_LL_OpenEP(USBD_HandleTypeDef *pdev, uint8_t ep_addr, uint8_t ep_type, uint1
 427:USB_DEVICE/Target/usbd_conf.c **** {
 1085              		.loc 1 427 1
 1086              		.cfi_startproc
 1087              		@ args = 0, pretend = 0, frame = 16
 1088              		@ frame_needed = 1, uses_anonymous_args = 0
ARM GAS  C:\Users\23671\AppData\Local\Temp\ccoDtdY8.s 			page 27


 1089 0000 80B5     		push	{r7, lr}
 1090              	.LCFI85:
 1091              		.cfi_def_cfa_offset 8
 1092              		.cfi_offset 7, -8
 1093              		.cfi_offset 14, -4
 1094 0002 84B0     		sub	sp, sp, #16
 1095              	.LCFI86:
 1096              		.cfi_def_cfa_offset 24
 1097 0004 00AF     		add	r7, sp, #0
 1098              	.LCFI87:
 1099              		.cfi_def_cfa_register 7
 1100 0006 7860     		str	r0, [r7, #4]
 1101 0008 0846     		mov	r0, r1
 1102 000a 1146     		mov	r1, r2
 1103 000c 1A46     		mov	r2, r3
 1104 000e 0346     		mov	r3, r0
 1105 0010 FB70     		strb	r3, [r7, #3]
 1106 0012 0B46     		mov	r3, r1
 1107 0014 BB70     		strb	r3, [r7, #2]
 1108 0016 1346     		mov	r3, r2	@ movhi
 1109 0018 3B80     		strh	r3, [r7]	@ movhi
 428:USB_DEVICE/Target/usbd_conf.c ****   HAL_StatusTypeDef hal_status = HAL_OK;
 1110              		.loc 1 428 21
 1111 001a 0023     		movs	r3, #0
 1112 001c FB73     		strb	r3, [r7, #15]
 429:USB_DEVICE/Target/usbd_conf.c ****   USBD_StatusTypeDef usb_status = USBD_OK;
 1113              		.loc 1 429 22
 1114 001e 0023     		movs	r3, #0
 1115 0020 BB73     		strb	r3, [r7, #14]
 430:USB_DEVICE/Target/usbd_conf.c **** 
 431:USB_DEVICE/Target/usbd_conf.c ****   hal_status = HAL_PCD_EP_Open(pdev->pData, ep_addr, ep_mps, ep_type);
 1116              		.loc 1 431 36
 1117 0022 7B68     		ldr	r3, [r7, #4]
 1118 0024 D3F8C802 		ldr	r0, [r3, #712]
 1119              		.loc 1 431 16
 1120 0028 BB78     		ldrb	r3, [r7, #2]	@ zero_extendqisi2
 1121 002a 3A88     		ldrh	r2, [r7]
 1122 002c F978     		ldrb	r1, [r7, #3]	@ zero_extendqisi2
 1123 002e FFF7FEFF 		bl	HAL_PCD_EP_Open
 1124 0032 0346     		mov	r3, r0
 1125 0034 FB73     		strb	r3, [r7, #15]
 432:USB_DEVICE/Target/usbd_conf.c **** 
 433:USB_DEVICE/Target/usbd_conf.c ****   usb_status =  USBD_Get_USB_Status(hal_status);
 1126              		.loc 1 433 17
 1127 0036 FB7B     		ldrb	r3, [r7, #15]	@ zero_extendqisi2
 1128 0038 1846     		mov	r0, r3
 1129 003a FFF7FEFF 		bl	USBD_Get_USB_Status
 1130 003e 0346     		mov	r3, r0
 1131 0040 BB73     		strb	r3, [r7, #14]
 434:USB_DEVICE/Target/usbd_conf.c **** 
 435:USB_DEVICE/Target/usbd_conf.c ****   return usb_status;
 1132              		.loc 1 435 10
 1133 0042 BB7B     		ldrb	r3, [r7, #14]	@ zero_extendqisi2
 436:USB_DEVICE/Target/usbd_conf.c **** }
 1134              		.loc 1 436 1
 1135 0044 1846     		mov	r0, r3
 1136 0046 1037     		adds	r7, r7, #16
ARM GAS  C:\Users\23671\AppData\Local\Temp\ccoDtdY8.s 			page 28


 1137              	.LCFI88:
 1138              		.cfi_def_cfa_offset 8
 1139 0048 BD46     		mov	sp, r7
 1140              	.LCFI89:
 1141              		.cfi_def_cfa_register 13
 1142              		@ sp needed
 1143 004a 80BD     		pop	{r7, pc}
 1144              		.cfi_endproc
 1145              	.LFE165:
 1147              		.section	.text.USBD_LL_CloseEP,"ax",%progbits
 1148              		.align	1
 1149              		.global	USBD_LL_CloseEP
 1150              		.syntax unified
 1151              		.thumb
 1152              		.thumb_func
 1154              	USBD_LL_CloseEP:
 1155              	.LFB166:
 437:USB_DEVICE/Target/usbd_conf.c **** 
 438:USB_DEVICE/Target/usbd_conf.c **** /**
 439:USB_DEVICE/Target/usbd_conf.c ****   * @brief  Closes an endpoint of the low level driver.
 440:USB_DEVICE/Target/usbd_conf.c ****   * @param  pdev: Device handle
 441:USB_DEVICE/Target/usbd_conf.c ****   * @param  ep_addr: Endpoint number
 442:USB_DEVICE/Target/usbd_conf.c ****   * @retval USBD status
 443:USB_DEVICE/Target/usbd_conf.c ****   */
 444:USB_DEVICE/Target/usbd_conf.c **** USBD_StatusTypeDef USBD_LL_CloseEP(USBD_HandleTypeDef *pdev, uint8_t ep_addr)
 445:USB_DEVICE/Target/usbd_conf.c **** {
 1156              		.loc 1 445 1
 1157              		.cfi_startproc
 1158              		@ args = 0, pretend = 0, frame = 16
 1159              		@ frame_needed = 1, uses_anonymous_args = 0
 1160 0000 80B5     		push	{r7, lr}
 1161              	.LCFI90:
 1162              		.cfi_def_cfa_offset 8
 1163              		.cfi_offset 7, -8
 1164              		.cfi_offset 14, -4
 1165 0002 84B0     		sub	sp, sp, #16
 1166              	.LCFI91:
 1167              		.cfi_def_cfa_offset 24
 1168 0004 00AF     		add	r7, sp, #0
 1169              	.LCFI92:
 1170              		.cfi_def_cfa_register 7
 1171 0006 7860     		str	r0, [r7, #4]
 1172 0008 0B46     		mov	r3, r1
 1173 000a FB70     		strb	r3, [r7, #3]
 446:USB_DEVICE/Target/usbd_conf.c ****   HAL_StatusTypeDef hal_status = HAL_OK;
 1174              		.loc 1 446 21
 1175 000c 0023     		movs	r3, #0
 1176 000e FB73     		strb	r3, [r7, #15]
 447:USB_DEVICE/Target/usbd_conf.c ****   USBD_StatusTypeDef usb_status = USBD_OK;
 1177              		.loc 1 447 22
 1178 0010 0023     		movs	r3, #0
 1179 0012 BB73     		strb	r3, [r7, #14]
 448:USB_DEVICE/Target/usbd_conf.c **** 
 449:USB_DEVICE/Target/usbd_conf.c ****   hal_status = HAL_PCD_EP_Close(pdev->pData, ep_addr);
 1180              		.loc 1 449 37
 1181 0014 7B68     		ldr	r3, [r7, #4]
 1182 0016 D3F8C832 		ldr	r3, [r3, #712]
ARM GAS  C:\Users\23671\AppData\Local\Temp\ccoDtdY8.s 			page 29


 1183              		.loc 1 449 16
 1184 001a FA78     		ldrb	r2, [r7, #3]	@ zero_extendqisi2
 1185 001c 1146     		mov	r1, r2
 1186 001e 1846     		mov	r0, r3
 1187 0020 FFF7FEFF 		bl	HAL_PCD_EP_Close
 1188 0024 0346     		mov	r3, r0
 1189 0026 FB73     		strb	r3, [r7, #15]
 450:USB_DEVICE/Target/usbd_conf.c **** 
 451:USB_DEVICE/Target/usbd_conf.c ****   usb_status =  USBD_Get_USB_Status(hal_status);
 1190              		.loc 1 451 17
 1191 0028 FB7B     		ldrb	r3, [r7, #15]	@ zero_extendqisi2
 1192 002a 1846     		mov	r0, r3
 1193 002c FFF7FEFF 		bl	USBD_Get_USB_Status
 1194 0030 0346     		mov	r3, r0
 1195 0032 BB73     		strb	r3, [r7, #14]
 452:USB_DEVICE/Target/usbd_conf.c **** 
 453:USB_DEVICE/Target/usbd_conf.c ****   return usb_status;
 1196              		.loc 1 453 10
 1197 0034 BB7B     		ldrb	r3, [r7, #14]	@ zero_extendqisi2
 454:USB_DEVICE/Target/usbd_conf.c **** }
 1198              		.loc 1 454 1
 1199 0036 1846     		mov	r0, r3
 1200 0038 1037     		adds	r7, r7, #16
 1201              	.LCFI93:
 1202              		.cfi_def_cfa_offset 8
 1203 003a BD46     		mov	sp, r7
 1204              	.LCFI94:
 1205              		.cfi_def_cfa_register 13
 1206              		@ sp needed
 1207 003c 80BD     		pop	{r7, pc}
 1208              		.cfi_endproc
 1209              	.LFE166:
 1211              		.section	.text.USBD_LL_FlushEP,"ax",%progbits
 1212              		.align	1
 1213              		.global	USBD_LL_FlushEP
 1214              		.syntax unified
 1215              		.thumb
 1216              		.thumb_func
 1218              	USBD_LL_FlushEP:
 1219              	.LFB167:
 455:USB_DEVICE/Target/usbd_conf.c **** 
 456:USB_DEVICE/Target/usbd_conf.c **** /**
 457:USB_DEVICE/Target/usbd_conf.c ****   * @brief  Flushes an endpoint of the Low Level Driver.
 458:USB_DEVICE/Target/usbd_conf.c ****   * @param  pdev: Device handle
 459:USB_DEVICE/Target/usbd_conf.c ****   * @param  ep_addr: Endpoint number
 460:USB_DEVICE/Target/usbd_conf.c ****   * @retval USBD status
 461:USB_DEVICE/Target/usbd_conf.c ****   */
 462:USB_DEVICE/Target/usbd_conf.c **** USBD_StatusTypeDef USBD_LL_FlushEP(USBD_HandleTypeDef *pdev, uint8_t ep_addr)
 463:USB_DEVICE/Target/usbd_conf.c **** {
 1220              		.loc 1 463 1
 1221              		.cfi_startproc
 1222              		@ args = 0, pretend = 0, frame = 16
 1223              		@ frame_needed = 1, uses_anonymous_args = 0
 1224 0000 80B5     		push	{r7, lr}
 1225              	.LCFI95:
 1226              		.cfi_def_cfa_offset 8
 1227              		.cfi_offset 7, -8
ARM GAS  C:\Users\23671\AppData\Local\Temp\ccoDtdY8.s 			page 30


 1228              		.cfi_offset 14, -4
 1229 0002 84B0     		sub	sp, sp, #16
 1230              	.LCFI96:
 1231              		.cfi_def_cfa_offset 24
 1232 0004 00AF     		add	r7, sp, #0
 1233              	.LCFI97:
 1234              		.cfi_def_cfa_register 7
 1235 0006 7860     		str	r0, [r7, #4]
 1236 0008 0B46     		mov	r3, r1
 1237 000a FB70     		strb	r3, [r7, #3]
 464:USB_DEVICE/Target/usbd_conf.c ****   HAL_StatusTypeDef hal_status = HAL_OK;
 1238              		.loc 1 464 21
 1239 000c 0023     		movs	r3, #0
 1240 000e FB73     		strb	r3, [r7, #15]
 465:USB_DEVICE/Target/usbd_conf.c ****   USBD_StatusTypeDef usb_status = USBD_OK;
 1241              		.loc 1 465 22
 1242 0010 0023     		movs	r3, #0
 1243 0012 BB73     		strb	r3, [r7, #14]
 466:USB_DEVICE/Target/usbd_conf.c **** 
 467:USB_DEVICE/Target/usbd_conf.c ****   hal_status = HAL_PCD_EP_Flush(pdev->pData, ep_addr);
 1244              		.loc 1 467 37
 1245 0014 7B68     		ldr	r3, [r7, #4]
 1246 0016 D3F8C832 		ldr	r3, [r3, #712]
 1247              		.loc 1 467 16
 1248 001a FA78     		ldrb	r2, [r7, #3]	@ zero_extendqisi2
 1249 001c 1146     		mov	r1, r2
 1250 001e 1846     		mov	r0, r3
 1251 0020 FFF7FEFF 		bl	HAL_PCD_EP_Flush
 1252 0024 0346     		mov	r3, r0
 1253 0026 FB73     		strb	r3, [r7, #15]
 468:USB_DEVICE/Target/usbd_conf.c **** 
 469:USB_DEVICE/Target/usbd_conf.c ****   usb_status =  USBD_Get_USB_Status(hal_status);
 1254              		.loc 1 469 17
 1255 0028 FB7B     		ldrb	r3, [r7, #15]	@ zero_extendqisi2
 1256 002a 1846     		mov	r0, r3
 1257 002c FFF7FEFF 		bl	USBD_Get_USB_Status
 1258 0030 0346     		mov	r3, r0
 1259 0032 BB73     		strb	r3, [r7, #14]
 470:USB_DEVICE/Target/usbd_conf.c **** 
 471:USB_DEVICE/Target/usbd_conf.c ****   return usb_status;
 1260              		.loc 1 471 10
 1261 0034 BB7B     		ldrb	r3, [r7, #14]	@ zero_extendqisi2
 472:USB_DEVICE/Target/usbd_conf.c **** }
 1262              		.loc 1 472 1
 1263 0036 1846     		mov	r0, r3
 1264 0038 1037     		adds	r7, r7, #16
 1265              	.LCFI98:
 1266              		.cfi_def_cfa_offset 8
 1267 003a BD46     		mov	sp, r7
 1268              	.LCFI99:
 1269              		.cfi_def_cfa_register 13
 1270              		@ sp needed
 1271 003c 80BD     		pop	{r7, pc}
 1272              		.cfi_endproc
 1273              	.LFE167:
 1275              		.section	.text.USBD_LL_StallEP,"ax",%progbits
 1276              		.align	1
ARM GAS  C:\Users\23671\AppData\Local\Temp\ccoDtdY8.s 			page 31


 1277              		.global	USBD_LL_StallEP
 1278              		.syntax unified
 1279              		.thumb
 1280              		.thumb_func
 1282              	USBD_LL_StallEP:
 1283              	.LFB168:
 473:USB_DEVICE/Target/usbd_conf.c **** 
 474:USB_DEVICE/Target/usbd_conf.c **** /**
 475:USB_DEVICE/Target/usbd_conf.c ****   * @brief  Sets a Stall condition on an endpoint of the Low Level Driver.
 476:USB_DEVICE/Target/usbd_conf.c ****   * @param  pdev: Device handle
 477:USB_DEVICE/Target/usbd_conf.c ****   * @param  ep_addr: Endpoint number
 478:USB_DEVICE/Target/usbd_conf.c ****   * @retval USBD status
 479:USB_DEVICE/Target/usbd_conf.c ****   */
 480:USB_DEVICE/Target/usbd_conf.c **** USBD_StatusTypeDef USBD_LL_StallEP(USBD_HandleTypeDef *pdev, uint8_t ep_addr)
 481:USB_DEVICE/Target/usbd_conf.c **** {
 1284              		.loc 1 481 1
 1285              		.cfi_startproc
 1286              		@ args = 0, pretend = 0, frame = 16
 1287              		@ frame_needed = 1, uses_anonymous_args = 0
 1288 0000 80B5     		push	{r7, lr}
 1289              	.LCFI100:
 1290              		.cfi_def_cfa_offset 8
 1291              		.cfi_offset 7, -8
 1292              		.cfi_offset 14, -4
 1293 0002 84B0     		sub	sp, sp, #16
 1294              	.LCFI101:
 1295              		.cfi_def_cfa_offset 24
 1296 0004 00AF     		add	r7, sp, #0
 1297              	.LCFI102:
 1298              		.cfi_def_cfa_register 7
 1299 0006 7860     		str	r0, [r7, #4]
 1300 0008 0B46     		mov	r3, r1
 1301 000a FB70     		strb	r3, [r7, #3]
 482:USB_DEVICE/Target/usbd_conf.c ****   HAL_StatusTypeDef hal_status = HAL_OK;
 1302              		.loc 1 482 21
 1303 000c 0023     		movs	r3, #0
 1304 000e FB73     		strb	r3, [r7, #15]
 483:USB_DEVICE/Target/usbd_conf.c ****   USBD_StatusTypeDef usb_status = USBD_OK;
 1305              		.loc 1 483 22
 1306 0010 0023     		movs	r3, #0
 1307 0012 BB73     		strb	r3, [r7, #14]
 484:USB_DEVICE/Target/usbd_conf.c **** 
 485:USB_DEVICE/Target/usbd_conf.c ****   hal_status = HAL_PCD_EP_SetStall(pdev->pData, ep_addr);
 1308              		.loc 1 485 40
 1309 0014 7B68     		ldr	r3, [r7, #4]
 1310 0016 D3F8C832 		ldr	r3, [r3, #712]
 1311              		.loc 1 485 16
 1312 001a FA78     		ldrb	r2, [r7, #3]	@ zero_extendqisi2
 1313 001c 1146     		mov	r1, r2
 1314 001e 1846     		mov	r0, r3
 1315 0020 FFF7FEFF 		bl	HAL_PCD_EP_SetStall
 1316 0024 0346     		mov	r3, r0
 1317 0026 FB73     		strb	r3, [r7, #15]
 486:USB_DEVICE/Target/usbd_conf.c **** 
 487:USB_DEVICE/Target/usbd_conf.c ****   usb_status =  USBD_Get_USB_Status(hal_status);
 1318              		.loc 1 487 17
 1319 0028 FB7B     		ldrb	r3, [r7, #15]	@ zero_extendqisi2
ARM GAS  C:\Users\23671\AppData\Local\Temp\ccoDtdY8.s 			page 32


 1320 002a 1846     		mov	r0, r3
 1321 002c FFF7FEFF 		bl	USBD_Get_USB_Status
 1322 0030 0346     		mov	r3, r0
 1323 0032 BB73     		strb	r3, [r7, #14]
 488:USB_DEVICE/Target/usbd_conf.c **** 
 489:USB_DEVICE/Target/usbd_conf.c ****   return usb_status;
 1324              		.loc 1 489 10
 1325 0034 BB7B     		ldrb	r3, [r7, #14]	@ zero_extendqisi2
 490:USB_DEVICE/Target/usbd_conf.c **** }
 1326              		.loc 1 490 1
 1327 0036 1846     		mov	r0, r3
 1328 0038 1037     		adds	r7, r7, #16
 1329              	.LCFI103:
 1330              		.cfi_def_cfa_offset 8
 1331 003a BD46     		mov	sp, r7
 1332              	.LCFI104:
 1333              		.cfi_def_cfa_register 13
 1334              		@ sp needed
 1335 003c 80BD     		pop	{r7, pc}
 1336              		.cfi_endproc
 1337              	.LFE168:
 1339              		.section	.text.USBD_LL_ClearStallEP,"ax",%progbits
 1340              		.align	1
 1341              		.global	USBD_LL_ClearStallEP
 1342              		.syntax unified
 1343              		.thumb
 1344              		.thumb_func
 1346              	USBD_LL_ClearStallEP:
 1347              	.LFB169:
 491:USB_DEVICE/Target/usbd_conf.c **** 
 492:USB_DEVICE/Target/usbd_conf.c **** /**
 493:USB_DEVICE/Target/usbd_conf.c ****   * @brief  Clears a Stall condition on an endpoint of the Low Level Driver.
 494:USB_DEVICE/Target/usbd_conf.c ****   * @param  pdev: Device handle
 495:USB_DEVICE/Target/usbd_conf.c ****   * @param  ep_addr: Endpoint number
 496:USB_DEVICE/Target/usbd_conf.c ****   * @retval USBD status
 497:USB_DEVICE/Target/usbd_conf.c ****   */
 498:USB_DEVICE/Target/usbd_conf.c **** USBD_StatusTypeDef USBD_LL_ClearStallEP(USBD_HandleTypeDef *pdev, uint8_t ep_addr)
 499:USB_DEVICE/Target/usbd_conf.c **** {
 1348              		.loc 1 499 1
 1349              		.cfi_startproc
 1350              		@ args = 0, pretend = 0, frame = 16
 1351              		@ frame_needed = 1, uses_anonymous_args = 0
 1352 0000 80B5     		push	{r7, lr}
 1353              	.LCFI105:
 1354              		.cfi_def_cfa_offset 8
 1355              		.cfi_offset 7, -8
 1356              		.cfi_offset 14, -4
 1357 0002 84B0     		sub	sp, sp, #16
 1358              	.LCFI106:
 1359              		.cfi_def_cfa_offset 24
 1360 0004 00AF     		add	r7, sp, #0
 1361              	.LCFI107:
 1362              		.cfi_def_cfa_register 7
 1363 0006 7860     		str	r0, [r7, #4]
 1364 0008 0B46     		mov	r3, r1
 1365 000a FB70     		strb	r3, [r7, #3]
 500:USB_DEVICE/Target/usbd_conf.c ****   HAL_StatusTypeDef hal_status = HAL_OK;
ARM GAS  C:\Users\23671\AppData\Local\Temp\ccoDtdY8.s 			page 33


 1366              		.loc 1 500 21
 1367 000c 0023     		movs	r3, #0
 1368 000e FB73     		strb	r3, [r7, #15]
 501:USB_DEVICE/Target/usbd_conf.c ****   USBD_StatusTypeDef usb_status = USBD_OK;
 1369              		.loc 1 501 22
 1370 0010 0023     		movs	r3, #0
 1371 0012 BB73     		strb	r3, [r7, #14]
 502:USB_DEVICE/Target/usbd_conf.c **** 
 503:USB_DEVICE/Target/usbd_conf.c ****   hal_status = HAL_PCD_EP_ClrStall(pdev->pData, ep_addr);
 1372              		.loc 1 503 40
 1373 0014 7B68     		ldr	r3, [r7, #4]
 1374 0016 D3F8C832 		ldr	r3, [r3, #712]
 1375              		.loc 1 503 16
 1376 001a FA78     		ldrb	r2, [r7, #3]	@ zero_extendqisi2
 1377 001c 1146     		mov	r1, r2
 1378 001e 1846     		mov	r0, r3
 1379 0020 FFF7FEFF 		bl	HAL_PCD_EP_ClrStall
 1380 0024 0346     		mov	r3, r0
 1381 0026 FB73     		strb	r3, [r7, #15]
 504:USB_DEVICE/Target/usbd_conf.c **** 
 505:USB_DEVICE/Target/usbd_conf.c ****   usb_status =  USBD_Get_USB_Status(hal_status);
 1382              		.loc 1 505 17
 1383 0028 FB7B     		ldrb	r3, [r7, #15]	@ zero_extendqisi2
 1384 002a 1846     		mov	r0, r3
 1385 002c FFF7FEFF 		bl	USBD_Get_USB_Status
 1386 0030 0346     		mov	r3, r0
 1387 0032 BB73     		strb	r3, [r7, #14]
 506:USB_DEVICE/Target/usbd_conf.c **** 
 507:USB_DEVICE/Target/usbd_conf.c ****   return usb_status;
 1388              		.loc 1 507 10
 1389 0034 BB7B     		ldrb	r3, [r7, #14]	@ zero_extendqisi2
 508:USB_DEVICE/Target/usbd_conf.c **** }
 1390              		.loc 1 508 1
 1391 0036 1846     		mov	r0, r3
 1392 0038 1037     		adds	r7, r7, #16
 1393              	.LCFI108:
 1394              		.cfi_def_cfa_offset 8
 1395 003a BD46     		mov	sp, r7
 1396              	.LCFI109:
 1397              		.cfi_def_cfa_register 13
 1398              		@ sp needed
 1399 003c 80BD     		pop	{r7, pc}
 1400              		.cfi_endproc
 1401              	.LFE169:
 1403              		.section	.text.USBD_LL_IsStallEP,"ax",%progbits
 1404              		.align	1
 1405              		.global	USBD_LL_IsStallEP
 1406              		.syntax unified
 1407              		.thumb
 1408              		.thumb_func
 1410              	USBD_LL_IsStallEP:
 1411              	.LFB170:
 509:USB_DEVICE/Target/usbd_conf.c **** 
 510:USB_DEVICE/Target/usbd_conf.c **** /**
 511:USB_DEVICE/Target/usbd_conf.c ****   * @brief  Returns Stall condition.
 512:USB_DEVICE/Target/usbd_conf.c ****   * @param  pdev: Device handle
 513:USB_DEVICE/Target/usbd_conf.c ****   * @param  ep_addr: Endpoint number
ARM GAS  C:\Users\23671\AppData\Local\Temp\ccoDtdY8.s 			page 34


 514:USB_DEVICE/Target/usbd_conf.c ****   * @retval Stall (1: Yes, 0: No)
 515:USB_DEVICE/Target/usbd_conf.c ****   */
 516:USB_DEVICE/Target/usbd_conf.c **** uint8_t USBD_LL_IsStallEP(USBD_HandleTypeDef *pdev, uint8_t ep_addr)
 517:USB_DEVICE/Target/usbd_conf.c **** {
 1412              		.loc 1 517 1
 1413              		.cfi_startproc
 1414              		@ args = 0, pretend = 0, frame = 16
 1415              		@ frame_needed = 1, uses_anonymous_args = 0
 1416              		@ link register save eliminated.
 1417 0000 80B4     		push	{r7}
 1418              	.LCFI110:
 1419              		.cfi_def_cfa_offset 4
 1420              		.cfi_offset 7, -4
 1421 0002 85B0     		sub	sp, sp, #20
 1422              	.LCFI111:
 1423              		.cfi_def_cfa_offset 24
 1424 0004 00AF     		add	r7, sp, #0
 1425              	.LCFI112:
 1426              		.cfi_def_cfa_register 7
 1427 0006 7860     		str	r0, [r7, #4]
 1428 0008 0B46     		mov	r3, r1
 1429 000a FB70     		strb	r3, [r7, #3]
 518:USB_DEVICE/Target/usbd_conf.c ****   PCD_HandleTypeDef *hpcd = (PCD_HandleTypeDef*) pdev->pData;
 1430              		.loc 1 518 22
 1431 000c 7B68     		ldr	r3, [r7, #4]
 1432 000e D3F8C832 		ldr	r3, [r3, #712]
 1433 0012 FB60     		str	r3, [r7, #12]
 519:USB_DEVICE/Target/usbd_conf.c **** 
 520:USB_DEVICE/Target/usbd_conf.c ****   if((ep_addr & 0x80) == 0x80)
 1434              		.loc 1 520 23
 1435 0014 97F90330 		ldrsb	r3, [r7, #3]
 1436              		.loc 1 520 5
 1437 0018 002B     		cmp	r3, #0
 1438 001a 0BDA     		bge	.L53
 521:USB_DEVICE/Target/usbd_conf.c ****   {
 522:USB_DEVICE/Target/usbd_conf.c ****     return hpcd->IN_ep[ep_addr & 0x7F].is_stall;
 1439              		.loc 1 522 32
 1440 001c FB78     		ldrb	r3, [r7, #3]	@ zero_extendqisi2
 1441 001e 03F07F02 		and	r2, r3, #127
 1442              		.loc 1 522 39
 1443 0022 F968     		ldr	r1, [r7, #12]
 1444 0024 1346     		mov	r3, r2
 1445 0026 DB00     		lsls	r3, r3, #3
 1446 0028 1344     		add	r3, r3, r2
 1447 002a 9B00     		lsls	r3, r3, #2
 1448 002c 0B44     		add	r3, r3, r1
 1449 002e 1633     		adds	r3, r3, #22
 1450 0030 1B78     		ldrb	r3, [r3]	@ zero_extendqisi2
 1451 0032 0BE0     		b	.L54
 1452              	.L53:
 523:USB_DEVICE/Target/usbd_conf.c ****   }
 524:USB_DEVICE/Target/usbd_conf.c ****   else
 525:USB_DEVICE/Target/usbd_conf.c ****   {
 526:USB_DEVICE/Target/usbd_conf.c ****     return hpcd->OUT_ep[ep_addr & 0x7F].is_stall;
 1453              		.loc 1 526 33
 1454 0034 FB78     		ldrb	r3, [r7, #3]	@ zero_extendqisi2
 1455 0036 03F07F02 		and	r2, r3, #127
ARM GAS  C:\Users\23671\AppData\Local\Temp\ccoDtdY8.s 			page 35


 1456              		.loc 1 526 40
 1457 003a F968     		ldr	r1, [r7, #12]
 1458 003c 1346     		mov	r3, r2
 1459 003e DB00     		lsls	r3, r3, #3
 1460 0040 1344     		add	r3, r3, r2
 1461 0042 9B00     		lsls	r3, r3, #2
 1462 0044 0B44     		add	r3, r3, r1
 1463 0046 03F25623 		addw	r3, r3, #598
 1464 004a 1B78     		ldrb	r3, [r3]	@ zero_extendqisi2
 1465              	.L54:
 527:USB_DEVICE/Target/usbd_conf.c ****   }
 528:USB_DEVICE/Target/usbd_conf.c **** }
 1466              		.loc 1 528 1
 1467 004c 1846     		mov	r0, r3
 1468 004e 1437     		adds	r7, r7, #20
 1469              	.LCFI113:
 1470              		.cfi_def_cfa_offset 4
 1471 0050 BD46     		mov	sp, r7
 1472              	.LCFI114:
 1473              		.cfi_def_cfa_register 13
 1474              		@ sp needed
 1475 0052 5DF8047B 		ldr	r7, [sp], #4
 1476              	.LCFI115:
 1477              		.cfi_restore 7
 1478              		.cfi_def_cfa_offset 0
 1479 0056 7047     		bx	lr
 1480              		.cfi_endproc
 1481              	.LFE170:
 1483              		.section	.text.USBD_LL_SetUSBAddress,"ax",%progbits
 1484              		.align	1
 1485              		.global	USBD_LL_SetUSBAddress
 1486              		.syntax unified
 1487              		.thumb
 1488              		.thumb_func
 1490              	USBD_LL_SetUSBAddress:
 1491              	.LFB171:
 529:USB_DEVICE/Target/usbd_conf.c **** 
 530:USB_DEVICE/Target/usbd_conf.c **** /**
 531:USB_DEVICE/Target/usbd_conf.c ****   * @brief  Assigns a USB address to the device.
 532:USB_DEVICE/Target/usbd_conf.c ****   * @param  pdev: Device handle
 533:USB_DEVICE/Target/usbd_conf.c ****   * @param  dev_addr: Device address
 534:USB_DEVICE/Target/usbd_conf.c ****   * @retval USBD status
 535:USB_DEVICE/Target/usbd_conf.c ****   */
 536:USB_DEVICE/Target/usbd_conf.c **** USBD_StatusTypeDef USBD_LL_SetUSBAddress(USBD_HandleTypeDef *pdev, uint8_t dev_addr)
 537:USB_DEVICE/Target/usbd_conf.c **** {
 1492              		.loc 1 537 1
 1493              		.cfi_startproc
 1494              		@ args = 0, pretend = 0, frame = 16
 1495              		@ frame_needed = 1, uses_anonymous_args = 0
 1496 0000 80B5     		push	{r7, lr}
 1497              	.LCFI116:
 1498              		.cfi_def_cfa_offset 8
 1499              		.cfi_offset 7, -8
 1500              		.cfi_offset 14, -4
 1501 0002 84B0     		sub	sp, sp, #16
 1502              	.LCFI117:
 1503              		.cfi_def_cfa_offset 24
ARM GAS  C:\Users\23671\AppData\Local\Temp\ccoDtdY8.s 			page 36


 1504 0004 00AF     		add	r7, sp, #0
 1505              	.LCFI118:
 1506              		.cfi_def_cfa_register 7
 1507 0006 7860     		str	r0, [r7, #4]
 1508 0008 0B46     		mov	r3, r1
 1509 000a FB70     		strb	r3, [r7, #3]
 538:USB_DEVICE/Target/usbd_conf.c ****   HAL_StatusTypeDef hal_status = HAL_OK;
 1510              		.loc 1 538 21
 1511 000c 0023     		movs	r3, #0
 1512 000e FB73     		strb	r3, [r7, #15]
 539:USB_DEVICE/Target/usbd_conf.c ****   USBD_StatusTypeDef usb_status = USBD_OK;
 1513              		.loc 1 539 22
 1514 0010 0023     		movs	r3, #0
 1515 0012 BB73     		strb	r3, [r7, #14]
 540:USB_DEVICE/Target/usbd_conf.c **** 
 541:USB_DEVICE/Target/usbd_conf.c ****   hal_status = HAL_PCD_SetAddress(pdev->pData, dev_addr);
 1516              		.loc 1 541 39
 1517 0014 7B68     		ldr	r3, [r7, #4]
 1518 0016 D3F8C832 		ldr	r3, [r3, #712]
 1519              		.loc 1 541 16
 1520 001a FA78     		ldrb	r2, [r7, #3]	@ zero_extendqisi2
 1521 001c 1146     		mov	r1, r2
 1522 001e 1846     		mov	r0, r3
 1523 0020 FFF7FEFF 		bl	HAL_PCD_SetAddress
 1524 0024 0346     		mov	r3, r0
 1525 0026 FB73     		strb	r3, [r7, #15]
 542:USB_DEVICE/Target/usbd_conf.c **** 
 543:USB_DEVICE/Target/usbd_conf.c ****   usb_status =  USBD_Get_USB_Status(hal_status);
 1526              		.loc 1 543 17
 1527 0028 FB7B     		ldrb	r3, [r7, #15]	@ zero_extendqisi2
 1528 002a 1846     		mov	r0, r3
 1529 002c FFF7FEFF 		bl	USBD_Get_USB_Status
 1530 0030 0346     		mov	r3, r0
 1531 0032 BB73     		strb	r3, [r7, #14]
 544:USB_DEVICE/Target/usbd_conf.c **** 
 545:USB_DEVICE/Target/usbd_conf.c ****   return usb_status;
 1532              		.loc 1 545 10
 1533 0034 BB7B     		ldrb	r3, [r7, #14]	@ zero_extendqisi2
 546:USB_DEVICE/Target/usbd_conf.c **** }
 1534              		.loc 1 546 1
 1535 0036 1846     		mov	r0, r3
 1536 0038 1037     		adds	r7, r7, #16
 1537              	.LCFI119:
 1538              		.cfi_def_cfa_offset 8
 1539 003a BD46     		mov	sp, r7
 1540              	.LCFI120:
 1541              		.cfi_def_cfa_register 13
 1542              		@ sp needed
 1543 003c 80BD     		pop	{r7, pc}
 1544              		.cfi_endproc
 1545              	.LFE171:
 1547              		.section	.text.USBD_LL_Transmit,"ax",%progbits
 1548              		.align	1
 1549              		.global	USBD_LL_Transmit
 1550              		.syntax unified
 1551              		.thumb
 1552              		.thumb_func
ARM GAS  C:\Users\23671\AppData\Local\Temp\ccoDtdY8.s 			page 37


 1554              	USBD_LL_Transmit:
 1555              	.LFB172:
 547:USB_DEVICE/Target/usbd_conf.c **** 
 548:USB_DEVICE/Target/usbd_conf.c **** /**
 549:USB_DEVICE/Target/usbd_conf.c ****   * @brief  Transmits data over an endpoint.
 550:USB_DEVICE/Target/usbd_conf.c ****   * @param  pdev: Device handle
 551:USB_DEVICE/Target/usbd_conf.c ****   * @param  ep_addr: Endpoint number
 552:USB_DEVICE/Target/usbd_conf.c ****   * @param  pbuf: Pointer to data to be sent
 553:USB_DEVICE/Target/usbd_conf.c ****   * @param  size: Data size
 554:USB_DEVICE/Target/usbd_conf.c ****   * @retval USBD status
 555:USB_DEVICE/Target/usbd_conf.c ****   */
 556:USB_DEVICE/Target/usbd_conf.c **** USBD_StatusTypeDef USBD_LL_Transmit(USBD_HandleTypeDef *pdev, uint8_t ep_addr, uint8_t *pbuf, uint3
 557:USB_DEVICE/Target/usbd_conf.c **** {
 1556              		.loc 1 557 1
 1557              		.cfi_startproc
 1558              		@ args = 0, pretend = 0, frame = 24
 1559              		@ frame_needed = 1, uses_anonymous_args = 0
 1560 0000 80B5     		push	{r7, lr}
 1561              	.LCFI121:
 1562              		.cfi_def_cfa_offset 8
 1563              		.cfi_offset 7, -8
 1564              		.cfi_offset 14, -4
 1565 0002 86B0     		sub	sp, sp, #24
 1566              	.LCFI122:
 1567              		.cfi_def_cfa_offset 32
 1568 0004 00AF     		add	r7, sp, #0
 1569              	.LCFI123:
 1570              		.cfi_def_cfa_register 7
 1571 0006 F860     		str	r0, [r7, #12]
 1572 0008 7A60     		str	r2, [r7, #4]
 1573 000a 3B60     		str	r3, [r7]
 1574 000c 0B46     		mov	r3, r1
 1575 000e FB72     		strb	r3, [r7, #11]
 558:USB_DEVICE/Target/usbd_conf.c ****   HAL_StatusTypeDef hal_status = HAL_OK;
 1576              		.loc 1 558 21
 1577 0010 0023     		movs	r3, #0
 1578 0012 FB75     		strb	r3, [r7, #23]
 559:USB_DEVICE/Target/usbd_conf.c ****   USBD_StatusTypeDef usb_status = USBD_OK;
 1579              		.loc 1 559 22
 1580 0014 0023     		movs	r3, #0
 1581 0016 BB75     		strb	r3, [r7, #22]
 560:USB_DEVICE/Target/usbd_conf.c **** 
 561:USB_DEVICE/Target/usbd_conf.c ****   hal_status = HAL_PCD_EP_Transmit(pdev->pData, ep_addr, pbuf, size);
 1582              		.loc 1 561 40
 1583 0018 FB68     		ldr	r3, [r7, #12]
 1584 001a D3F8C802 		ldr	r0, [r3, #712]
 1585              		.loc 1 561 16
 1586 001e F97A     		ldrb	r1, [r7, #11]	@ zero_extendqisi2
 1587 0020 3B68     		ldr	r3, [r7]
 1588 0022 7A68     		ldr	r2, [r7, #4]
 1589 0024 FFF7FEFF 		bl	HAL_PCD_EP_Transmit
 1590 0028 0346     		mov	r3, r0
 1591 002a FB75     		strb	r3, [r7, #23]
 562:USB_DEVICE/Target/usbd_conf.c **** 
 563:USB_DEVICE/Target/usbd_conf.c ****   usb_status =  USBD_Get_USB_Status(hal_status);
 1592              		.loc 1 563 17
 1593 002c FB7D     		ldrb	r3, [r7, #23]	@ zero_extendqisi2
ARM GAS  C:\Users\23671\AppData\Local\Temp\ccoDtdY8.s 			page 38


 1594 002e 1846     		mov	r0, r3
 1595 0030 FFF7FEFF 		bl	USBD_Get_USB_Status
 1596 0034 0346     		mov	r3, r0
 1597 0036 BB75     		strb	r3, [r7, #22]
 564:USB_DEVICE/Target/usbd_conf.c **** 
 565:USB_DEVICE/Target/usbd_conf.c ****   return usb_status;
 1598              		.loc 1 565 10
 1599 0038 BB7D     		ldrb	r3, [r7, #22]	@ zero_extendqisi2
 566:USB_DEVICE/Target/usbd_conf.c **** }
 1600              		.loc 1 566 1
 1601 003a 1846     		mov	r0, r3
 1602 003c 1837     		adds	r7, r7, #24
 1603              	.LCFI124:
 1604              		.cfi_def_cfa_offset 8
 1605 003e BD46     		mov	sp, r7
 1606              	.LCFI125:
 1607              		.cfi_def_cfa_register 13
 1608              		@ sp needed
 1609 0040 80BD     		pop	{r7, pc}
 1610              		.cfi_endproc
 1611              	.LFE172:
 1613              		.section	.text.USBD_LL_PrepareReceive,"ax",%progbits
 1614              		.align	1
 1615              		.global	USBD_LL_PrepareReceive
 1616              		.syntax unified
 1617              		.thumb
 1618              		.thumb_func
 1620              	USBD_LL_PrepareReceive:
 1621              	.LFB173:
 567:USB_DEVICE/Target/usbd_conf.c **** 
 568:USB_DEVICE/Target/usbd_conf.c **** /**
 569:USB_DEVICE/Target/usbd_conf.c ****   * @brief  Prepares an endpoint for reception.
 570:USB_DEVICE/Target/usbd_conf.c ****   * @param  pdev: Device handle
 571:USB_DEVICE/Target/usbd_conf.c ****   * @param  ep_addr: Endpoint number
 572:USB_DEVICE/Target/usbd_conf.c ****   * @param  pbuf: Pointer to data to be received
 573:USB_DEVICE/Target/usbd_conf.c ****   * @param  size: Data size
 574:USB_DEVICE/Target/usbd_conf.c ****   * @retval USBD status
 575:USB_DEVICE/Target/usbd_conf.c ****   */
 576:USB_DEVICE/Target/usbd_conf.c **** USBD_StatusTypeDef USBD_LL_PrepareReceive(USBD_HandleTypeDef *pdev, uint8_t ep_addr, uint8_t *pbuf,
 577:USB_DEVICE/Target/usbd_conf.c **** {
 1622              		.loc 1 577 1
 1623              		.cfi_startproc
 1624              		@ args = 0, pretend = 0, frame = 24
 1625              		@ frame_needed = 1, uses_anonymous_args = 0
 1626 0000 80B5     		push	{r7, lr}
 1627              	.LCFI126:
 1628              		.cfi_def_cfa_offset 8
 1629              		.cfi_offset 7, -8
 1630              		.cfi_offset 14, -4
 1631 0002 86B0     		sub	sp, sp, #24
 1632              	.LCFI127:
 1633              		.cfi_def_cfa_offset 32
 1634 0004 00AF     		add	r7, sp, #0
 1635              	.LCFI128:
 1636              		.cfi_def_cfa_register 7
 1637 0006 F860     		str	r0, [r7, #12]
 1638 0008 7A60     		str	r2, [r7, #4]
ARM GAS  C:\Users\23671\AppData\Local\Temp\ccoDtdY8.s 			page 39


 1639 000a 3B60     		str	r3, [r7]
 1640 000c 0B46     		mov	r3, r1
 1641 000e FB72     		strb	r3, [r7, #11]
 578:USB_DEVICE/Target/usbd_conf.c ****   HAL_StatusTypeDef hal_status = HAL_OK;
 1642              		.loc 1 578 21
 1643 0010 0023     		movs	r3, #0
 1644 0012 FB75     		strb	r3, [r7, #23]
 579:USB_DEVICE/Target/usbd_conf.c ****   USBD_StatusTypeDef usb_status = USBD_OK;
 1645              		.loc 1 579 22
 1646 0014 0023     		movs	r3, #0
 1647 0016 BB75     		strb	r3, [r7, #22]
 580:USB_DEVICE/Target/usbd_conf.c **** 
 581:USB_DEVICE/Target/usbd_conf.c ****   hal_status = HAL_PCD_EP_Receive(pdev->pData, ep_addr, pbuf, size);
 1648              		.loc 1 581 39
 1649 0018 FB68     		ldr	r3, [r7, #12]
 1650 001a D3F8C802 		ldr	r0, [r3, #712]
 1651              		.loc 1 581 16
 1652 001e F97A     		ldrb	r1, [r7, #11]	@ zero_extendqisi2
 1653 0020 3B68     		ldr	r3, [r7]
 1654 0022 7A68     		ldr	r2, [r7, #4]
 1655 0024 FFF7FEFF 		bl	HAL_PCD_EP_Receive
 1656 0028 0346     		mov	r3, r0
 1657 002a FB75     		strb	r3, [r7, #23]
 582:USB_DEVICE/Target/usbd_conf.c **** 
 583:USB_DEVICE/Target/usbd_conf.c ****   usb_status =  USBD_Get_USB_Status(hal_status);
 1658              		.loc 1 583 17
 1659 002c FB7D     		ldrb	r3, [r7, #23]	@ zero_extendqisi2
 1660 002e 1846     		mov	r0, r3
 1661 0030 FFF7FEFF 		bl	USBD_Get_USB_Status
 1662 0034 0346     		mov	r3, r0
 1663 0036 BB75     		strb	r3, [r7, #22]
 584:USB_DEVICE/Target/usbd_conf.c **** 
 585:USB_DEVICE/Target/usbd_conf.c ****   return usb_status;
 1664              		.loc 1 585 10
 1665 0038 BB7D     		ldrb	r3, [r7, #22]	@ zero_extendqisi2
 586:USB_DEVICE/Target/usbd_conf.c **** }
 1666              		.loc 1 586 1
 1667 003a 1846     		mov	r0, r3
 1668 003c 1837     		adds	r7, r7, #24
 1669              	.LCFI129:
 1670              		.cfi_def_cfa_offset 8
 1671 003e BD46     		mov	sp, r7
 1672              	.LCFI130:
 1673              		.cfi_def_cfa_register 13
 1674              		@ sp needed
 1675 0040 80BD     		pop	{r7, pc}
 1676              		.cfi_endproc
 1677              	.LFE173:
 1679              		.section	.text.USBD_LL_GetRxDataSize,"ax",%progbits
 1680              		.align	1
 1681              		.global	USBD_LL_GetRxDataSize
 1682              		.syntax unified
 1683              		.thumb
 1684              		.thumb_func
 1686              	USBD_LL_GetRxDataSize:
 1687              	.LFB174:
 587:USB_DEVICE/Target/usbd_conf.c **** 
ARM GAS  C:\Users\23671\AppData\Local\Temp\ccoDtdY8.s 			page 40


 588:USB_DEVICE/Target/usbd_conf.c **** /**
 589:USB_DEVICE/Target/usbd_conf.c ****   * @brief  Returns the last transferred packet size.
 590:USB_DEVICE/Target/usbd_conf.c ****   * @param  pdev: Device handle
 591:USB_DEVICE/Target/usbd_conf.c ****   * @param  ep_addr: Endpoint number
 592:USB_DEVICE/Target/usbd_conf.c ****   * @retval Received Data Size
 593:USB_DEVICE/Target/usbd_conf.c ****   */
 594:USB_DEVICE/Target/usbd_conf.c **** uint32_t USBD_LL_GetRxDataSize(USBD_HandleTypeDef *pdev, uint8_t ep_addr)
 595:USB_DEVICE/Target/usbd_conf.c **** {
 1688              		.loc 1 595 1
 1689              		.cfi_startproc
 1690              		@ args = 0, pretend = 0, frame = 8
 1691              		@ frame_needed = 1, uses_anonymous_args = 0
 1692 0000 80B5     		push	{r7, lr}
 1693              	.LCFI131:
 1694              		.cfi_def_cfa_offset 8
 1695              		.cfi_offset 7, -8
 1696              		.cfi_offset 14, -4
 1697 0002 82B0     		sub	sp, sp, #8
 1698              	.LCFI132:
 1699              		.cfi_def_cfa_offset 16
 1700 0004 00AF     		add	r7, sp, #0
 1701              	.LCFI133:
 1702              		.cfi_def_cfa_register 7
 1703 0006 7860     		str	r0, [r7, #4]
 1704 0008 0B46     		mov	r3, r1
 1705 000a FB70     		strb	r3, [r7, #3]
 596:USB_DEVICE/Target/usbd_conf.c ****   return HAL_PCD_EP_GetRxCount((PCD_HandleTypeDef*) pdev->pData, ep_addr);
 1706              		.loc 1 596 57
 1707 000c 7B68     		ldr	r3, [r7, #4]
 1708 000e D3F8C832 		ldr	r3, [r3, #712]
 1709              		.loc 1 596 10
 1710 0012 FA78     		ldrb	r2, [r7, #3]	@ zero_extendqisi2
 1711 0014 1146     		mov	r1, r2
 1712 0016 1846     		mov	r0, r3
 1713 0018 FFF7FEFF 		bl	HAL_PCD_EP_GetRxCount
 1714 001c 0346     		mov	r3, r0
 597:USB_DEVICE/Target/usbd_conf.c **** }
 1715              		.loc 1 597 1
 1716 001e 1846     		mov	r0, r3
 1717 0020 0837     		adds	r7, r7, #8
 1718              	.LCFI134:
 1719              		.cfi_def_cfa_offset 8
 1720 0022 BD46     		mov	sp, r7
 1721              	.LCFI135:
 1722              		.cfi_def_cfa_register 13
 1723              		@ sp needed
 1724 0024 80BD     		pop	{r7, pc}
 1725              		.cfi_endproc
 1726              	.LFE174:
 1728              		.section	.text.USBD_static_malloc,"ax",%progbits
 1729              		.align	1
 1730              		.global	USBD_static_malloc
 1731              		.syntax unified
 1732              		.thumb
 1733              		.thumb_func
 1735              	USBD_static_malloc:
 1736              	.LFB175:
ARM GAS  C:\Users\23671\AppData\Local\Temp\ccoDtdY8.s 			page 41


 598:USB_DEVICE/Target/usbd_conf.c **** 
 599:USB_DEVICE/Target/usbd_conf.c **** #ifdef USBD_HS_TESTMODE_ENABLE
 600:USB_DEVICE/Target/usbd_conf.c **** /**
 601:USB_DEVICE/Target/usbd_conf.c ****   * @brief  Set High speed Test mode.
 602:USB_DEVICE/Target/usbd_conf.c ****   * @param  pdev: Device handle
 603:USB_DEVICE/Target/usbd_conf.c ****   * @param  testmode: test mode
 604:USB_DEVICE/Target/usbd_conf.c ****   * @retval USBD Status
 605:USB_DEVICE/Target/usbd_conf.c ****   */
 606:USB_DEVICE/Target/usbd_conf.c **** USBD_StatusTypeDef USBD_LL_SetTestMode(USBD_HandleTypeDef *pdev, uint8_t testmode)
 607:USB_DEVICE/Target/usbd_conf.c **** {
 608:USB_DEVICE/Target/usbd_conf.c ****   UNUSED(pdev);
 609:USB_DEVICE/Target/usbd_conf.c ****   UNUSED(testmode);
 610:USB_DEVICE/Target/usbd_conf.c **** 
 611:USB_DEVICE/Target/usbd_conf.c ****   return USBD_OK;
 612:USB_DEVICE/Target/usbd_conf.c **** }
 613:USB_DEVICE/Target/usbd_conf.c **** #endif /* USBD_HS_TESTMODE_ENABLE */
 614:USB_DEVICE/Target/usbd_conf.c **** /**
 615:USB_DEVICE/Target/usbd_conf.c ****   * @brief  Static single allocation.
 616:USB_DEVICE/Target/usbd_conf.c ****   * @param  size: Size of allocated memory
 617:USB_DEVICE/Target/usbd_conf.c ****   * @retval None
 618:USB_DEVICE/Target/usbd_conf.c ****   */
 619:USB_DEVICE/Target/usbd_conf.c **** void *USBD_static_malloc(uint32_t size)
 620:USB_DEVICE/Target/usbd_conf.c **** {
 1737              		.loc 1 620 1
 1738              		.cfi_startproc
 1739              		@ args = 0, pretend = 0, frame = 8
 1740              		@ frame_needed = 1, uses_anonymous_args = 0
 1741              		@ link register save eliminated.
 1742 0000 80B4     		push	{r7}
 1743              	.LCFI136:
 1744              		.cfi_def_cfa_offset 4
 1745              		.cfi_offset 7, -4
 1746 0002 83B0     		sub	sp, sp, #12
 1747              	.LCFI137:
 1748              		.cfi_def_cfa_offset 16
 1749 0004 00AF     		add	r7, sp, #0
 1750              	.LCFI138:
 1751              		.cfi_def_cfa_register 7
 1752 0006 7860     		str	r0, [r7, #4]
 621:USB_DEVICE/Target/usbd_conf.c ****   UNUSED(size);
 622:USB_DEVICE/Target/usbd_conf.c ****   static uint32_t mem[(sizeof(USBD_CDC_HandleTypeDef)/4)+1];/* On 32-bit boundary */
 623:USB_DEVICE/Target/usbd_conf.c ****   return mem;
 1753              		.loc 1 623 10
 1754 0008 034B     		ldr	r3, .L65
 624:USB_DEVICE/Target/usbd_conf.c **** }
 1755              		.loc 1 624 1
 1756 000a 1846     		mov	r0, r3
 1757 000c 0C37     		adds	r7, r7, #12
 1758              	.LCFI139:
 1759              		.cfi_def_cfa_offset 4
 1760 000e BD46     		mov	sp, r7
 1761              	.LCFI140:
 1762              		.cfi_def_cfa_register 13
 1763              		@ sp needed
 1764 0010 5DF8047B 		ldr	r7, [sp], #4
 1765              	.LCFI141:
 1766              		.cfi_restore 7
ARM GAS  C:\Users\23671\AppData\Local\Temp\ccoDtdY8.s 			page 42


 1767              		.cfi_def_cfa_offset 0
 1768 0014 7047     		bx	lr
 1769              	.L66:
 1770 0016 00BF     		.align	2
 1771              	.L65:
 1772 0018 00000000 		.word	mem.0
 1773              		.cfi_endproc
 1774              	.LFE175:
 1776              		.section	.text.USBD_static_free,"ax",%progbits
 1777              		.align	1
 1778              		.global	USBD_static_free
 1779              		.syntax unified
 1780              		.thumb
 1781              		.thumb_func
 1783              	USBD_static_free:
 1784              	.LFB176:
 625:USB_DEVICE/Target/usbd_conf.c **** 
 626:USB_DEVICE/Target/usbd_conf.c **** /**
 627:USB_DEVICE/Target/usbd_conf.c ****   * @brief  Dummy memory free
 628:USB_DEVICE/Target/usbd_conf.c ****   * @param  p: Pointer to allocated  memory address
 629:USB_DEVICE/Target/usbd_conf.c ****   * @retval None
 630:USB_DEVICE/Target/usbd_conf.c ****   */
 631:USB_DEVICE/Target/usbd_conf.c **** void USBD_static_free(void *p)
 632:USB_DEVICE/Target/usbd_conf.c **** {
 1785              		.loc 1 632 1
 1786              		.cfi_startproc
 1787              		@ args = 0, pretend = 0, frame = 8
 1788              		@ frame_needed = 1, uses_anonymous_args = 0
 1789              		@ link register save eliminated.
 1790 0000 80B4     		push	{r7}
 1791              	.LCFI142:
 1792              		.cfi_def_cfa_offset 4
 1793              		.cfi_offset 7, -4
 1794 0002 83B0     		sub	sp, sp, #12
 1795              	.LCFI143:
 1796              		.cfi_def_cfa_offset 16
 1797 0004 00AF     		add	r7, sp, #0
 1798              	.LCFI144:
 1799              		.cfi_def_cfa_register 7
 1800 0006 7860     		str	r0, [r7, #4]
 633:USB_DEVICE/Target/usbd_conf.c ****   UNUSED(p);
 634:USB_DEVICE/Target/usbd_conf.c **** }
 1801              		.loc 1 634 1
 1802 0008 00BF     		nop
 1803 000a 0C37     		adds	r7, r7, #12
 1804              	.LCFI145:
 1805              		.cfi_def_cfa_offset 4
 1806 000c BD46     		mov	sp, r7
 1807              	.LCFI146:
 1808              		.cfi_def_cfa_register 13
 1809              		@ sp needed
 1810 000e 5DF8047B 		ldr	r7, [sp], #4
 1811              	.LCFI147:
 1812              		.cfi_restore 7
 1813              		.cfi_def_cfa_offset 0
 1814 0012 7047     		bx	lr
 1815              		.cfi_endproc
ARM GAS  C:\Users\23671\AppData\Local\Temp\ccoDtdY8.s 			page 43


 1816              	.LFE176:
 1818              		.section	.text.USBD_LL_Delay,"ax",%progbits
 1819              		.align	1
 1820              		.global	USBD_LL_Delay
 1821              		.syntax unified
 1822              		.thumb
 1823              		.thumb_func
 1825              	USBD_LL_Delay:
 1826              	.LFB177:
 635:USB_DEVICE/Target/usbd_conf.c **** 
 636:USB_DEVICE/Target/usbd_conf.c **** /**
 637:USB_DEVICE/Target/usbd_conf.c ****   * @brief  Delays routine for the USB device library.
 638:USB_DEVICE/Target/usbd_conf.c ****   * @param  Delay: Delay in ms
 639:USB_DEVICE/Target/usbd_conf.c ****   * @retval None
 640:USB_DEVICE/Target/usbd_conf.c ****   */
 641:USB_DEVICE/Target/usbd_conf.c **** void USBD_LL_Delay(uint32_t Delay)
 642:USB_DEVICE/Target/usbd_conf.c **** {
 1827              		.loc 1 642 1
 1828              		.cfi_startproc
 1829              		@ args = 0, pretend = 0, frame = 8
 1830              		@ frame_needed = 1, uses_anonymous_args = 0
 1831 0000 80B5     		push	{r7, lr}
 1832              	.LCFI148:
 1833              		.cfi_def_cfa_offset 8
 1834              		.cfi_offset 7, -8
 1835              		.cfi_offset 14, -4
 1836 0002 82B0     		sub	sp, sp, #8
 1837              	.LCFI149:
 1838              		.cfi_def_cfa_offset 16
 1839 0004 00AF     		add	r7, sp, #0
 1840              	.LCFI150:
 1841              		.cfi_def_cfa_register 7
 1842 0006 7860     		str	r0, [r7, #4]
 643:USB_DEVICE/Target/usbd_conf.c ****   HAL_Delay(Delay);
 1843              		.loc 1 643 3
 1844 0008 7868     		ldr	r0, [r7, #4]
 1845 000a FFF7FEFF 		bl	HAL_Delay
 644:USB_DEVICE/Target/usbd_conf.c **** }
 1846              		.loc 1 644 1
 1847 000e 00BF     		nop
 1848 0010 0837     		adds	r7, r7, #8
 1849              	.LCFI151:
 1850              		.cfi_def_cfa_offset 8
 1851 0012 BD46     		mov	sp, r7
 1852              	.LCFI152:
 1853              		.cfi_def_cfa_register 13
 1854              		@ sp needed
 1855 0014 80BD     		pop	{r7, pc}
 1856              		.cfi_endproc
 1857              	.LFE177:
 1859              		.section	.text.USBD_Get_USB_Status,"ax",%progbits
 1860              		.align	1
 1861              		.global	USBD_Get_USB_Status
 1862              		.syntax unified
 1863              		.thumb
 1864              		.thumb_func
 1866              	USBD_Get_USB_Status:
ARM GAS  C:\Users\23671\AppData\Local\Temp\ccoDtdY8.s 			page 44


 1867              	.LFB178:
 645:USB_DEVICE/Target/usbd_conf.c **** 
 646:USB_DEVICE/Target/usbd_conf.c **** /**
 647:USB_DEVICE/Target/usbd_conf.c ****   * @brief  Returns the USB status depending on the HAL status:
 648:USB_DEVICE/Target/usbd_conf.c ****   * @param  hal_status: HAL status
 649:USB_DEVICE/Target/usbd_conf.c ****   * @retval USB status
 650:USB_DEVICE/Target/usbd_conf.c ****   */
 651:USB_DEVICE/Target/usbd_conf.c **** USBD_StatusTypeDef USBD_Get_USB_Status(HAL_StatusTypeDef hal_status)
 652:USB_DEVICE/Target/usbd_conf.c **** {
 1868              		.loc 1 652 1
 1869              		.cfi_startproc
 1870              		@ args = 0, pretend = 0, frame = 16
 1871              		@ frame_needed = 1, uses_anonymous_args = 0
 1872              		@ link register save eliminated.
 1873 0000 80B4     		push	{r7}
 1874              	.LCFI153:
 1875              		.cfi_def_cfa_offset 4
 1876              		.cfi_offset 7, -4
 1877 0002 85B0     		sub	sp, sp, #20
 1878              	.LCFI154:
 1879              		.cfi_def_cfa_offset 24
 1880 0004 00AF     		add	r7, sp, #0
 1881              	.LCFI155:
 1882              		.cfi_def_cfa_register 7
 1883 0006 0346     		mov	r3, r0
 1884 0008 FB71     		strb	r3, [r7, #7]
 653:USB_DEVICE/Target/usbd_conf.c ****   USBD_StatusTypeDef usb_status = USBD_OK;
 1885              		.loc 1 653 22
 1886 000a 0023     		movs	r3, #0
 1887 000c FB73     		strb	r3, [r7, #15]
 654:USB_DEVICE/Target/usbd_conf.c **** 
 655:USB_DEVICE/Target/usbd_conf.c ****   switch (hal_status)
 1888              		.loc 1 655 3
 1889 000e FB79     		ldrb	r3, [r7, #7]	@ zero_extendqisi2
 1890 0010 032B     		cmp	r3, #3
 1891 0012 17D8     		bhi	.L70
 1892 0014 01A2     		adr	r2, .L72
 1893 0016 52F823F0 		ldr	pc, [r2, r3, lsl #2]
 1894 001a 00BF     		.p2align 2
 1895              	.L72:
 1896 001c 2D000000 		.word	.L75+1
 1897 0020 33000000 		.word	.L74+1
 1898 0024 39000000 		.word	.L73+1
 1899 0028 3F000000 		.word	.L71+1
 1900              		.p2align 1
 1901              	.L75:
 656:USB_DEVICE/Target/usbd_conf.c ****   {
 657:USB_DEVICE/Target/usbd_conf.c ****     case HAL_OK :
 658:USB_DEVICE/Target/usbd_conf.c ****       usb_status = USBD_OK;
 1902              		.loc 1 658 18
 1903 002c 0023     		movs	r3, #0
 1904 002e FB73     		strb	r3, [r7, #15]
 659:USB_DEVICE/Target/usbd_conf.c ****     break;
 1905              		.loc 1 659 5
 1906 0030 0BE0     		b	.L76
 1907              	.L74:
 660:USB_DEVICE/Target/usbd_conf.c ****     case HAL_ERROR :
ARM GAS  C:\Users\23671\AppData\Local\Temp\ccoDtdY8.s 			page 45


 661:USB_DEVICE/Target/usbd_conf.c ****       usb_status = USBD_FAIL;
 1908              		.loc 1 661 18
 1909 0032 0323     		movs	r3, #3
 1910 0034 FB73     		strb	r3, [r7, #15]
 662:USB_DEVICE/Target/usbd_conf.c ****     break;
 1911              		.loc 1 662 5
 1912 0036 08E0     		b	.L76
 1913              	.L73:
 663:USB_DEVICE/Target/usbd_conf.c ****     case HAL_BUSY :
 664:USB_DEVICE/Target/usbd_conf.c ****       usb_status = USBD_BUSY;
 1914              		.loc 1 664 18
 1915 0038 0123     		movs	r3, #1
 1916 003a FB73     		strb	r3, [r7, #15]
 665:USB_DEVICE/Target/usbd_conf.c ****     break;
 1917              		.loc 1 665 5
 1918 003c 05E0     		b	.L76
 1919              	.L71:
 666:USB_DEVICE/Target/usbd_conf.c ****     case HAL_TIMEOUT :
 667:USB_DEVICE/Target/usbd_conf.c ****       usb_status = USBD_FAIL;
 1920              		.loc 1 667 18
 1921 003e 0323     		movs	r3, #3
 1922 0040 FB73     		strb	r3, [r7, #15]
 668:USB_DEVICE/Target/usbd_conf.c ****     break;
 1923              		.loc 1 668 5
 1924 0042 02E0     		b	.L76
 1925              	.L70:
 669:USB_DEVICE/Target/usbd_conf.c ****     default :
 670:USB_DEVICE/Target/usbd_conf.c ****       usb_status = USBD_FAIL;
 1926              		.loc 1 670 18
 1927 0044 0323     		movs	r3, #3
 1928 0046 FB73     		strb	r3, [r7, #15]
 671:USB_DEVICE/Target/usbd_conf.c ****     break;
 1929              		.loc 1 671 5
 1930 0048 00BF     		nop
 1931              	.L76:
 672:USB_DEVICE/Target/usbd_conf.c ****   }
 673:USB_DEVICE/Target/usbd_conf.c ****   return usb_status;
 1932              		.loc 1 673 10
 1933 004a FB7B     		ldrb	r3, [r7, #15]	@ zero_extendqisi2
 674:USB_DEVICE/Target/usbd_conf.c **** }
 1934              		.loc 1 674 1
 1935 004c 1846     		mov	r0, r3
 1936 004e 1437     		adds	r7, r7, #20
 1937              	.LCFI156:
 1938              		.cfi_def_cfa_offset 4
 1939 0050 BD46     		mov	sp, r7
 1940              	.LCFI157:
 1941              		.cfi_def_cfa_register 13
 1942              		@ sp needed
 1943 0052 5DF8047B 		ldr	r7, [sp], #4
 1944              	.LCFI158:
 1945              		.cfi_restore 7
 1946              		.cfi_def_cfa_offset 0
 1947 0056 7047     		bx	lr
 1948              		.cfi_endproc
 1949              	.LFE178:
 1951              		.section	.bss.mem.0,"aw",%nobits
ARM GAS  C:\Users\23671\AppData\Local\Temp\ccoDtdY8.s 			page 46


 1952              		.align	2
 1955              	mem.0:
 1956 0000 00000000 		.space	544
 1956      00000000 
 1956      00000000 
 1956      00000000 
 1956      00000000 
 1957              		.text
 1958              	.Letext0:
 1959              		.file 2 "Drivers/CMSIS/Device/ST/STM32H7xx/Include/stm32h723xx.h"
 1960              		.file 3 "D:/MSYS2/mingw64/arm-none-eabi/include/machine/_default_types.h"
 1961              		.file 4 "D:/MSYS2/mingw64/arm-none-eabi/include/sys/_stdint.h"
 1962              		.file 5 "Drivers/CMSIS/Include/core_cm7.h"
 1963              		.file 6 "Drivers/CMSIS/Device/ST/STM32H7xx/Include/stm32h7xx.h"
 1964              		.file 7 "Drivers/STM32H7xx_HAL_Driver/Inc/stm32h7xx_hal_def.h"
 1965              		.file 8 "Drivers/STM32H7xx_HAL_Driver/Inc/stm32h7xx_hal_rcc_ex.h"
 1966              		.file 9 "Drivers/STM32H7xx_HAL_Driver/Inc/stm32h7xx_ll_usb.h"
 1967              		.file 10 "Drivers/STM32H7xx_HAL_Driver/Inc/stm32h7xx_hal_pcd.h"
 1968              		.file 11 "Middlewares/ST/STM32_USB_Device_Library/Core/Inc/usbd_def.h"
 1969              		.file 12 "Drivers/STM32H7xx_HAL_Driver/Inc/stm32h7xx_hal_pcd_ex.h"
 1970              		.file 13 "Middlewares/ST/STM32_USB_Device_Library/Core/Inc/usbd_core.h"
 1971              		.file 14 "Drivers/STM32H7xx_HAL_Driver/Inc/stm32h7xx_hal.h"
 1972              		.file 15 "Drivers/STM32H7xx_HAL_Driver/Inc/stm32h7xx_hal_cortex.h"
 1973              		.file 16 "Drivers/STM32H7xx_HAL_Driver/Inc/stm32h7xx_hal_pwr_ex.h"
ARM GAS  C:\Users\23671\AppData\Local\Temp\ccoDtdY8.s 			page 47

